
firmware.elf:     file format elf32-avr


Disassembly of section .text:

00000000 <__vectors>:
       0:	0c 94 8a 06 	jmp	0xd14	; 0xd14 <__ctors_end>
       4:	0c 94 a9 06 	jmp	0xd52	; 0xd52 <__bad_interrupt>
       8:	0c 94 a9 06 	jmp	0xd52	; 0xd52 <__bad_interrupt>
       c:	0c 94 a9 06 	jmp	0xd52	; 0xd52 <__bad_interrupt>
      10:	0c 94 a9 06 	jmp	0xd52	; 0xd52 <__bad_interrupt>
      14:	0c 94 a9 06 	jmp	0xd52	; 0xd52 <__bad_interrupt>
      18:	0c 94 a9 06 	jmp	0xd52	; 0xd52 <__bad_interrupt>
      1c:	0c 94 a9 06 	jmp	0xd52	; 0xd52 <__bad_interrupt>
      20:	0c 94 a9 06 	jmp	0xd52	; 0xd52 <__bad_interrupt>
      24:	0c 94 a9 06 	jmp	0xd52	; 0xd52 <__bad_interrupt>
      28:	0c 94 a9 06 	jmp	0xd52	; 0xd52 <__bad_interrupt>
      2c:	0c 94 a9 06 	jmp	0xd52	; 0xd52 <__bad_interrupt>
      30:	0c 94 a9 06 	jmp	0xd52	; 0xd52 <__bad_interrupt>
      34:	0c 94 a9 06 	jmp	0xd52	; 0xd52 <__bad_interrupt>
      38:	0c 94 a9 06 	jmp	0xd52	; 0xd52 <__bad_interrupt>
      3c:	0c 94 a9 06 	jmp	0xd52	; 0xd52 <__bad_interrupt>
      40:	0c 94 a9 06 	jmp	0xd52	; 0xd52 <__bad_interrupt>
      44:	0c 94 a9 06 	jmp	0xd52	; 0xd52 <__bad_interrupt>
      48:	0c 94 a9 06 	jmp	0xd52	; 0xd52 <__bad_interrupt>
      4c:	0c 94 a9 06 	jmp	0xd52	; 0xd52 <__bad_interrupt>
      50:	0c 94 a9 06 	jmp	0xd52	; 0xd52 <__bad_interrupt>
      54:	0c 94 a9 06 	jmp	0xd52	; 0xd52 <__bad_interrupt>
      58:	0c 94 a9 06 	jmp	0xd52	; 0xd52 <__bad_interrupt>
      5c:	0c 94 a9 06 	jmp	0xd52	; 0xd52 <__bad_interrupt>
      60:	0c 94 a9 06 	jmp	0xd52	; 0xd52 <__bad_interrupt>
      64:	0c 94 a9 06 	jmp	0xd52	; 0xd52 <__bad_interrupt>
      68:	0c 94 a9 06 	jmp	0xd52	; 0xd52 <__bad_interrupt>
      6c:	0c 94 a9 06 	jmp	0xd52	; 0xd52 <__bad_interrupt>
      70:	0c 94 a9 06 	jmp	0xd52	; 0xd52 <__bad_interrupt>
      74:	0c 94 a9 06 	jmp	0xd52	; 0xd52 <__bad_interrupt>
      78:	0c 94 a9 06 	jmp	0xd52	; 0xd52 <__bad_interrupt>
      7c:	0c 94 a9 06 	jmp	0xd52	; 0xd52 <__bad_interrupt>
      80:	0c 94 a9 06 	jmp	0xd52	; 0xd52 <__bad_interrupt>
      84:	0c 94 a9 06 	jmp	0xd52	; 0xd52 <__bad_interrupt>
      88:	0c 94 a9 06 	jmp	0xd52	; 0xd52 <__bad_interrupt>

0000008c <__trampolines_end>:
	...
      94:	00 08       	sbc	r0, r0
      96:	b9 00       	.word	0x00b9	; ????
      98:	b9 07       	cpc	r27, r25
      9a:	10 00       	.word	0x0010	; ????
	...

000000b9 <chrtbl_f16>:
      b9:	a9 07 99 07 89 07 79 07 69 07 59 07 49 07 39 07     ......y.i.Y.I.9.
      c9:	29 07 19 07 09 07 f9 06 e9 06 d9 06 c9 06 b9 06     )...............
      d9:	a9 06 99 06 89 06 79 06 69 06 59 06 49 06 39 06     ......y.i.Y.I.9.
      e9:	29 06 19 06 09 06 f9 05 e9 05 d9 05 c9 05 b9 05     )...............
      f9:	a9 05 99 05 89 05 79 05 69 05 59 05 49 05 39 05     ......y.i.Y.I.9.
     109:	29 05 19 05 09 05 f9 04 e9 04 c9 04 b9 04 a9 04     )...............
     119:	99 04 89 04 79 04 69 04 59 04 49 04 39 04 19 04     ....y.i.Y.I.9...
     129:	09 04 f9 03 e9 03 d9 03 c9 03 b9 03 99 03 79 03     ..............y.
     139:	69 03 59 03 49 03 39 03 29 03 19 03 09 03 f9 02     i.Y.I.9.).......
     149:	e9 02 d9 02 c9 02 b9 02 a9 02 99 02 89 02 79 02     ..............y.
     159:	69 02 59 02 49 02 39 02 29 02 19 02 09 02 f9 01     i.Y.I.9.).......
     169:	e9 01 d9 01 c9 01 b9 01 a9 01 99 01 89 01 79 01     ..............y.

00000179 <chr_f16_7F>:
     179:	00 00 30 48 48 30 00 00 00 00 00 00 00 00 00 00     ..0HH0..........

00000189 <chr_f16_7E>:
     189:	00 00 00 32 4c 00 00 00 00 00 00 00 00 00 00 00     ...2L...........

00000199 <chr_f16_7D>:
     199:	00 40 20 20 20 20 20 20 10 20 20 20 20 20 20 40     .@      .      @

000001a9 <chr_f16_7C>:
     1a9:	00 00 40 40 40 40 40 40 40 40 40 40 40 40 40 00     ..@@@@@@@@@@@@@.

000001b9 <chr_f16_7B>:
     1b9:	00 10 20 20 20 20 20 20 40 20 20 20 20 20 20 10     ..      @      .

000001c9 <chr_f16_7A>:
     1c9:	00 00 00 00 00 00 fc 04 08 30 40 80 fc 00 00 00     .........0@.....

000001d9 <chr_f16_79>:
     1d9:	00 00 00 00 00 00 84 84 84 84 84 4c 34 04 08 70     ...........L4..p

000001e9 <chr_f16_78>:
     1e9:	00 00 00 00 00 00 88 88 50 20 50 88 88 00 00 00     ........P P.....

000001f9 <chr_f16_77>:
     1f9:	00 00 00 00 00 00 82 82 82 92 92 aa 44 00 00 00     ............D...

00000209 <chr_f16_76>:
     209:	00 00 00 00 00 00 82 82 82 82 44 28 10 00 00 00     ..........D(....

00000219 <chr_f16_75>:
     219:	00 00 00 00 00 00 84 84 84 84 84 4c 34 00 00 00     ...........L4...

00000229 <chr_f16_74>:
     229:	00 00 00 00 40 40 e0 40 40 40 40 40 30 00 00 00     ....@@.@@@@@0...

00000239 <chr_f16_73>:
     239:	00 00 00 00 00 00 70 88 80 70 08 88 70 00 00 00     ......p..p..p...

00000249 <chr_f16_72>:
     249:	00 00 00 00 00 00 b0 c8 80 80 80 80 80 00 00 00     ................

00000259 <chr_f16_71>:
     259:	00 00 00 00 00 00 34 4c 84 84 84 4c 34 04 04 06     ......4L...L4...

00000269 <chr_f16_70>:
     269:	00 00 00 00 00 00 b0 c8 84 84 84 c8 b0 80 80 80     ................

00000279 <chr_f16_6F>:
     279:	00 00 00 00 00 00 38 44 82 82 82 44 38 00 00 00     ......8D...D8...

00000289 <chr_f16_6E>:
     289:	00 00 00 00 00 00 b0 c8 84 84 84 84 84 00 00 00     ................

00000299 <chr_f16_6D>:
     299:	00 00 00 00 00 00 ac d2 92 92 92 92 92 00 00 00     ................

000002a9 <chr_f16_6C>:
     2a9:	00 00 00 c0 40 40 40 40 40 40 40 40 40 00 00 00     ....@@@@@@@@@...

000002b9 <chr_f16_6B>:
     2b9:	00 00 00 80 80 80 88 90 a0 c0 a0 90 88 00 00 00     ................

000002c9 <chr_f16_6A>:
     2c9:	00 00 00 00 10 00 30 10 10 10 10 10 10 10 90 60     ......0........`

000002d9 <chr_f16_69>:
     2d9:	00 00 00 00 40 00 40 40 40 40 40 40 40 00 00 00     ....@.@@@@@@@...

000002e9 <chr_f16_68>:
     2e9:	00 00 00 80 80 80 b0 c8 84 84 84 84 84 00 00 00     ................

000002f9 <chr_f16_67>:
     2f9:	00 00 00 00 00 00 30 4c 84 84 84 4c 34 04 08 70     ......0L...L4..p

00000309 <chr_f16_66>:
     309:	00 00 00 30 48 40 40 40 e0 40 40 40 40 00 00 00     ...0H@@@.@@@@...

00000319 <chr_f16_65>:
     319:	00 00 00 00 00 00 38 44 84 f8 80 44 38 00 00 00     ......8D...D8...

00000329 <chr_f16_64>:
     329:	00 00 00 00 04 04 34 4c 84 84 84 4c 34 00 00 00     ......4L...L4...

00000339 <chr_f16_63>:
     339:	00 00 00 00 00 00 38 44 80 80 80 44 38 00 00 00     ......8D...D8...

00000349 <chr_f16_62>:
     349:	00 00 00 00 80 80 b0 c8 84 84 84 c8 b0 00 00 00     ................

00000359 <chr_f16_61>:
     359:	00 00 00 00 00 00 70 08 04 74 8c 8c 74 00 00 00     ......p..t..t...

00000369 <chr_f16_60>:
     369:	00 00 00 40 40 40 20 00 00 00 00 00 00 00 00 00     ...@@@ .........

00000379 <chr_f16_5F>:
	...
     385:	00 00 ff 00 00 00 00 00 00 00 00 00 00 00 00 00     ................
     395:	00 00 00 00                                         ....

00000399 <chr_f16_5E>:
     399:	00 10 28 44 00 00 00 00 00 00 00 00 00 00 00 00     ..(D............
	...

000003b9 <chr_f16_5D>:
     3b9:	00 00 e0 20 20 20 20 20 20 20 20 20 20 e0 00 00     ...          ...

000003c9 <chr_f16_5C>:
     3c9:	00 00 04 04 08 08 10 10 20 20 40 40 80 80 00 00     ........  @@....

000003d9 <chr_f16_5B>:
     3d9:	00 00 e0 80 80 80 80 80 80 80 80 80 80 e0 00 00     ................

000003e9 <chr_f16_5A>:
     3e9:	00 00 00 fe 02 04 08 10 10 20 40 80 fe 00 00 00     ......... @.....

000003f9 <chr_f16_59>:
     3f9:	00 00 00 82 82 82 44 28 10 10 10 10 10 00 00 00     ......D(........

00000409 <chr_f16_58>:
     409:	00 00 00 82 82 44 28 10 10 28 44 82 82 00 00 00     .....D(..(D.....

00000419 <chr_f16_57>:
     419:	00 00 00 00 00 00 80 80 80 80 80 80 88 80 88 80     ................
     429:	49 00 55 00 55 00 22 00 22 00 00 00 00 00 00 00     I.U.U.".".......

00000439 <chr_f16_56>:
     439:	00 00 00 82 82 82 82 44 44 28 28 10 10 00 00 00     .......DD((.....

00000449 <chr_f16_55>:
     449:	00 00 00 82 82 82 82 82 82 82 82 44 38 00 00 00     ...........D8...

00000459 <chr_f16_54>:
     459:	00 00 00 fe 10 10 10 10 10 10 10 10 10 00 00 00     ................

00000469 <chr_f16_53>:
     469:	00 00 00 38 44 82 80 60 1c 02 82 44 38 00 00 00     ...8D..`...D8...

00000479 <chr_f16_52>:
     479:	00 00 00 f8 84 82 82 84 f8 90 88 84 82 00 00 00     ................

00000489 <chr_f16_51>:
     489:	00 00 00 38 44 82 82 82 82 82 82 44 38 08 06 00     ...8D......D8...

00000499 <chr_f16_50>:
     499:	00 00 00 f8 84 82 82 82 84 f8 80 80 80 00 00 00     ................

000004a9 <chr_f16_4F>:
     4a9:	00 00 00 38 44 82 82 82 82 82 82 44 38 00 00 00     ...8D......D8...

000004b9 <chr_f16_4E>:
     4b9:	00 00 00 c2 c2 a2 a2 92 92 8a 8a 86 86 00 00 00     ................

000004c9 <chr_f16_4D>:
     4c9:	00 00 00 00 00 00 c1 80 c1 80 a2 80 a2 80 94 80     ................
     4d9:	94 80 88 80 88 80 80 80 80 80 00 00 00 00 00 00     ................

000004e9 <chr_f16_4C>:
     4e9:	00 00 00 80 80 80 80 80 80 80 80 80 fc 00 00 00     ................

000004f9 <chr_f16_4B>:
     4f9:	00 00 00 84 88 90 a0 c0 a0 90 88 84 82 00 00 00     ................

00000509 <chr_f16_4A>:
     509:	00 00 00 02 02 02 02 02 02 02 82 44 38 00 00 00     ...........D8...

00000519 <chr_f16_49>:
     519:	00 00 00 e0 40 40 40 40 40 40 40 40 e0 00 00 00     ....@@@@@@@@....

00000529 <chr_f16_48>:
     529:	00 00 00 84 84 84 84 fc 84 84 84 84 84 00 00 00     ................

00000539 <chr_f16_47>:
     539:	00 00 00 3c 42 80 80 80 9c 82 82 42 3c 00 00 00     ...<B......B<...

00000549 <chr_f16_46>:
     549:	00 00 00 fe 80 80 80 f8 80 80 80 80 80 00 00 00     ................

00000559 <chr_f16_45>:
     559:	00 00 00 fe 80 80 80 fc 80 80 80 80 fe 00 00 00     ................

00000569 <chr_f16_44>:
     569:	00 00 00 f8 84 82 82 82 82 82 82 84 f8 00 00 00     ................

00000579 <chr_f16_43>:
     579:	00 00 00 3c 42 80 80 80 80 80 80 42 3c 00 00 00     ...<B......B<...

00000589 <chr_f16_42>:
     589:	00 00 00 f8 84 82 84 f8 84 82 82 84 f8 00 00 00     ................

00000599 <chr_f16_41>:
     599:	00 00 00 10 10 28 28 44 44 7c 82 82 82 00 00 00     .....((DD|......

000005a9 <chr_f16_40>:
     5a9:	00 00 00 3c 42 99 a5 a5 a5 a5 9e 40 3e 00 00 00     ...<B......@>...

000005b9 <chr_f16_3F>:
     5b9:	00 00 00 38 44 82 02 04 08 10 10 00 10 00 00 00     ...8D...........

000005c9 <chr_f16_3E>:
     5c9:	00 00 00 00 80 40 20 10 08 10 20 40 80 00 00 00     .....@ ... @....

000005d9 <chr_f16_3D>:
     5d9:	00 00 00 00 00 00 00 f8 00 f8 00 00 00 00 00 00     ................

000005e9 <chr_f16_3C>:
     5e9:	00 00 00 00 08 10 20 40 80 40 20 10 08 00 00 00     ...... @.@ .....

000005f9 <chr_f16_3B>:
     5f9:	00 00 00 00 00 00 c0 c0 00 c0 c0 40 80 00 00 00     ...........@....

00000609 <chr_f16_3A>:
     609:	00 00 00 00 00 00 c0 c0 00 c0 c0 00 00 00 00 00     ................

00000619 <chr_f16_39>:
     619:	00 00 00 38 44 82 82 46 3a 02 02 04 78 00 00 00     ...8D..F:...x...

00000629 <chr_f16_38>:
     629:	00 00 00 38 44 82 44 38 44 82 82 44 38 00 00 00     ...8D.D8D..D8...

00000639 <chr_f16_37>:
     639:	00 00 00 7e 02 02 04 04 08 08 10 10 10 00 00 00     ...~............

00000649 <chr_f16_36>:
     649:	00 00 00 3c 40 80 80 b8 c4 82 82 44 38 00 00 00     ...<@......D8...

00000659 <chr_f16_35>:
     659:	00 00 00 fc 80 80 80 f8 04 02 02 84 78 00 00 00     ............x...

00000669 <chr_f16_34>:
     669:	00 00 00 04 0c 14 24 44 84 fe 04 04 04 00 00 00     ......$D........

00000679 <chr_f16_33>:
     679:	00 00 00 78 84 02 04 38 04 02 02 84 78 00 00 00     ...x...8....x...

00000689 <chr_f16_32>:
     689:	00 00 00 38 44 82 02 04 18 20 40 80 fe 00 00 00     ...8D.... @.....

00000699 <chr_f16_31>:
     699:	00 00 00 10 30 50 10 10 10 10 10 10 7c 00 00 00     ....0P......|...

000006a9 <chr_f16_30>:
     6a9:	00 00 00 38 44 44 82 82 82 82 44 44 38 00 00 00     ...8DD....DD8...

000006b9 <chr_f16_2F>:
     6b9:	00 00 04 04 08 08 10 10 20 20 40 40 80 80 00 00     ........  @@....

000006c9 <chr_f16_2E>:
	...
     6d1:	00 00 00 c0 c0 00 00 00                             ........

000006d9 <chr_f16_2D>:
	...
     6e1:	f8 00 00 00 00 00 00 00                             ........

000006e9 <chr_f16_2C>:
	...
     6f1:	00 00 00 c0 c0 40 80 00                             .....@..

000006f9 <chr_f16_2B>:
     6f9:	00 00 00 00 00 00 20 20 f8 20 20 00 00 00 00 00     ......  .  .....

00000709 <chr_f16_2A>:
     709:	00 00 00 00 10 92 54 38 54 92 10 00 00 00 00 00     ......T8T.......

00000719 <chr_f16_29>:
     719:	00 c0 20 10 08 08 04 04 04 04 04 08 08 10 20 c0     .. ........... .

00000729 <chr_f16_28>:
     729:	00 0c 10 20 40 40 80 80 80 80 80 40 40 20 10 0c     ... @@.....@@ ..

00000739 <chr_f16_27>:
     739:	00 00 40 40 40 80 00 00 00 00 00 00 00 00 00 00     ..@@@...........

00000749 <chr_f16_26>:
     749:	00 00 00 20 50 88 88 50 20 52 8c 8c 73 00 00 00     ... P..P R..s...

00000759 <chr_f16_25>:
     759:	00 00 00 61 91 92 64 08 10 26 49 89 86 00 00 00     ...a..d..&I.....

00000769 <chr_f16_24>:
     769:	00 00 00 3c 42 40 40 70 40 70 40 40 fe 00 00 00     ...<B@@p@p@@....

00000779 <chr_f16_23>:
     779:	00 00 00 24 24 24 ff 24 24 ff 24 24 24 00 00 00     ...$$$.$$.$$$...

00000789 <chr_f16_22>:
     789:	00 00 a0 a0 a0 00 00 00 00 00 00 00 00 00 00 00     ................

00000799 <chr_f16_21>:
     799:	00 00 00 40 40 40 40 40 40 40 40 00 40 00 00 00     ...@@@@@@@@.@...

000007a9 <chr_f16_20>:
	...

000007b9 <widtbl_f16>:
     7b9:	06 03 04 09 08 09 09 03 07 07 08 06 03 06 05 07     ................
     7c9:	08 08 08 08 08 08 08 08 08 08 03 03 06 06 06 08     ................
     7d9:	09 08 08 08 08 08 08 08 08 04 08 08 07 0a 08 08     ................
     7e9:	08 08 08 08 08 08 08 0a 08 08 08 04 07 04 07 09     ................
     7f9:	04 07 07 07 07 07 06 07 07 04 05 06 04 08 07 08     ................
     809:	07 08 06 06 05 07 08 08 06 07 07 05 03 05 08 06     ................

00000819 <font>:
     819:	00 00 00 00 00 3e 5b 4f 5b 3e 3e 6b 4f 6b 3e 1c     .....>[O[>>kOk>.
     829:	3e 7c 3e 1c 18 3c 7e 3c 18 1c 57 7d 57 1c 1c 5e     >|>..<~<..W}W..^
     839:	7f 5e 1c 00 18 3c 18 00 ff e7 c3 e7 ff 00 18 24     .^...<.........$
     849:	18 00 ff e7 db e7 ff 30 48 3a 06 0e 26 29 79 29     .......0H:..&)y)
     859:	26 40 7f 05 05 07 40 7f 05 25 3f 5a 3c e7 3c 5a     &@....@..%?Z<.<Z
     869:	7f 3e 1c 1c 08 08 1c 1c 3e 7f 14 22 7f 22 14 5f     .>......>.."."._
     879:	5f 00 5f 5f 06 09 7f 01 7f 00 66 89 95 6a 60 60     _.__......f..j``
     889:	60 60 60 94 a2 ff a2 94 08 04 7e 04 08 10 20 7e     ```.......~... ~
     899:	20 10 08 08 2a 1c 08 08 1c 2a 08 08 1e 10 10 10      ...*....*......
     8a9:	10 0c 1e 0c 1e 0c 30 38 3e 38 30 06 0e 3e 0e 06     ......08>80..>..
     8b9:	00 00 00 00 00 00 00 5f 00 00 00 07 00 07 00 14     ......._........
     8c9:	7f 14 7f 14 24 2a 7f 2a 12 23 13 08 64 62 36 49     ....$*.*.#..db6I
     8d9:	56 20 50 00 08 07 03 00 00 1c 22 41 00 00 41 22     V P......."A..A"
     8e9:	1c 00 2a 1c 7f 1c 2a 08 08 3e 08 08 00 80 70 30     ..*...*..>....p0
     8f9:	00 08 08 08 08 08 00 00 60 60 00 20 10 08 04 02     ........``. ....
     909:	3e 51 49 45 3e 00 42 7f 40 00 72 49 49 49 46 21     >QIE>.B.@.rIIIF!
     919:	41 49 4d 33 18 14 12 7f 10 27 45 45 45 39 3c 4a     AIM3.....'EEE9<J
     929:	49 49 31 41 21 11 09 07 36 49 49 49 36 46 49 49     II1A!...6III6FII
     939:	29 1e 00 00 14 00 00 00 40 34 00 00 00 08 14 22     ).......@4....."
     949:	41 14 14 14 14 14 00 41 22 14 08 02 01 59 09 06     A......A"....Y..
     959:	3e 41 5d 59 4e 7c 12 11 12 7c 7f 49 49 49 36 3e     >A]YN|...|.III6>
     969:	41 41 41 22 7f 41 41 41 3e 7f 49 49 49 41 7f 09     AAA".AAA>.IIIA..
     979:	09 09 01 3e 41 41 51 73 7f 08 08 08 7f 00 41 7f     ...>AAQs......A.
     989:	41 00 20 40 41 3f 01 7f 08 14 22 41 7f 40 40 40     A. @A?...."A.@@@
     999:	40 7f 02 1c 02 7f 7f 04 08 10 7f 3e 41 41 41 3e     @..........>AAA>
     9a9:	7f 09 09 09 06 3e 41 51 21 5e 7f 09 19 29 46 26     .....>AQ!^...)F&
     9b9:	49 49 49 32 03 01 7f 01 03 3f 40 40 40 3f 1f 20     III2.....?@@@?. 
     9c9:	40 20 1f 3f 40 38 40 3f 63 14 08 14 63 03 04 78     @ .?@8@?c...c..x
     9d9:	04 03 61 59 49 4d 43 00 7f 41 41 41 02 04 08 10     ..aYIMC..AAA....
     9e9:	20 00 41 41 41 7f 04 02 01 02 04 40 40 40 40 40      .AAA......@@@@@
     9f9:	00 03 07 08 00 20 54 54 78 40 7f 28 44 44 38 38     ..... TTx@.(DD88
     a09:	44 44 44 28 38 44 44 28 7f 38 54 54 54 18 00 08     DDD(8DD(.8TTT...
     a19:	7e 09 02 18 a4 a4 9c 78 7f 08 04 04 78 00 44 7d     ~......x....x.D}
     a29:	40 00 20 40 40 3d 00 7f 10 28 44 00 00 41 7f 40     @. @@=...(D..A.@
     a39:	00 7c 04 78 04 78 7c 08 04 04 78 38 44 44 44 38     .|.x.x|...x8DDD8
     a49:	fc 18 24 24 18 18 24 24 18 fc 7c 08 04 04 08 48     ..$$..$$..|....H
     a59:	54 54 54 24 04 04 3f 44 24 3c 40 40 20 7c 1c 20     TTT$..?D$<@@ |. 
     a69:	40 20 1c 3c 40 30 40 3c 44 28 10 28 44 4c 90 90     @ .<@0@<D(.(DL..
     a79:	90 7c 44 64 54 4c 44 00 08 36 41 00 00 00 77 00     .|DdTLD..6A...w.
     a89:	00 00 41 36 08 00 02 01 02 04 02 3c 26 23 26 3c     ..A6.......<&#&<
     a99:	1e a1 a1 61 12 3a 40 40 20 7a 38 54 54 55 59 21     ...a.:@@ z8TTUY!
     aa9:	55 55 79 41 21 54 54 78 41 21 55 54 78 40 20 54     UUyA!TTxA!UTx@ T
     ab9:	55 79 40 0c 1e 52 72 12 39 55 55 55 59 39 54 54     Uy@..Rr.9UUUY9TT
     ac9:	54 59 39 55 54 54 58 00 00 45 7c 41 00 02 45 7d     TY9UTTX..E|A..E}
     ad9:	42 00 01 45 7c 40 f0 29 24 29 f0 f0 28 25 28 f0     B..E|@.)$)..(%(.
     ae9:	7c 54 55 45 00 20 54 54 7c 54 7c 0a 09 7f 49 32     |TUE. TT|T|...I2
     af9:	49 49 49 32 32 48 48 48 32 32 4a 48 48 30 3a 41     III22HHH22JHH0:A
     b09:	41 21 7a 3a 42 40 20 78 00 9d a0 a0 7d 39 44 44     A!z:B@ x....}9DD
     b19:	44 39 3d 40 40 40 3d 3c 24 ff 24 24 48 7e 49 43     D9=@@@=<$.$$H~IC
     b29:	66 2b 2f fc 2f 2b ff 09 29 f6 20 c0 88 7e 09 03     f+/./+..). ..~..
     b39:	20 54 54 79 41 00 00 44 7d 41 30 48 48 4a 32 38      TTyA..D}A0HHJ28
     b49:	40 40 22 7a 00 7a 0a 0a 72 7d 0d 19 31 7d 26 29     @@"z.z..r}..1}&)
     b59:	29 2f 28 26 29 29 29 26 30 48 4d 40 20 38 08 08     )/(&)))&0HM@ 8..
     b69:	08 08 08 08 08 08 38 2f 10 c8 ac ba 2f 10 28 34     ......8/..../.(4
     b79:	fa 00 00 7b 00 00 08 14 2a 14 22 22 14 2a 14 08     ...{....*."".*..
     b89:	aa 00 55 00 aa aa 55 aa 55 aa 00 00 00 ff 00 10     ..U...U.U.......
     b99:	10 10 ff 00 14 14 14 ff 00 10 10 ff 00 ff 10 10     ................
     ba9:	f0 10 f0 14 14 14 fc 00 14 14 f7 00 ff 00 00 ff     ................
     bb9:	00 ff 14 14 f4 04 fc 14 14 17 10 1f 10 10 1f 10     ................
     bc9:	1f 14 14 14 1f 00 10 10 10 f0 00 00 00 00 1f 10     ................
     bd9:	10 10 10 1f 10 10 10 10 f0 10 00 00 00 ff 10 10     ................
     be9:	10 10 10 10 10 10 10 ff 10 00 00 00 ff 14 00 00     ................
     bf9:	ff 00 ff 00 00 1f 10 17 00 00 fc 04 f4 14 14 17     ................
     c09:	10 17 14 14 f4 04 f4 00 00 ff 00 f7 14 14 14 14     ................
     c19:	14 14 14 f7 00 f7 14 14 14 17 14 10 10 1f 10 1f     ................
     c29:	14 14 14 f4 14 10 10 f0 10 f0 00 00 1f 10 1f 00     ................
     c39:	00 00 1f 14 00 00 00 fc 14 00 00 f0 10 f0 10 10     ................
     c49:	ff 10 ff 14 14 14 ff 14 10 10 10 1f 00 00 00 00     ................
     c59:	f0 10 ff ff ff ff ff f0 f0 f0 f0 f0 ff ff ff 00     ................
     c69:	00 00 00 00 ff ff 0f 0f 0f 0f 0f 38 44 44 38 44     ...........8DD8D
     c79:	7c 2a 2a 3e 14 7e 02 02 06 06 02 7e 02 7e 02 63     |**>.~.....~.~.c
     c89:	55 49 41 63 38 44 44 3c 04 40 7e 20 1e 20 06 02     UIAc8DD<.@~ . ..
     c99:	7e 02 02 99 a5 e7 a5 99 1c 2a 49 2a 1c 4c 72 01     ~........*I*.Lr.
     ca9:	72 4c 30 4a 4d 4d 30 30 48 78 48 30 bc 62 5a 46     rL0JMM00HxH0.bZF
     cb9:	3d 3e 49 49 49 00 7e 01 01 01 7e 2a 2a 2a 2a 2a     =>III.~...~*****
     cc9:	44 44 5f 44 44 40 51 4a 44 40 40 44 4a 51 40 00     DD_DD@QJD@@DJQ@.
     cd9:	00 ff 01 03 e0 80 ff 00 00 08 08 6b 6b 08 36 12     ...........kk.6.
     ce9:	36 24 36 06 0f 09 0f 06 00 00 18 18 00 00 00 10     6$6.............
     cf9:	10 00 30 40 ff 01 01 00 1f 01 01 1e 00 19 1d 17     ..0@............
     d09:	12 00 3c 3c 3c 3c 00 00 00 00 00                    ..<<<<.....

00000d14 <__ctors_end>:
     d14:	11 24       	eor	r1, r1
     d16:	1f be       	out	0x3f, r1	; 63
     d18:	cf ef       	ldi	r28, 0xFF	; 255
     d1a:	d0 e1       	ldi	r29, 0x10	; 16
     d1c:	de bf       	out	0x3e, r29	; 62
     d1e:	cd bf       	out	0x3d, r28	; 61

00000d20 <__do_copy_data>:
     d20:	13 e0       	ldi	r17, 0x03	; 3
     d22:	a0 e0       	ldi	r26, 0x00	; 0
     d24:	b1 e0       	ldi	r27, 0x01	; 1
     d26:	ea e5       	ldi	r30, 0x5A	; 90
     d28:	f6 e4       	ldi	r31, 0x46	; 70
     d2a:	00 e0       	ldi	r16, 0x00	; 0
     d2c:	0b bf       	out	0x3b, r16	; 59
     d2e:	02 c0       	rjmp	.+4      	; 0xd34 <__do_copy_data+0x14>
     d30:	07 90       	elpm	r0, Z+
     d32:	0d 92       	st	X+, r0
     d34:	a8 3e       	cpi	r26, 0xE8	; 232
     d36:	b1 07       	cpc	r27, r17
     d38:	d9 f7       	brne	.-10     	; 0xd30 <__do_copy_data+0x10>

00000d3a <__do_clear_bss>:
     d3a:	2d e0       	ldi	r18, 0x0D	; 13
     d3c:	a8 ee       	ldi	r26, 0xE8	; 232
     d3e:	b3 e0       	ldi	r27, 0x03	; 3
     d40:	01 c0       	rjmp	.+2      	; 0xd44 <.do_clear_bss_start>

00000d42 <.do_clear_bss_loop>:
     d42:	1d 92       	st	X+, r1

00000d44 <.do_clear_bss_start>:
     d44:	a0 3a       	cpi	r26, 0xA0	; 160
     d46:	b2 07       	cpc	r27, r18
     d48:	e1 f7       	brne	.-8      	; 0xd42 <.do_clear_bss_loop>
     d4a:	0e 94 f2 1f 	call	0x3fe4	; 0x3fe4 <main>
     d4e:	0c 94 2b 23 	jmp	0x4656	; 0x4656 <_exit>

00000d52 <__bad_interrupt>:
     d52:	0c 94 00 00 	jmp	0	; 0x0 <__vectors>

00000d56 <tft_cmd>:
     d56:	77 99       	sbic	0x0e, 7	; 14
     d58:	fe cf       	rjmp	.-4      	; 0xd56 <tft_cmd>
     d5a:	92 e0       	ldi	r25, 0x02	; 2
     d5c:	9f b9       	out	0x0f, r25	; 15
     d5e:	8d b9       	out	0x0d, r24	; 13
     d60:	08 95       	ret

00000d62 <tft_data>:
     d62:	77 99       	sbic	0x0e, 7	; 14
     d64:	fe cf       	rjmp	.-4      	; 0xd62 <tft_data>
     d66:	93 e0       	ldi	r25, 0x03	; 3
     d68:	9f b9       	out	0x0f, r25	; 15
     d6a:	8d b9       	out	0x0d, r24	; 13
     d6c:	08 95       	ret

00000d6e <tft_data16>:
     d6e:	cf 93       	push	r28
     d70:	c8 2f       	mov	r28, r24
     d72:	89 2f       	mov	r24, r25
     d74:	0e 94 b1 06 	call	0xd62	; 0xd62 <tft_data>
     d78:	8c 2f       	mov	r24, r28
     d7a:	cf 91       	pop	r28
     d7c:	0c 94 b1 06 	jmp	0xd62	; 0xd62 <tft_data>

00000d80 <tft_init_full_sequence>:
     d80:	1f b8       	out	0x0f, r1	; 15
     d82:	2f ef       	ldi	r18, 0xFF	; 255
     d84:	85 ea       	ldi	r24, 0xA5	; 165
     d86:	9e e0       	ldi	r25, 0x0E	; 14
     d88:	21 50       	subi	r18, 0x01	; 1
     d8a:	80 40       	sbci	r24, 0x00	; 0
     d8c:	90 40       	sbci	r25, 0x00	; 0
     d8e:	e1 f7       	brne	.-8      	; 0xd88 <tft_init_full_sequence+0x8>
     d90:	00 c0       	rjmp	.+0      	; 0xd92 <tft_init_full_sequence+0x12>
     d92:	00 00       	nop
     d94:	82 e0       	ldi	r24, 0x02	; 2
     d96:	8f b9       	out	0x0f, r24	; 15
     d98:	2f ef       	ldi	r18, 0xFF	; 255
     d9a:	85 ea       	ldi	r24, 0xA5	; 165
     d9c:	9e e0       	ldi	r25, 0x0E	; 14
     d9e:	21 50       	subi	r18, 0x01	; 1
     da0:	80 40       	sbci	r24, 0x00	; 0
     da2:	90 40       	sbci	r25, 0x00	; 0
     da4:	e1 f7       	brne	.-8      	; 0xd9e <tft_init_full_sequence+0x1e>
     da6:	00 c0       	rjmp	.+0      	; 0xda8 <tft_init_full_sequence+0x28>
     da8:	00 00       	nop
     daa:	81 e0       	ldi	r24, 0x01	; 1
     dac:	0e 94 ab 06 	call	0xd56	; 0xd56 <tft_cmd>
     db0:	2f ef       	ldi	r18, 0xFF	; 255
     db2:	85 ea       	ldi	r24, 0xA5	; 165
     db4:	9e e0       	ldi	r25, 0x0E	; 14
     db6:	21 50       	subi	r18, 0x01	; 1
     db8:	80 40       	sbci	r24, 0x00	; 0
     dba:	90 40       	sbci	r25, 0x00	; 0
     dbc:	e1 f7       	brne	.-8      	; 0xdb6 <tft_init_full_sequence+0x36>
     dbe:	00 c0       	rjmp	.+0      	; 0xdc0 <tft_init_full_sequence+0x40>
     dc0:	00 00       	nop
     dc2:	81 e1       	ldi	r24, 0x11	; 17
     dc4:	0e 94 ab 06 	call	0xd56	; 0xd56 <tft_cmd>
     dc8:	2f ef       	ldi	r18, 0xFF	; 255
     dca:	85 ea       	ldi	r24, 0xA5	; 165
     dcc:	9e e0       	ldi	r25, 0x0E	; 14
     dce:	21 50       	subi	r18, 0x01	; 1
     dd0:	80 40       	sbci	r24, 0x00	; 0
     dd2:	90 40       	sbci	r25, 0x00	; 0
     dd4:	e1 f7       	brne	.-8      	; 0xdce <tft_init_full_sequence+0x4e>
     dd6:	00 c0       	rjmp	.+0      	; 0xdd8 <tft_init_full_sequence+0x58>
     dd8:	00 00       	nop
     dda:	80 ef       	ldi	r24, 0xF0	; 240
     ddc:	0e 94 ab 06 	call	0xd56	; 0xd56 <tft_cmd>
     de0:	83 ec       	ldi	r24, 0xC3	; 195
     de2:	0e 94 b1 06 	call	0xd62	; 0xd62 <tft_data>
     de6:	80 ef       	ldi	r24, 0xF0	; 240
     de8:	0e 94 ab 06 	call	0xd56	; 0xd56 <tft_cmd>
     dec:	86 e9       	ldi	r24, 0x96	; 150
     dee:	0e 94 b1 06 	call	0xd62	; 0xd62 <tft_data>
     df2:	86 e3       	ldi	r24, 0x36	; 54
     df4:	0e 94 ab 06 	call	0xd56	; 0xd56 <tft_cmd>
     df8:	88 e4       	ldi	r24, 0x48	; 72
     dfa:	0e 94 b1 06 	call	0xd62	; 0xd62 <tft_data>
     dfe:	8a e3       	ldi	r24, 0x3A	; 58
     e00:	0e 94 ab 06 	call	0xd56	; 0xd56 <tft_cmd>
     e04:	85 e5       	ldi	r24, 0x55	; 85
     e06:	0e 94 b1 06 	call	0xd62	; 0xd62 <tft_data>
     e0a:	84 eb       	ldi	r24, 0xB4	; 180
     e0c:	0e 94 ab 06 	call	0xd56	; 0xd56 <tft_cmd>
     e10:	81 e0       	ldi	r24, 0x01	; 1
     e12:	0e 94 b1 06 	call	0xd62	; 0xd62 <tft_data>
     e16:	86 eb       	ldi	r24, 0xB6	; 182
     e18:	0e 94 ab 06 	call	0xd56	; 0xd56 <tft_cmd>
     e1c:	80 e8       	ldi	r24, 0x80	; 128
     e1e:	0e 94 b1 06 	call	0xd62	; 0xd62 <tft_data>
     e22:	82 e0       	ldi	r24, 0x02	; 2
     e24:	0e 94 b1 06 	call	0xd62	; 0xd62 <tft_data>
     e28:	8b e3       	ldi	r24, 0x3B	; 59
     e2a:	0e 94 b1 06 	call	0xd62	; 0xd62 <tft_data>
     e2e:	88 ee       	ldi	r24, 0xE8	; 232
     e30:	0e 94 ab 06 	call	0xd56	; 0xd56 <tft_cmd>
     e34:	80 e4       	ldi	r24, 0x40	; 64
     e36:	0e 94 b1 06 	call	0xd62	; 0xd62 <tft_data>
     e3a:	8a e8       	ldi	r24, 0x8A	; 138
     e3c:	0e 94 b1 06 	call	0xd62	; 0xd62 <tft_data>
     e40:	80 e0       	ldi	r24, 0x00	; 0
     e42:	0e 94 b1 06 	call	0xd62	; 0xd62 <tft_data>
     e46:	80 e0       	ldi	r24, 0x00	; 0
     e48:	0e 94 b1 06 	call	0xd62	; 0xd62 <tft_data>
     e4c:	89 e2       	ldi	r24, 0x29	; 41
     e4e:	0e 94 b1 06 	call	0xd62	; 0xd62 <tft_data>
     e52:	89 e1       	ldi	r24, 0x19	; 25
     e54:	0e 94 b1 06 	call	0xd62	; 0xd62 <tft_data>
     e58:	85 ea       	ldi	r24, 0xA5	; 165
     e5a:	0e 94 b1 06 	call	0xd62	; 0xd62 <tft_data>
     e5e:	83 e3       	ldi	r24, 0x33	; 51
     e60:	0e 94 b1 06 	call	0xd62	; 0xd62 <tft_data>
     e64:	81 ec       	ldi	r24, 0xC1	; 193
     e66:	0e 94 ab 06 	call	0xd56	; 0xd56 <tft_cmd>
     e6a:	86 e0       	ldi	r24, 0x06	; 6
     e6c:	0e 94 b1 06 	call	0xd62	; 0xd62 <tft_data>
     e70:	82 ec       	ldi	r24, 0xC2	; 194
     e72:	0e 94 ab 06 	call	0xd56	; 0xd56 <tft_cmd>
     e76:	87 ea       	ldi	r24, 0xA7	; 167
     e78:	0e 94 b1 06 	call	0xd62	; 0xd62 <tft_data>
     e7c:	85 ec       	ldi	r24, 0xC5	; 197
     e7e:	0e 94 ab 06 	call	0xd56	; 0xd56 <tft_cmd>
     e82:	88 e1       	ldi	r24, 0x18	; 24
     e84:	0e 94 b1 06 	call	0xd62	; 0xd62 <tft_data>
     e88:	2f ef       	ldi	r18, 0xFF	; 255
     e8a:	85 ea       	ldi	r24, 0xA5	; 165
     e8c:	9e e0       	ldi	r25, 0x0E	; 14
     e8e:	21 50       	subi	r18, 0x01	; 1
     e90:	80 40       	sbci	r24, 0x00	; 0
     e92:	90 40       	sbci	r25, 0x00	; 0
     e94:	e1 f7       	brne	.-8      	; 0xe8e <tft_init_full_sequence+0x10e>
     e96:	00 c0       	rjmp	.+0      	; 0xe98 <tft_init_full_sequence+0x118>
     e98:	00 00       	nop
     e9a:	80 ee       	ldi	r24, 0xE0	; 224
     e9c:	0e 94 ab 06 	call	0xd56	; 0xd56 <tft_cmd>
     ea0:	80 ef       	ldi	r24, 0xF0	; 240
     ea2:	0e 94 b1 06 	call	0xd62	; 0xd62 <tft_data>
     ea6:	89 e0       	ldi	r24, 0x09	; 9
     ea8:	0e 94 b1 06 	call	0xd62	; 0xd62 <tft_data>
     eac:	8b e0       	ldi	r24, 0x0B	; 11
     eae:	0e 94 b1 06 	call	0xd62	; 0xd62 <tft_data>
     eb2:	86 e0       	ldi	r24, 0x06	; 6
     eb4:	0e 94 b1 06 	call	0xd62	; 0xd62 <tft_data>
     eb8:	84 e0       	ldi	r24, 0x04	; 4
     eba:	0e 94 b1 06 	call	0xd62	; 0xd62 <tft_data>
     ebe:	85 e1       	ldi	r24, 0x15	; 21
     ec0:	0e 94 b1 06 	call	0xd62	; 0xd62 <tft_data>
     ec4:	8f e2       	ldi	r24, 0x2F	; 47
     ec6:	0e 94 b1 06 	call	0xd62	; 0xd62 <tft_data>
     eca:	84 e5       	ldi	r24, 0x54	; 84
     ecc:	0e 94 b1 06 	call	0xd62	; 0xd62 <tft_data>
     ed0:	82 e4       	ldi	r24, 0x42	; 66
     ed2:	0e 94 b1 06 	call	0xd62	; 0xd62 <tft_data>
     ed6:	8c e3       	ldi	r24, 0x3C	; 60
     ed8:	0e 94 b1 06 	call	0xd62	; 0xd62 <tft_data>
     edc:	87 e1       	ldi	r24, 0x17	; 23
     ede:	0e 94 b1 06 	call	0xd62	; 0xd62 <tft_data>
     ee2:	84 e1       	ldi	r24, 0x14	; 20
     ee4:	0e 94 b1 06 	call	0xd62	; 0xd62 <tft_data>
     ee8:	88 e1       	ldi	r24, 0x18	; 24
     eea:	0e 94 b1 06 	call	0xd62	; 0xd62 <tft_data>
     eee:	8b e1       	ldi	r24, 0x1B	; 27
     ef0:	0e 94 b1 06 	call	0xd62	; 0xd62 <tft_data>
     ef4:	81 ee       	ldi	r24, 0xE1	; 225
     ef6:	0e 94 ab 06 	call	0xd56	; 0xd56 <tft_cmd>
     efa:	80 ee       	ldi	r24, 0xE0	; 224
     efc:	0e 94 b1 06 	call	0xd62	; 0xd62 <tft_data>
     f00:	89 e0       	ldi	r24, 0x09	; 9
     f02:	0e 94 b1 06 	call	0xd62	; 0xd62 <tft_data>
     f06:	8b e0       	ldi	r24, 0x0B	; 11
     f08:	0e 94 b1 06 	call	0xd62	; 0xd62 <tft_data>
     f0c:	86 e0       	ldi	r24, 0x06	; 6
     f0e:	0e 94 b1 06 	call	0xd62	; 0xd62 <tft_data>
     f12:	84 e0       	ldi	r24, 0x04	; 4
     f14:	0e 94 b1 06 	call	0xd62	; 0xd62 <tft_data>
     f18:	83 e0       	ldi	r24, 0x03	; 3
     f1a:	0e 94 b1 06 	call	0xd62	; 0xd62 <tft_data>
     f1e:	8b e2       	ldi	r24, 0x2B	; 43
     f20:	0e 94 b1 06 	call	0xd62	; 0xd62 <tft_data>
     f24:	83 e4       	ldi	r24, 0x43	; 67
     f26:	0e 94 b1 06 	call	0xd62	; 0xd62 <tft_data>
     f2a:	82 e4       	ldi	r24, 0x42	; 66
     f2c:	0e 94 b1 06 	call	0xd62	; 0xd62 <tft_data>
     f30:	8b e3       	ldi	r24, 0x3B	; 59
     f32:	0e 94 b1 06 	call	0xd62	; 0xd62 <tft_data>
     f36:	86 e1       	ldi	r24, 0x16	; 22
     f38:	0e 94 b1 06 	call	0xd62	; 0xd62 <tft_data>
     f3c:	84 e1       	ldi	r24, 0x14	; 20
     f3e:	0e 94 b1 06 	call	0xd62	; 0xd62 <tft_data>
     f42:	87 e1       	ldi	r24, 0x17	; 23
     f44:	0e 94 b1 06 	call	0xd62	; 0xd62 <tft_data>
     f48:	8b e1       	ldi	r24, 0x1B	; 27
     f4a:	0e 94 b1 06 	call	0xd62	; 0xd62 <tft_data>
     f4e:	2f ef       	ldi	r18, 0xFF	; 255
     f50:	85 ea       	ldi	r24, 0xA5	; 165
     f52:	9e e0       	ldi	r25, 0x0E	; 14
     f54:	21 50       	subi	r18, 0x01	; 1
     f56:	80 40       	sbci	r24, 0x00	; 0
     f58:	90 40       	sbci	r25, 0x00	; 0
     f5a:	e1 f7       	brne	.-8      	; 0xf54 <tft_init_full_sequence+0x1d4>
     f5c:	00 c0       	rjmp	.+0      	; 0xf5e <tft_init_full_sequence+0x1de>
     f5e:	00 00       	nop
     f60:	80 ef       	ldi	r24, 0xF0	; 240
     f62:	0e 94 ab 06 	call	0xd56	; 0xd56 <tft_cmd>
     f66:	8c e3       	ldi	r24, 0x3C	; 60
     f68:	0e 94 b1 06 	call	0xd62	; 0xd62 <tft_data>
     f6c:	80 ef       	ldi	r24, 0xF0	; 240
     f6e:	0e 94 ab 06 	call	0xd56	; 0xd56 <tft_cmd>
     f72:	89 e6       	ldi	r24, 0x69	; 105
     f74:	0e 94 b1 06 	call	0xd62	; 0xd62 <tft_data>
     f78:	2f ef       	ldi	r18, 0xFF	; 255
     f7a:	85 ea       	ldi	r24, 0xA5	; 165
     f7c:	9e e0       	ldi	r25, 0x0E	; 14
     f7e:	21 50       	subi	r18, 0x01	; 1
     f80:	80 40       	sbci	r24, 0x00	; 0
     f82:	90 40       	sbci	r25, 0x00	; 0
     f84:	e1 f7       	brne	.-8      	; 0xf7e <tft_init_full_sequence+0x1fe>
     f86:	00 c0       	rjmp	.+0      	; 0xf88 <tft_init_full_sequence+0x208>
     f88:	00 00       	nop
     f8a:	89 e2       	ldi	r24, 0x29	; 41
     f8c:	0e 94 ab 06 	call	0xd56	; 0xd56 <tft_cmd>
     f90:	2f ef       	ldi	r18, 0xFF	; 255
     f92:	85 ea       	ldi	r24, 0xA5	; 165
     f94:	9e e0       	ldi	r25, 0x0E	; 14
     f96:	21 50       	subi	r18, 0x01	; 1
     f98:	80 40       	sbci	r24, 0x00	; 0
     f9a:	90 40       	sbci	r25, 0x00	; 0
     f9c:	e1 f7       	brne	.-8      	; 0xf96 <tft_init_full_sequence+0x216>
     f9e:	00 c0       	rjmp	.+0      	; 0xfa0 <tft_init_full_sequence+0x220>
     fa0:	00 00       	nop
     fa2:	08 95       	ret

00000fa4 <tft_setAddressWindow>:
     fa4:	cf 92       	push	r12
     fa6:	df 92       	push	r13
     fa8:	ef 92       	push	r14
     faa:	ff 92       	push	r15
     fac:	0f 93       	push	r16
     fae:	1f 93       	push	r17
     fb0:	cf 93       	push	r28
     fb2:	df 93       	push	r29
     fb4:	d8 2e       	mov	r13, r24
     fb6:	c9 2e       	mov	r12, r25
     fb8:	16 2f       	mov	r17, r22
     fba:	07 2f       	mov	r16, r23
     fbc:	f4 2e       	mov	r15, r20
     fbe:	e5 2e       	mov	r14, r21
     fc0:	e9 01       	movw	r28, r18
     fc2:	8a e2       	ldi	r24, 0x2A	; 42
     fc4:	0e 94 ab 06 	call	0xd56	; 0xd56 <tft_cmd>
     fc8:	8c 2d       	mov	r24, r12
     fca:	0e 94 b1 06 	call	0xd62	; 0xd62 <tft_data>
     fce:	8d 2d       	mov	r24, r13
     fd0:	0e 94 b1 06 	call	0xd62	; 0xd62 <tft_data>
     fd4:	8e 2d       	mov	r24, r14
     fd6:	0e 94 b1 06 	call	0xd62	; 0xd62 <tft_data>
     fda:	8f 2d       	mov	r24, r15
     fdc:	0e 94 b1 06 	call	0xd62	; 0xd62 <tft_data>
     fe0:	8b e2       	ldi	r24, 0x2B	; 43
     fe2:	0e 94 ab 06 	call	0xd56	; 0xd56 <tft_cmd>
     fe6:	80 2f       	mov	r24, r16
     fe8:	0e 94 b1 06 	call	0xd62	; 0xd62 <tft_data>
     fec:	81 2f       	mov	r24, r17
     fee:	0e 94 b1 06 	call	0xd62	; 0xd62 <tft_data>
     ff2:	8d 2f       	mov	r24, r29
     ff4:	0e 94 b1 06 	call	0xd62	; 0xd62 <tft_data>
     ff8:	8c 2f       	mov	r24, r28
     ffa:	0e 94 b1 06 	call	0xd62	; 0xd62 <tft_data>
     ffe:	8c e2       	ldi	r24, 0x2C	; 44
    1000:	df 91       	pop	r29
    1002:	cf 91       	pop	r28
    1004:	1f 91       	pop	r17
    1006:	0f 91       	pop	r16
    1008:	ff 90       	pop	r15
    100a:	ef 90       	pop	r14
    100c:	df 90       	pop	r13
    100e:	cf 90       	pop	r12
    1010:	0c 94 ab 06 	jmp	0xd56	; 0xd56 <tft_cmd>

00001014 <tft_fillRect>:
    1014:	8f 92       	push	r8
    1016:	9f 92       	push	r9
    1018:	af 92       	push	r10
    101a:	bf 92       	push	r11
    101c:	cf 92       	push	r12
    101e:	df 92       	push	r13
    1020:	ef 92       	push	r14
    1022:	ff 92       	push	r15
    1024:	0f 93       	push	r16
    1026:	1f 93       	push	r17
    1028:	6a 01       	movw	r12, r20
    102a:	79 01       	movw	r14, r18
    102c:	21 50       	subi	r18, 0x01	; 1
    102e:	31 09       	sbc	r19, r1
    1030:	26 0f       	add	r18, r22
    1032:	37 1f       	adc	r19, r23
    1034:	41 50       	subi	r20, 0x01	; 1
    1036:	51 09       	sbc	r21, r1
    1038:	48 0f       	add	r20, r24
    103a:	59 1f       	adc	r21, r25
    103c:	0e 94 d2 07 	call	0xfa4	; 0xfa4 <tft_setAddressWindow>
    1040:	96 01       	movw	r18, r12
    1042:	d7 01       	movw	r26, r14
    1044:	0e 94 c4 20 	call	0x4188	; 0x4188 <__umulhisi3>
    1048:	4b 01       	movw	r8, r22
    104a:	5c 01       	movw	r10, r24
    104c:	c1 2c       	mov	r12, r1
    104e:	d1 2c       	mov	r13, r1
    1050:	76 01       	movw	r14, r12
    1052:	8c 14       	cp	r8, r12
    1054:	9d 04       	cpc	r9, r13
    1056:	ae 04       	cpc	r10, r14
    1058:	bf 04       	cpc	r11, r15
    105a:	69 f4       	brne	.+26     	; 0x1076 <tft_fillRect+0x62>
    105c:	80 e0       	ldi	r24, 0x00	; 0
    105e:	1f 91       	pop	r17
    1060:	0f 91       	pop	r16
    1062:	ff 90       	pop	r15
    1064:	ef 90       	pop	r14
    1066:	df 90       	pop	r13
    1068:	cf 90       	pop	r12
    106a:	bf 90       	pop	r11
    106c:	af 90       	pop	r10
    106e:	9f 90       	pop	r9
    1070:	8f 90       	pop	r8
    1072:	0c 94 ab 06 	jmp	0xd56	; 0xd56 <tft_cmd>
    1076:	81 2f       	mov	r24, r17
    1078:	0e 94 b1 06 	call	0xd62	; 0xd62 <tft_data>
    107c:	80 2f       	mov	r24, r16
    107e:	0e 94 b1 06 	call	0xd62	; 0xd62 <tft_data>
    1082:	8f ef       	ldi	r24, 0xFF	; 255
    1084:	c8 1a       	sub	r12, r24
    1086:	d8 0a       	sbc	r13, r24
    1088:	e8 0a       	sbc	r14, r24
    108a:	f8 0a       	sbc	r15, r24
    108c:	e2 cf       	rjmp	.-60     	; 0x1052 <tft_fillRect+0x3e>

0000108e <tft_set_cursor>:
    108e:	90 93 2d 04 	sts	0x042D, r25	; 0x80042d <cursor_x+0x1>
    1092:	80 93 2c 04 	sts	0x042C, r24	; 0x80042c <cursor_x>
    1096:	70 93 25 04 	sts	0x0425, r23	; 0x800425 <cursor_y+0x1>
    109a:	60 93 24 04 	sts	0x0424, r22	; 0x800424 <cursor_y>
    109e:	08 95       	ret

000010a0 <tft_drawPixel>:
    10a0:	cf 93       	push	r28
    10a2:	df 93       	push	r29
    10a4:	20 91 03 01 	lds	r18, 0x0103	; 0x800103 <_width>
    10a8:	30 91 04 01 	lds	r19, 0x0104	; 0x800104 <_width+0x1>
    10ac:	82 17       	cp	r24, r18
    10ae:	93 07       	cpc	r25, r19
    10b0:	b8 f4       	brcc	.+46     	; 0x10e0 <tft_drawPixel+0x40>
    10b2:	20 91 01 01 	lds	r18, 0x0101	; 0x800101 <_height>
    10b6:	30 91 02 01 	lds	r19, 0x0102	; 0x800102 <_height+0x1>
    10ba:	62 17       	cp	r22, r18
    10bc:	73 07       	cpc	r23, r19
    10be:	80 f4       	brcc	.+32     	; 0x10e0 <tft_drawPixel+0x40>
    10c0:	ea 01       	movw	r28, r20
    10c2:	9b 01       	movw	r18, r22
    10c4:	ac 01       	movw	r20, r24
    10c6:	0e 94 d2 07 	call	0xfa4	; 0xfa4 <tft_setAddressWindow>
    10ca:	8d 2f       	mov	r24, r29
    10cc:	0e 94 b1 06 	call	0xd62	; 0xd62 <tft_data>
    10d0:	8c 2f       	mov	r24, r28
    10d2:	0e 94 b1 06 	call	0xd62	; 0xd62 <tft_data>
    10d6:	80 e0       	ldi	r24, 0x00	; 0
    10d8:	df 91       	pop	r29
    10da:	cf 91       	pop	r28
    10dc:	0c 94 ab 06 	jmp	0xd56	; 0xd56 <tft_cmd>
    10e0:	df 91       	pop	r29
    10e2:	cf 91       	pop	r28
    10e4:	08 95       	ret

000010e6 <tft_drawFastHLine>:
    10e6:	0f 93       	push	r16
    10e8:	1f 93       	push	r17
    10ea:	cf 93       	push	r28
    10ec:	df 93       	push	r29
    10ee:	ea 01       	movw	r28, r20
    10f0:	12 2f       	mov	r17, r18
    10f2:	03 2f       	mov	r16, r19
    10f4:	41 50       	subi	r20, 0x01	; 1
    10f6:	51 09       	sbc	r21, r1
    10f8:	48 0f       	add	r20, r24
    10fa:	59 1f       	adc	r21, r25
    10fc:	9b 01       	movw	r18, r22
    10fe:	0e 94 d2 07 	call	0xfa4	; 0xfa4 <tft_setAddressWindow>
    1102:	21 97       	sbiw	r28, 0x01	; 1
    1104:	28 f4       	brcc	.+10     	; 0x1110 <__stack+0x11>
    1106:	df 91       	pop	r29
    1108:	cf 91       	pop	r28
    110a:	1f 91       	pop	r17
    110c:	0f 91       	pop	r16
    110e:	08 95       	ret
    1110:	80 2f       	mov	r24, r16
    1112:	0e 94 b1 06 	call	0xd62	; 0xd62 <tft_data>
    1116:	81 2f       	mov	r24, r17
    1118:	0e 94 b1 06 	call	0xd62	; 0xd62 <tft_data>
    111c:	f2 cf       	rjmp	.-28     	; 0x1102 <__stack+0x3>

0000111e <tft_drawFastVLine>:
    111e:	0f 93       	push	r16
    1120:	1f 93       	push	r17
    1122:	cf 93       	push	r28
    1124:	df 93       	push	r29
    1126:	ea 01       	movw	r28, r20
    1128:	12 2f       	mov	r17, r18
    112a:	03 2f       	mov	r16, r19
    112c:	97 fd       	sbrc	r25, 7
    112e:	34 c0       	rjmp	.+104    	; 0x1198 <tft_drawFastVLine+0x7a>
    1130:	20 91 03 01 	lds	r18, 0x0103	; 0x800103 <_width>
    1134:	30 91 04 01 	lds	r19, 0x0104	; 0x800104 <_width+0x1>
    1138:	82 17       	cp	r24, r18
    113a:	93 07       	cpc	r25, r19
    113c:	68 f5       	brcc	.+90     	; 0x1198 <tft_drawFastVLine+0x7a>
    113e:	20 91 01 01 	lds	r18, 0x0101	; 0x800101 <_height>
    1142:	30 91 02 01 	lds	r19, 0x0102	; 0x800102 <_height+0x1>
    1146:	62 17       	cp	r22, r18
    1148:	73 07       	cpc	r23, r19
    114a:	30 f5       	brcc	.+76     	; 0x1198 <tft_drawFastVLine+0x7a>
    114c:	ab 01       	movw	r20, r22
    114e:	4c 0f       	add	r20, r28
    1150:	5d 1f       	adc	r21, r29
    1152:	41 50       	subi	r20, 0x01	; 1
    1154:	51 09       	sbc	r21, r1
    1156:	42 17       	cp	r20, r18
    1158:	53 07       	cpc	r21, r19
    115a:	18 f0       	brcs	.+6      	; 0x1162 <tft_drawFastVLine+0x44>
    115c:	e9 01       	movw	r28, r18
    115e:	c6 1b       	sub	r28, r22
    1160:	d7 0b       	sbc	r29, r23
    1162:	1c 16       	cp	r1, r28
    1164:	1d 06       	cpc	r1, r29
    1166:	c4 f4       	brge	.+48     	; 0x1198 <tft_drawFastVLine+0x7a>
    1168:	9b 01       	movw	r18, r22
    116a:	2c 0f       	add	r18, r28
    116c:	3d 1f       	adc	r19, r29
    116e:	21 50       	subi	r18, 0x01	; 1
    1170:	31 09       	sbc	r19, r1
    1172:	ac 01       	movw	r20, r24
    1174:	0e 94 d2 07 	call	0xfa4	; 0xfa4 <tft_setAddressWindow>
    1178:	21 97       	sbiw	r28, 0x01	; 1
    117a:	38 f4       	brcc	.+14     	; 0x118a <tft_drawFastVLine+0x6c>
    117c:	80 e0       	ldi	r24, 0x00	; 0
    117e:	df 91       	pop	r29
    1180:	cf 91       	pop	r28
    1182:	1f 91       	pop	r17
    1184:	0f 91       	pop	r16
    1186:	0c 94 ab 06 	jmp	0xd56	; 0xd56 <tft_cmd>
    118a:	80 2f       	mov	r24, r16
    118c:	0e 94 b1 06 	call	0xd62	; 0xd62 <tft_data>
    1190:	81 2f       	mov	r24, r17
    1192:	0e 94 b1 06 	call	0xd62	; 0xd62 <tft_data>
    1196:	f0 cf       	rjmp	.-32     	; 0x1178 <tft_drawFastVLine+0x5a>
    1198:	df 91       	pop	r29
    119a:	cf 91       	pop	r28
    119c:	1f 91       	pop	r17
    119e:	0f 91       	pop	r16
    11a0:	08 95       	ret

000011a2 <tft_fillCircle>:
    11a2:	2f 92       	push	r2
    11a4:	3f 92       	push	r3
    11a6:	4f 92       	push	r4
    11a8:	5f 92       	push	r5
    11aa:	6f 92       	push	r6
    11ac:	7f 92       	push	r7
    11ae:	8f 92       	push	r8
    11b0:	9f 92       	push	r9
    11b2:	af 92       	push	r10
    11b4:	bf 92       	push	r11
    11b6:	cf 92       	push	r12
    11b8:	df 92       	push	r13
    11ba:	ef 92       	push	r14
    11bc:	ff 92       	push	r15
    11be:	0f 93       	push	r16
    11c0:	1f 93       	push	r17
    11c2:	cf 93       	push	r28
    11c4:	df 93       	push	r29
    11c6:	00 d0       	rcall	.+0      	; 0x11c8 <tft_fillCircle+0x26>
    11c8:	00 d0       	rcall	.+0      	; 0x11ca <tft_fillCircle+0x28>
    11ca:	cd b7       	in	r28, 0x3d	; 61
    11cc:	de b7       	in	r29, 0x3e	; 62
    11ce:	3c 01       	movw	r6, r24
    11d0:	5b 01       	movw	r10, r22
    11d2:	5c 83       	std	Y+4, r21	; 0x04
    11d4:	4b 83       	std	Y+3, r20	; 0x03
    11d6:	49 01       	movw	r8, r18
    11d8:	44 0f       	add	r20, r20
    11da:	55 1f       	adc	r21, r21
    11dc:	4f 5f       	subi	r20, 0xFF	; 255
    11de:	5f 4f       	sbci	r21, 0xFF	; 255
    11e0:	c3 01       	movw	r24, r6
    11e2:	eb 81       	ldd	r30, Y+3	; 0x03
    11e4:	fc 81       	ldd	r31, Y+4	; 0x04
    11e6:	8e 1b       	sub	r24, r30
    11e8:	9f 0b       	sbc	r25, r31
    11ea:	0e 94 73 08 	call	0x10e6	; 0x10e6 <tft_drawFastHLine>
    11ee:	01 e0       	ldi	r16, 0x01	; 1
    11f0:	10 e0       	ldi	r17, 0x00	; 0
    11f2:	8b 81       	ldd	r24, Y+3	; 0x03
    11f4:	9c 81       	ldd	r25, Y+4	; 0x04
    11f6:	08 1b       	sub	r16, r24
    11f8:	19 0b       	sbc	r17, r25
    11fa:	1c 01       	movw	r2, r24
    11fc:	31 94       	neg	r3
    11fe:	21 94       	neg	r2
    1200:	31 08       	sbc	r3, r1
    1202:	22 0c       	add	r2, r2
    1204:	33 1c       	adc	r3, r3
    1206:	f1 2c       	mov	r15, r1
    1208:	e1 2c       	mov	r14, r1
    120a:	cc 24       	eor	r12, r12
    120c:	c3 94       	inc	r12
    120e:	d1 2c       	mov	r13, r1
    1210:	8b 81       	ldd	r24, Y+3	; 0x03
    1212:	9c 81       	ldd	r25, Y+4	; 0x04
    1214:	e8 16       	cp	r14, r24
    1216:	f9 06       	cpc	r15, r25
    1218:	cc f0       	brlt	.+50     	; 0x124c <tft_fillCircle+0xaa>
    121a:	80 e0       	ldi	r24, 0x00	; 0
    121c:	0f 90       	pop	r0
    121e:	0f 90       	pop	r0
    1220:	0f 90       	pop	r0
    1222:	0f 90       	pop	r0
    1224:	df 91       	pop	r29
    1226:	cf 91       	pop	r28
    1228:	1f 91       	pop	r17
    122a:	0f 91       	pop	r16
    122c:	ff 90       	pop	r15
    122e:	ef 90       	pop	r14
    1230:	df 90       	pop	r13
    1232:	cf 90       	pop	r12
    1234:	bf 90       	pop	r11
    1236:	af 90       	pop	r10
    1238:	9f 90       	pop	r9
    123a:	8f 90       	pop	r8
    123c:	7f 90       	pop	r7
    123e:	6f 90       	pop	r6
    1240:	5f 90       	pop	r5
    1242:	4f 90       	pop	r4
    1244:	3f 90       	pop	r3
    1246:	2f 90       	pop	r2
    1248:	0c 94 ab 06 	jmp	0xd56	; 0xd56 <tft_cmd>
    124c:	17 fd       	sbrc	r17, 7
    124e:	0a c0       	rjmp	.+20     	; 0x1264 <tft_fillCircle+0xc2>
    1250:	eb 81       	ldd	r30, Y+3	; 0x03
    1252:	fc 81       	ldd	r31, Y+4	; 0x04
    1254:	31 97       	sbiw	r30, 0x01	; 1
    1256:	fc 83       	std	Y+4, r31	; 0x04
    1258:	eb 83       	std	Y+3, r30	; 0x03
    125a:	f2 e0       	ldi	r31, 0x02	; 2
    125c:	2f 0e       	add	r2, r31
    125e:	31 1c       	adc	r3, r1
    1260:	02 0d       	add	r16, r2
    1262:	13 1d       	adc	r17, r3
    1264:	8f ef       	ldi	r24, 0xFF	; 255
    1266:	e8 1a       	sub	r14, r24
    1268:	f8 0a       	sbc	r15, r24
    126a:	92 e0       	ldi	r25, 0x02	; 2
    126c:	c9 0e       	add	r12, r25
    126e:	d1 1c       	adc	r13, r1
    1270:	0c 0d       	add	r16, r12
    1272:	1d 1d       	adc	r17, r13
    1274:	23 01       	movw	r4, r6
    1276:	4e 18       	sub	r4, r14
    1278:	5f 08       	sbc	r5, r15
    127a:	94 01       	movw	r18, r8
    127c:	a6 01       	movw	r20, r12
    127e:	6b 81       	ldd	r22, Y+3	; 0x03
    1280:	7c 81       	ldd	r23, Y+4	; 0x04
    1282:	6a 0d       	add	r22, r10
    1284:	7b 1d       	adc	r23, r11
    1286:	c2 01       	movw	r24, r4
    1288:	0e 94 73 08 	call	0x10e6	; 0x10e6 <tft_drawFastHLine>
    128c:	94 01       	movw	r18, r8
    128e:	a6 01       	movw	r20, r12
    1290:	b5 01       	movw	r22, r10
    1292:	eb 81       	ldd	r30, Y+3	; 0x03
    1294:	fc 81       	ldd	r31, Y+4	; 0x04
    1296:	6e 1b       	sub	r22, r30
    1298:	7f 0b       	sbc	r23, r31
    129a:	c2 01       	movw	r24, r4
    129c:	0e 94 73 08 	call	0x10e6	; 0x10e6 <tft_drawFastHLine>
    12a0:	4b 80       	ldd	r4, Y+3	; 0x03
    12a2:	5c 80       	ldd	r5, Y+4	; 0x04
    12a4:	44 0c       	add	r4, r4
    12a6:	55 1c       	adc	r5, r5
    12a8:	ff ef       	ldi	r31, 0xFF	; 255
    12aa:	4f 1a       	sub	r4, r31
    12ac:	5f 0a       	sbc	r5, r31
    12ae:	b5 01       	movw	r22, r10
    12b0:	6e 0d       	add	r22, r14
    12b2:	7f 1d       	adc	r23, r15
    12b4:	94 01       	movw	r18, r8
    12b6:	a2 01       	movw	r20, r4
    12b8:	c3 01       	movw	r24, r6
    12ba:	eb 81       	ldd	r30, Y+3	; 0x03
    12bc:	fc 81       	ldd	r31, Y+4	; 0x04
    12be:	8e 1b       	sub	r24, r30
    12c0:	9f 0b       	sbc	r25, r31
    12c2:	9a 83       	std	Y+2, r25	; 0x02
    12c4:	89 83       	std	Y+1, r24	; 0x01
    12c6:	0e 94 73 08 	call	0x10e6	; 0x10e6 <tft_drawFastHLine>
    12ca:	b5 01       	movw	r22, r10
    12cc:	6e 19       	sub	r22, r14
    12ce:	7f 09       	sbc	r23, r15
    12d0:	94 01       	movw	r18, r8
    12d2:	a2 01       	movw	r20, r4
    12d4:	89 81       	ldd	r24, Y+1	; 0x01
    12d6:	9a 81       	ldd	r25, Y+2	; 0x02
    12d8:	0e 94 73 08 	call	0x10e6	; 0x10e6 <tft_drawFastHLine>
    12dc:	99 cf       	rjmp	.-206    	; 0x1210 <tft_fillCircle+0x6e>

000012de <tft_init>:
    12de:	0c 94 c0 06 	jmp	0xd80	; 0xd80 <tft_init_full_sequence>

000012e2 <tft_setRotation>:
    12e2:	cf 93       	push	r28
    12e4:	83 70       	andi	r24, 0x03	; 3
    12e6:	80 93 e8 03 	sts	0x03E8, r24	; 0x8003e8 <__data_end>
    12ea:	82 30       	cpi	r24, 0x02	; 2
    12ec:	49 f1       	breq	.+82     	; 0x1340 <tft_setRotation+0x5e>
    12ee:	83 30       	cpi	r24, 0x03	; 3
    12f0:	a9 f1       	breq	.+106    	; 0x135c <tft_setRotation+0x7a>
    12f2:	81 30       	cpi	r24, 0x01	; 1
    12f4:	b9 f0       	breq	.+46     	; 0x1324 <tft_setRotation+0x42>
    12f6:	80 e4       	ldi	r24, 0x40	; 64
    12f8:	91 e0       	ldi	r25, 0x01	; 1
    12fa:	90 93 04 01 	sts	0x0104, r25	; 0x800104 <_width+0x1>
    12fe:	80 93 03 01 	sts	0x0103, r24	; 0x800103 <_width>
    1302:	80 ee       	ldi	r24, 0xE0	; 224
    1304:	91 e0       	ldi	r25, 0x01	; 1
    1306:	90 93 02 01 	sts	0x0102, r25	; 0x800102 <_height+0x1>
    130a:	80 93 01 01 	sts	0x0101, r24	; 0x800101 <_height>
    130e:	c8 ec       	ldi	r28, 0xC8	; 200
    1310:	86 e3       	ldi	r24, 0x36	; 54
    1312:	0e 94 ab 06 	call	0xd56	; 0xd56 <tft_cmd>
    1316:	8c 2f       	mov	r24, r28
    1318:	0e 94 b1 06 	call	0xd62	; 0xd62 <tft_data>
    131c:	80 e0       	ldi	r24, 0x00	; 0
    131e:	cf 91       	pop	r28
    1320:	0c 94 ab 06 	jmp	0xd56	; 0xd56 <tft_cmd>
    1324:	80 ee       	ldi	r24, 0xE0	; 224
    1326:	91 e0       	ldi	r25, 0x01	; 1
    1328:	90 93 04 01 	sts	0x0104, r25	; 0x800104 <_width+0x1>
    132c:	80 93 03 01 	sts	0x0103, r24	; 0x800103 <_width>
    1330:	80 e4       	ldi	r24, 0x40	; 64
    1332:	91 e0       	ldi	r25, 0x01	; 1
    1334:	90 93 02 01 	sts	0x0102, r25	; 0x800102 <_height+0x1>
    1338:	80 93 01 01 	sts	0x0101, r24	; 0x800101 <_height>
    133c:	c8 e2       	ldi	r28, 0x28	; 40
    133e:	e8 cf       	rjmp	.-48     	; 0x1310 <tft_setRotation+0x2e>
    1340:	80 e4       	ldi	r24, 0x40	; 64
    1342:	91 e0       	ldi	r25, 0x01	; 1
    1344:	90 93 04 01 	sts	0x0104, r25	; 0x800104 <_width+0x1>
    1348:	80 93 03 01 	sts	0x0103, r24	; 0x800103 <_width>
    134c:	80 ee       	ldi	r24, 0xE0	; 224
    134e:	91 e0       	ldi	r25, 0x01	; 1
    1350:	90 93 02 01 	sts	0x0102, r25	; 0x800102 <_height+0x1>
    1354:	80 93 01 01 	sts	0x0101, r24	; 0x800101 <_height>
    1358:	c8 e0       	ldi	r28, 0x08	; 8
    135a:	da cf       	rjmp	.-76     	; 0x1310 <tft_setRotation+0x2e>
    135c:	80 ee       	ldi	r24, 0xE0	; 224
    135e:	91 e0       	ldi	r25, 0x01	; 1
    1360:	90 93 04 01 	sts	0x0104, r25	; 0x800104 <_width+0x1>
    1364:	80 93 03 01 	sts	0x0103, r24	; 0x800103 <_width>
    1368:	80 e4       	ldi	r24, 0x40	; 64
    136a:	91 e0       	ldi	r25, 0x01	; 1
    136c:	90 93 02 01 	sts	0x0102, r25	; 0x800102 <_height+0x1>
    1370:	80 93 01 01 	sts	0x0101, r24	; 0x800101 <_height>
    1374:	c8 e6       	ldi	r28, 0x68	; 104
    1376:	cc cf       	rjmp	.-104    	; 0x1310 <tft_setRotation+0x2e>

00001378 <tft_fillScreen>:
    1378:	0f 93       	push	r16
    137a:	1f 93       	push	r17
    137c:	20 91 01 01 	lds	r18, 0x0101	; 0x800101 <_height>
    1380:	30 91 02 01 	lds	r19, 0x0102	; 0x800102 <_height+0x1>
    1384:	40 91 03 01 	lds	r20, 0x0103	; 0x800103 <_width>
    1388:	50 91 04 01 	lds	r21, 0x0104	; 0x800104 <_width+0x1>
    138c:	8c 01       	movw	r16, r24
    138e:	70 e0       	ldi	r23, 0x00	; 0
    1390:	60 e0       	ldi	r22, 0x00	; 0
    1392:	90 e0       	ldi	r25, 0x00	; 0
    1394:	80 e0       	ldi	r24, 0x00	; 0
    1396:	0e 94 0a 08 	call	0x1014	; 0x1014 <tft_fillRect>
    139a:	1f 91       	pop	r17
    139c:	0f 91       	pop	r16
    139e:	08 95       	ret

000013a0 <setTextColor>:
    13a0:	90 93 33 04 	sts	0x0433, r25	; 0x800433 <textcolor+0x1>
    13a4:	80 93 32 04 	sts	0x0432, r24	; 0x800432 <textcolor>
    13a8:	70 93 31 04 	sts	0x0431, r23	; 0x800431 <textbgcolor+0x1>
    13ac:	60 93 30 04 	sts	0x0430, r22	; 0x800430 <textbgcolor>
    13b0:	08 95       	ret

000013b2 <setTextSize>:
    13b2:	88 30       	cpi	r24, 0x08	; 8
    13b4:	30 f4       	brcc	.+12     	; 0x13c2 <setTextSize+0x10>
    13b6:	81 11       	cpse	r24, r1
    13b8:	01 c0       	rjmp	.+2      	; 0x13bc <setTextSize+0xa>
    13ba:	81 e0       	ldi	r24, 0x01	; 1
    13bc:	80 93 2e 04 	sts	0x042E, r24	; 0x80042e <textsize>
    13c0:	08 95       	ret
    13c2:	87 e0       	ldi	r24, 0x07	; 7
    13c4:	fb cf       	rjmp	.-10     	; 0x13bc <setTextSize+0xa>

000013c6 <textWidth>:
    13c6:	9b 01       	movw	r18, r22
    13c8:	22 50       	subi	r18, 0x02	; 2
    13ca:	31 09       	sbc	r19, r1
    13cc:	27 30       	cpi	r18, 0x07	; 7
    13ce:	31 05       	cpc	r19, r1
    13d0:	08 f5       	brcc	.+66     	; 0x1414 <textWidth+0x4e>
    13d2:	25 e0       	ldi	r18, 0x05	; 5
    13d4:	26 9f       	mul	r18, r22
    13d6:	f0 01       	movw	r30, r0
    13d8:	27 9f       	mul	r18, r23
    13da:	f0 0d       	add	r31, r0
    13dc:	11 24       	eor	r1, r1
    13de:	e2 57       	subi	r30, 0x72	; 114
    13e0:	ff 4f       	sbci	r31, 0xFF	; 255
    13e2:	45 91       	lpm	r20, Z+
    13e4:	54 91       	lpm	r21, Z
    13e6:	40 52       	subi	r20, 0x20	; 32
    13e8:	51 09       	sbc	r21, r1
    13ea:	dc 01       	movw	r26, r24
    13ec:	30 e0       	ldi	r19, 0x00	; 0
    13ee:	20 e0       	ldi	r18, 0x00	; 0
    13f0:	ed 91       	ld	r30, X+
    13f2:	e1 11       	cpse	r30, r1
    13f4:	08 c0       	rjmp	.+16     	; 0x1406 <textWidth+0x40>
    13f6:	40 91 2e 04 	lds	r20, 0x042E	; 0x80042e <textsize>
    13fa:	42 9f       	mul	r20, r18
    13fc:	c0 01       	movw	r24, r0
    13fe:	43 9f       	mul	r20, r19
    1400:	90 0d       	add	r25, r0
    1402:	11 24       	eor	r1, r1
    1404:	08 95       	ret
    1406:	e4 0f       	add	r30, r20
    1408:	f5 2f       	mov	r31, r21
    140a:	f1 1d       	adc	r31, r1
    140c:	e4 91       	lpm	r30, Z
    140e:	2e 0f       	add	r18, r30
    1410:	31 1d       	adc	r19, r1
    1412:	ee cf       	rjmp	.-36     	; 0x13f0 <textWidth+0x2a>
    1414:	90 e0       	ldi	r25, 0x00	; 0
    1416:	80 e0       	ldi	r24, 0x00	; 0
    1418:	08 95       	ret

0000141a <tft_drawCircleHelper>:
    141a:	2f 92       	push	r2
    141c:	3f 92       	push	r3
    141e:	4f 92       	push	r4
    1420:	5f 92       	push	r5
    1422:	6f 92       	push	r6
    1424:	7f 92       	push	r7
    1426:	8f 92       	push	r8
    1428:	9f 92       	push	r9
    142a:	af 92       	push	r10
    142c:	bf 92       	push	r11
    142e:	cf 92       	push	r12
    1430:	df 92       	push	r13
    1432:	ef 92       	push	r14
    1434:	ff 92       	push	r15
    1436:	0f 93       	push	r16
    1438:	1f 93       	push	r17
    143a:	cf 93       	push	r28
    143c:	df 93       	push	r29
    143e:	00 d0       	rcall	.+0      	; 0x1440 <tft_drawCircleHelper+0x26>
    1440:	00 d0       	rcall	.+0      	; 0x1442 <tft_drawCircleHelper+0x28>
    1442:	cd b7       	in	r28, 0x3d	; 61
    1444:	de b7       	in	r29, 0x3e	; 62
    1446:	6c 01       	movw	r12, r24
    1448:	5b 01       	movw	r10, r22
    144a:	5c 83       	std	Y+4, r21	; 0x04
    144c:	4b 83       	std	Y+3, r20	; 0x03
    144e:	81 e0       	ldi	r24, 0x01	; 1
    1450:	90 e0       	ldi	r25, 0x00	; 0
    1452:	4c 01       	movw	r8, r24
    1454:	84 1a       	sub	r8, r20
    1456:	95 0a       	sbc	r9, r21
    1458:	3a 01       	movw	r6, r20
    145a:	71 94       	neg	r7
    145c:	61 94       	neg	r6
    145e:	71 08       	sbc	r7, r1
    1460:	66 0c       	add	r6, r6
    1462:	77 1c       	adc	r7, r7
    1464:	f1 2c       	mov	r15, r1
    1466:	e1 2c       	mov	r14, r1
    1468:	44 24       	eor	r4, r4
    146a:	43 94       	inc	r4
    146c:	51 2c       	mov	r5, r1
    146e:	32 2f       	mov	r19, r18
    1470:	34 70       	andi	r19, 0x04	; 4
    1472:	39 83       	std	Y+1, r19	; 0x01
    1474:	42 2f       	mov	r20, r18
    1476:	42 70       	andi	r20, 0x02	; 2
    1478:	4a 83       	std	Y+2, r20	; 0x02
    147a:	52 2f       	mov	r21, r18
    147c:	58 70       	andi	r21, 0x08	; 8
    147e:	25 2e       	mov	r2, r21
    1480:	21 70       	andi	r18, 0x01	; 1
    1482:	32 2e       	mov	r3, r18
    1484:	2b 81       	ldd	r18, Y+3	; 0x03
    1486:	3c 81       	ldd	r19, Y+4	; 0x04
    1488:	e2 16       	cp	r14, r18
    148a:	f3 06       	cpc	r15, r19
    148c:	bc f0       	brlt	.+46     	; 0x14bc <tft_drawCircleHelper+0xa2>
    148e:	0f 90       	pop	r0
    1490:	0f 90       	pop	r0
    1492:	0f 90       	pop	r0
    1494:	0f 90       	pop	r0
    1496:	df 91       	pop	r29
    1498:	cf 91       	pop	r28
    149a:	1f 91       	pop	r17
    149c:	0f 91       	pop	r16
    149e:	ff 90       	pop	r15
    14a0:	ef 90       	pop	r14
    14a2:	df 90       	pop	r13
    14a4:	cf 90       	pop	r12
    14a6:	bf 90       	pop	r11
    14a8:	af 90       	pop	r10
    14aa:	9f 90       	pop	r9
    14ac:	8f 90       	pop	r8
    14ae:	7f 90       	pop	r7
    14b0:	6f 90       	pop	r6
    14b2:	5f 90       	pop	r5
    14b4:	4f 90       	pop	r4
    14b6:	3f 90       	pop	r3
    14b8:	2f 90       	pop	r2
    14ba:	08 95       	ret
    14bc:	97 fc       	sbrc	r9, 7
    14be:	0a c0       	rjmp	.+20     	; 0x14d4 <tft_drawCircleHelper+0xba>
    14c0:	8b 81       	ldd	r24, Y+3	; 0x03
    14c2:	9c 81       	ldd	r25, Y+4	; 0x04
    14c4:	01 97       	sbiw	r24, 0x01	; 1
    14c6:	9c 83       	std	Y+4, r25	; 0x04
    14c8:	8b 83       	std	Y+3, r24	; 0x03
    14ca:	92 e0       	ldi	r25, 0x02	; 2
    14cc:	69 0e       	add	r6, r25
    14ce:	71 1c       	adc	r7, r1
    14d0:	86 0c       	add	r8, r6
    14d2:	97 1c       	adc	r9, r7
    14d4:	2f ef       	ldi	r18, 0xFF	; 255
    14d6:	e2 1a       	sub	r14, r18
    14d8:	f2 0a       	sbc	r15, r18
    14da:	32 e0       	ldi	r19, 0x02	; 2
    14dc:	43 0e       	add	r4, r19
    14de:	51 1c       	adc	r5, r1
    14e0:	84 0c       	add	r8, r4
    14e2:	95 1c       	adc	r9, r5
    14e4:	49 81       	ldd	r20, Y+1	; 0x01
    14e6:	44 23       	and	r20, r20
    14e8:	a1 f0       	breq	.+40     	; 0x1512 <tft_drawCircleHelper+0xf8>
    14ea:	a8 01       	movw	r20, r16
    14ec:	6b 81       	ldd	r22, Y+3	; 0x03
    14ee:	7c 81       	ldd	r23, Y+4	; 0x04
    14f0:	6a 0d       	add	r22, r10
    14f2:	7b 1d       	adc	r23, r11
    14f4:	c6 01       	movw	r24, r12
    14f6:	8e 0d       	add	r24, r14
    14f8:	9f 1d       	adc	r25, r15
    14fa:	0e 94 50 08 	call	0x10a0	; 0x10a0 <tft_drawPixel>
    14fe:	a8 01       	movw	r20, r16
    1500:	b5 01       	movw	r22, r10
    1502:	6e 0d       	add	r22, r14
    1504:	7f 1d       	adc	r23, r15
    1506:	8b 81       	ldd	r24, Y+3	; 0x03
    1508:	9c 81       	ldd	r25, Y+4	; 0x04
    150a:	8c 0d       	add	r24, r12
    150c:	9d 1d       	adc	r25, r13
    150e:	0e 94 50 08 	call	0x10a0	; 0x10a0 <tft_drawPixel>
    1512:	5a 81       	ldd	r21, Y+2	; 0x02
    1514:	55 23       	and	r21, r21
    1516:	a9 f0       	breq	.+42     	; 0x1542 <tft_drawCircleHelper+0x128>
    1518:	a8 01       	movw	r20, r16
    151a:	b5 01       	movw	r22, r10
    151c:	8b 81       	ldd	r24, Y+3	; 0x03
    151e:	9c 81       	ldd	r25, Y+4	; 0x04
    1520:	68 1b       	sub	r22, r24
    1522:	79 0b       	sbc	r23, r25
    1524:	c6 01       	movw	r24, r12
    1526:	8e 0d       	add	r24, r14
    1528:	9f 1d       	adc	r25, r15
    152a:	0e 94 50 08 	call	0x10a0	; 0x10a0 <tft_drawPixel>
    152e:	a8 01       	movw	r20, r16
    1530:	b5 01       	movw	r22, r10
    1532:	6e 19       	sub	r22, r14
    1534:	7f 09       	sbc	r23, r15
    1536:	8b 81       	ldd	r24, Y+3	; 0x03
    1538:	9c 81       	ldd	r25, Y+4	; 0x04
    153a:	8c 0d       	add	r24, r12
    153c:	9d 1d       	adc	r25, r13
    153e:	0e 94 50 08 	call	0x10a0	; 0x10a0 <tft_drawPixel>
    1542:	22 20       	and	r2, r2
    1544:	a9 f0       	breq	.+42     	; 0x1570 <tft_drawCircleHelper+0x156>
    1546:	a8 01       	movw	r20, r16
    1548:	b5 01       	movw	r22, r10
    154a:	6e 0d       	add	r22, r14
    154c:	7f 1d       	adc	r23, r15
    154e:	c6 01       	movw	r24, r12
    1550:	2b 81       	ldd	r18, Y+3	; 0x03
    1552:	3c 81       	ldd	r19, Y+4	; 0x04
    1554:	82 1b       	sub	r24, r18
    1556:	93 0b       	sbc	r25, r19
    1558:	0e 94 50 08 	call	0x10a0	; 0x10a0 <tft_drawPixel>
    155c:	a8 01       	movw	r20, r16
    155e:	6b 81       	ldd	r22, Y+3	; 0x03
    1560:	7c 81       	ldd	r23, Y+4	; 0x04
    1562:	6a 0d       	add	r22, r10
    1564:	7b 1d       	adc	r23, r11
    1566:	c6 01       	movw	r24, r12
    1568:	8e 19       	sub	r24, r14
    156a:	9f 09       	sbc	r25, r15
    156c:	0e 94 50 08 	call	0x10a0	; 0x10a0 <tft_drawPixel>
    1570:	33 20       	and	r3, r3
    1572:	09 f4       	brne	.+2      	; 0x1576 <tft_drawCircleHelper+0x15c>
    1574:	87 cf       	rjmp	.-242    	; 0x1484 <tft_drawCircleHelper+0x6a>
    1576:	a8 01       	movw	r20, r16
    1578:	b5 01       	movw	r22, r10
    157a:	6e 19       	sub	r22, r14
    157c:	7f 09       	sbc	r23, r15
    157e:	c6 01       	movw	r24, r12
    1580:	2b 81       	ldd	r18, Y+3	; 0x03
    1582:	3c 81       	ldd	r19, Y+4	; 0x04
    1584:	82 1b       	sub	r24, r18
    1586:	93 0b       	sbc	r25, r19
    1588:	0e 94 50 08 	call	0x10a0	; 0x10a0 <tft_drawPixel>
    158c:	a8 01       	movw	r20, r16
    158e:	b5 01       	movw	r22, r10
    1590:	8b 81       	ldd	r24, Y+3	; 0x03
    1592:	9c 81       	ldd	r25, Y+4	; 0x04
    1594:	68 1b       	sub	r22, r24
    1596:	79 0b       	sbc	r23, r25
    1598:	c6 01       	movw	r24, r12
    159a:	8e 19       	sub	r24, r14
    159c:	9f 09       	sbc	r25, r15
    159e:	0e 94 50 08 	call	0x10a0	; 0x10a0 <tft_drawPixel>
    15a2:	70 cf       	rjmp	.-288    	; 0x1484 <tft_drawCircleHelper+0x6a>

000015a4 <tft_drawRoundRect>:
    15a4:	2f 92       	push	r2
    15a6:	3f 92       	push	r3
    15a8:	4f 92       	push	r4
    15aa:	5f 92       	push	r5
    15ac:	6f 92       	push	r6
    15ae:	7f 92       	push	r7
    15b0:	8f 92       	push	r8
    15b2:	9f 92       	push	r9
    15b4:	af 92       	push	r10
    15b6:	bf 92       	push	r11
    15b8:	cf 92       	push	r12
    15ba:	df 92       	push	r13
    15bc:	ef 92       	push	r14
    15be:	ff 92       	push	r15
    15c0:	0f 93       	push	r16
    15c2:	1f 93       	push	r17
    15c4:	cf 93       	push	r28
    15c6:	df 93       	push	r29
    15c8:	5c 01       	movw	r10, r24
    15ca:	6b 01       	movw	r12, r22
    15cc:	2a 01       	movw	r4, r20
    15ce:	39 01       	movw	r6, r18
    15d0:	e8 01       	movw	r28, r16
    15d2:	8a 01       	movw	r16, r20
    15d4:	0c 1b       	sub	r16, r28
    15d6:	1d 0b       	sbc	r17, r29
    15d8:	0c 1b       	sub	r16, r28
    15da:	1d 0b       	sbc	r17, r29
    15dc:	4e 01       	movw	r8, r28
    15de:	88 0e       	add	r8, r24
    15e0:	99 1e       	adc	r9, r25
    15e2:	97 01       	movw	r18, r14
    15e4:	a8 01       	movw	r20, r16
    15e6:	c4 01       	movw	r24, r8
    15e8:	0e 94 73 08 	call	0x10e6	; 0x10e6 <tft_drawFastHLine>
    15ec:	16 01       	movw	r2, r12
    15ee:	26 0c       	add	r2, r6
    15f0:	37 1c       	adc	r3, r7
    15f2:	b1 01       	movw	r22, r2
    15f4:	61 50       	subi	r22, 0x01	; 1
    15f6:	71 09       	sbc	r23, r1
    15f8:	97 01       	movw	r18, r14
    15fa:	a8 01       	movw	r20, r16
    15fc:	c4 01       	movw	r24, r8
    15fe:	0e 94 73 08 	call	0x10e6	; 0x10e6 <tft_drawFastHLine>
    1602:	6c 1a       	sub	r6, r28
    1604:	7d 0a       	sbc	r7, r29
    1606:	6c 1a       	sub	r6, r28
    1608:	7d 0a       	sbc	r7, r29
    160a:	cc 0e       	add	r12, r28
    160c:	dd 1e       	adc	r13, r29
    160e:	97 01       	movw	r18, r14
    1610:	a3 01       	movw	r20, r6
    1612:	b6 01       	movw	r22, r12
    1614:	c5 01       	movw	r24, r10
    1616:	0e 94 8f 08 	call	0x111e	; 0x111e <tft_drawFastVLine>
    161a:	a4 0c       	add	r10, r4
    161c:	b5 1c       	adc	r11, r5
    161e:	97 01       	movw	r18, r14
    1620:	a3 01       	movw	r20, r6
    1622:	b6 01       	movw	r22, r12
    1624:	c5 01       	movw	r24, r10
    1626:	01 97       	sbiw	r24, 0x01	; 1
    1628:	0e 94 8f 08 	call	0x111e	; 0x111e <tft_drawFastVLine>
    162c:	87 01       	movw	r16, r14
    162e:	21 e0       	ldi	r18, 0x01	; 1
    1630:	ae 01       	movw	r20, r28
    1632:	b6 01       	movw	r22, r12
    1634:	c4 01       	movw	r24, r8
    1636:	0e 94 0d 0a 	call	0x141a	; 0x141a <tft_drawCircleHelper>
    163a:	ac 1a       	sub	r10, r28
    163c:	bd 0a       	sbc	r11, r29
    163e:	81 e0       	ldi	r24, 0x01	; 1
    1640:	a8 1a       	sub	r10, r24
    1642:	b1 08       	sbc	r11, r1
    1644:	22 e0       	ldi	r18, 0x02	; 2
    1646:	ae 01       	movw	r20, r28
    1648:	b6 01       	movw	r22, r12
    164a:	c5 01       	movw	r24, r10
    164c:	0e 94 0d 0a 	call	0x141a	; 0x141a <tft_drawCircleHelper>
    1650:	2c 1a       	sub	r2, r28
    1652:	3d 0a       	sbc	r3, r29
    1654:	81 e0       	ldi	r24, 0x01	; 1
    1656:	28 1a       	sub	r2, r24
    1658:	31 08       	sbc	r3, r1
    165a:	24 e0       	ldi	r18, 0x04	; 4
    165c:	ae 01       	movw	r20, r28
    165e:	b1 01       	movw	r22, r2
    1660:	c5 01       	movw	r24, r10
    1662:	0e 94 0d 0a 	call	0x141a	; 0x141a <tft_drawCircleHelper>
    1666:	28 e0       	ldi	r18, 0x08	; 8
    1668:	ae 01       	movw	r20, r28
    166a:	b1 01       	movw	r22, r2
    166c:	c4 01       	movw	r24, r8
    166e:	0e 94 0d 0a 	call	0x141a	; 0x141a <tft_drawCircleHelper>
    1672:	df 91       	pop	r29
    1674:	cf 91       	pop	r28
    1676:	1f 91       	pop	r17
    1678:	0f 91       	pop	r16
    167a:	ff 90       	pop	r15
    167c:	ef 90       	pop	r14
    167e:	df 90       	pop	r13
    1680:	cf 90       	pop	r12
    1682:	bf 90       	pop	r11
    1684:	af 90       	pop	r10
    1686:	9f 90       	pop	r9
    1688:	8f 90       	pop	r8
    168a:	7f 90       	pop	r7
    168c:	6f 90       	pop	r6
    168e:	5f 90       	pop	r5
    1690:	4f 90       	pop	r4
    1692:	3f 90       	pop	r3
    1694:	2f 90       	pop	r2
    1696:	08 95       	ret

00001698 <tft_FillTriangle>:
    1698:	2f 92       	push	r2
    169a:	3f 92       	push	r3
    169c:	4f 92       	push	r4
    169e:	5f 92       	push	r5
    16a0:	6f 92       	push	r6
    16a2:	7f 92       	push	r7
    16a4:	8f 92       	push	r8
    16a6:	9f 92       	push	r9
    16a8:	af 92       	push	r10
    16aa:	bf 92       	push	r11
    16ac:	cf 92       	push	r12
    16ae:	df 92       	push	r13
    16b0:	ef 92       	push	r14
    16b2:	ff 92       	push	r15
    16b4:	0f 93       	push	r16
    16b6:	1f 93       	push	r17
    16b8:	cf 93       	push	r28
    16ba:	df 93       	push	r29
    16bc:	cd b7       	in	r28, 0x3d	; 61
    16be:	de b7       	in	r29, 0x3e	; 62
    16c0:	a7 97       	sbiw	r28, 0x27	; 39
    16c2:	0f b6       	in	r0, 0x3f	; 63
    16c4:	f8 94       	cli
    16c6:	de bf       	out	0x3e, r29	; 62
    16c8:	0f be       	out	0x3f, r0	; 63
    16ca:	cd bf       	out	0x3d, r28	; 61
    16cc:	5b 01       	movw	r10, r22
    16ce:	9a 83       	std	Y+2, r25	; 0x02
    16d0:	89 83       	std	Y+1, r24	; 0x01
    16d2:	d9 01       	movw	r26, r18
    16d4:	1a 01       	movw	r2, r20
    16d6:	f7 01       	movw	r30, r14
    16d8:	1f a3       	std	Y+39, r17	; 0x27
    16da:	0e a3       	std	Y+38, r16	; 0x26
    16dc:	48 17       	cp	r20, r24
    16de:	59 07       	cpc	r21, r25
    16e0:	0c f0       	brlt	.+2      	; 0x16e4 <tft_FillTriangle+0x4c>
    16e2:	6f c1       	rjmp	.+734    	; 0x19c2 <tft_FillTriangle+0x32a>
    16e4:	08 17       	cp	r16, r24
    16e6:	19 07       	cpc	r17, r25
    16e8:	0c f0       	brlt	.+2      	; 0x16ec <tft_FillTriangle+0x54>
    16ea:	3e c0       	rjmp	.+124    	; 0x1768 <tft_FillTriangle+0xd0>
    16ec:	1c 01       	movw	r2, r24
    16ee:	5a 83       	std	Y+2, r21	; 0x02
    16f0:	49 83       	std	Y+1, r20	; 0x01
    16f2:	db 01       	movw	r26, r22
    16f4:	59 01       	movw	r10, r18
    16f6:	8e a0       	ldd	r8, Y+38	; 0x26
    16f8:	9f a0       	ldd	r9, Y+39	; 0x27
    16fa:	29 81       	ldd	r18, Y+1	; 0x01
    16fc:	3a 81       	ldd	r19, Y+2	; 0x02
    16fe:	82 16       	cp	r8, r18
    1700:	93 06       	cpc	r9, r19
    1702:	cc f1       	brlt	.+114    	; 0x1776 <tft_FillTriangle+0xde>
    1704:	79 81       	ldd	r23, Y+1	; 0x01
    1706:	6a 81       	ldd	r22, Y+2	; 0x02
    1708:	8a 2d       	mov	r24, r10
    170a:	2b 2d       	mov	r18, r11
    170c:	1a 83       	std	Y+2, r17	; 0x02
    170e:	09 83       	std	Y+1, r16	; 0x01
    1710:	57 01       	movw	r10, r14
    1712:	fd 01       	movw	r30, r26
    1714:	3f a2       	std	Y+39, r3	; 0x27
    1716:	2e a2       	std	Y+38, r2	; 0x26
    1718:	29 80       	ldd	r2, Y+1	; 0x01
    171a:	3a 80       	ldd	r3, Y+2	; 0x02
    171c:	d5 01       	movw	r26, r10
    171e:	79 83       	std	Y+1, r23	; 0x01
    1720:	6a 83       	std	Y+2, r22	; 0x02
    1722:	a8 2e       	mov	r10, r24
    1724:	b2 2e       	mov	r11, r18
    1726:	2e a1       	ldd	r18, Y+38	; 0x26
    1728:	3f a1       	ldd	r19, Y+39	; 0x27
    172a:	89 80       	ldd	r8, Y+1	; 0x01
    172c:	9a 80       	ldd	r9, Y+2	; 0x02
    172e:	28 19       	sub	r18, r8
    1730:	39 09       	sbc	r19, r9
    1732:	09 f0       	breq	.+2      	; 0x1736 <tft_FillTriangle+0x9e>
    1734:	e0 c0       	rjmp	.+448    	; 0x18f6 <tft_FillTriangle+0x25e>
    1736:	a7 96       	adiw	r28, 0x27	; 39
    1738:	0f b6       	in	r0, 0x3f	; 63
    173a:	f8 94       	cli
    173c:	de bf       	out	0x3e, r29	; 62
    173e:	0f be       	out	0x3f, r0	; 63
    1740:	cd bf       	out	0x3d, r28	; 61
    1742:	df 91       	pop	r29
    1744:	cf 91       	pop	r28
    1746:	1f 91       	pop	r17
    1748:	0f 91       	pop	r16
    174a:	ff 90       	pop	r15
    174c:	ef 90       	pop	r14
    174e:	df 90       	pop	r13
    1750:	cf 90       	pop	r12
    1752:	bf 90       	pop	r11
    1754:	af 90       	pop	r10
    1756:	9f 90       	pop	r9
    1758:	8f 90       	pop	r8
    175a:	7f 90       	pop	r7
    175c:	6f 90       	pop	r6
    175e:	5f 90       	pop	r5
    1760:	4f 90       	pop	r4
    1762:	3f 90       	pop	r3
    1764:	2f 90       	pop	r2
    1766:	08 95       	ret
    1768:	74 2f       	mov	r23, r20
    176a:	65 2f       	mov	r22, r21
    176c:	82 2f       	mov	r24, r18
    176e:	23 2f       	mov	r18, r19
    1770:	d7 01       	movw	r26, r14
    1772:	18 01       	movw	r2, r16
    1774:	ce cf       	rjmp	.-100    	; 0x1712 <tft_FillTriangle+0x7a>
    1776:	39 81       	ldd	r19, Y+1	; 0x01
    1778:	2a 81       	ldd	r18, Y+2	; 0x02
    177a:	1a 83       	std	Y+2, r17	; 0x02
    177c:	09 83       	std	Y+1, r16	; 0x01
    177e:	3f a2       	std	Y+39, r3	; 0x27
    1780:	2e a2       	std	Y+38, r2	; 0x26
    1782:	23 2e       	mov	r2, r19
    1784:	32 2e       	mov	r3, r18
    1786:	3a 2d       	mov	r19, r10
    1788:	2b 2d       	mov	r18, r11
    178a:	57 01       	movw	r10, r14
    178c:	fd 01       	movw	r30, r26
    178e:	a3 2f       	mov	r26, r19
    1790:	b2 2f       	mov	r27, r18
    1792:	c9 cf       	rjmp	.-110    	; 0x1726 <tft_FillTriangle+0x8e>
    1794:	20 16       	cp	r2, r16
    1796:	31 06       	cpc	r3, r17
    1798:	c4 f0       	brlt	.+48     	; 0x17ca <tft_FillTriangle+0x132>
    179a:	81 e0       	ldi	r24, 0x01	; 1
    179c:	c9 80       	ldd	r12, Y+1	; 0x01
    179e:	da 80       	ldd	r13, Y+2	; 0x02
    17a0:	c2 14       	cp	r12, r2
    17a2:	d3 04       	cpc	r13, r3
    17a4:	09 f0       	breq	.+2      	; 0x17a8 <tft_FillTriangle+0x110>
    17a6:	80 e0       	ldi	r24, 0x00	; 0
    17a8:	8b 83       	std	Y+3, r24	; 0x03
    17aa:	88 23       	and	r24, r24
    17ac:	89 f0       	breq	.+34     	; 0x17d0 <tft_FillTriangle+0x138>
    17ae:	68 84       	ldd	r6, Y+8	; 0x08
    17b0:	79 84       	ldd	r7, Y+9	; 0x09
    17b2:	61 14       	cp	r6, r1
    17b4:	71 04       	cpc	r7, r1
    17b6:	09 f0       	breq	.+2      	; 0x17ba <tft_FillTriangle+0x122>
    17b8:	e7 c0       	rjmp	.+462    	; 0x1988 <tft_FillTriangle+0x2f0>
    17ba:	0f 5f       	subi	r16, 0xFF	; 255
    17bc:	1f 4f       	sbci	r17, 0xFF	; 255
    17be:	8e a0       	ldd	r8, Y+38	; 0x26
    17c0:	9f a0       	ldd	r9, Y+39	; 0x27
    17c2:	80 16       	cp	r8, r16
    17c4:	91 06       	cpc	r9, r17
    17c6:	34 f7       	brge	.-52     	; 0x1794 <tft_FillTriangle+0xfc>
    17c8:	b6 cf       	rjmp	.-148    	; 0x1736 <tft_FillTriangle+0x9e>
    17ca:	21 e0       	ldi	r18, 0x01	; 1
    17cc:	2b 83       	std	Y+3, r18	; 0x03
    17ce:	ef cf       	rjmp	.-34     	; 0x17ae <tft_FillTriangle+0x116>
    17d0:	6e 84       	ldd	r6, Y+14	; 0x0e
    17d2:	7f 84       	ldd	r7, Y+15	; 0x0f
    17d4:	61 14       	cp	r6, r1
    17d6:	71 04       	cpc	r7, r1
    17d8:	81 f3       	breq	.-32     	; 0x17ba <tft_FillTriangle+0x122>
    17da:	b8 01       	movw	r22, r16
    17dc:	c9 80       	ldd	r12, Y+1	; 0x01
    17de:	da 80       	ldd	r13, Y+2	; 0x02
    17e0:	6c 19       	sub	r22, r12
    17e2:	7d 09       	sbc	r23, r13
    17e4:	07 2e       	mov	r0, r23
    17e6:	00 0c       	add	r0, r0
    17e8:	88 0b       	sbc	r24, r24
    17ea:	99 0b       	sbc	r25, r25
    17ec:	0e 94 09 22 	call	0x4412	; 0x4412 <__floatsisf>
    17f0:	6b 01       	movw	r12, r22
    17f2:	7c 01       	movw	r14, r24
    17f4:	6a 85       	ldd	r22, Y+10	; 0x0a
    17f6:	7b 85       	ldd	r23, Y+11	; 0x0b
    17f8:	8c 85       	ldd	r24, Y+12	; 0x0c
    17fa:	9d 85       	ldd	r25, Y+13	; 0x0d
    17fc:	0e 94 09 22 	call	0x4412	; 0x4412 <__floatsisf>
    1800:	9b 01       	movw	r18, r22
    1802:	ac 01       	movw	r20, r24
    1804:	c7 01       	movw	r24, r14
    1806:	b6 01       	movw	r22, r12
    1808:	0e 94 5f 21 	call	0x42be	; 0x42be <__divsf3>
    180c:	6b 01       	movw	r12, r22
    180e:	7c 01       	movw	r14, r24
    1810:	89 81       	ldd	r24, Y+1	; 0x01
    1812:	9a 81       	ldd	r25, Y+2	; 0x02
    1814:	b8 01       	movw	r22, r16
    1816:	68 1b       	sub	r22, r24
    1818:	79 0b       	sbc	r23, r25
    181a:	07 2e       	mov	r0, r23
    181c:	00 0c       	add	r0, r0
    181e:	88 0b       	sbc	r24, r24
    1820:	99 0b       	sbc	r25, r25
    1822:	0e 94 09 22 	call	0x4412	; 0x4412 <__floatsisf>
    1826:	4b 01       	movw	r8, r22
    1828:	5c 01       	movw	r10, r24
    182a:	b3 01       	movw	r22, r6
    182c:	77 0c       	add	r7, r7
    182e:	88 0b       	sbc	r24, r24
    1830:	99 0b       	sbc	r25, r25
    1832:	0e 94 09 22 	call	0x4412	; 0x4412 <__floatsisf>
    1836:	9b 01       	movw	r18, r22
    1838:	ac 01       	movw	r20, r24
    183a:	c5 01       	movw	r24, r10
    183c:	b4 01       	movw	r22, r8
    183e:	0e 94 5f 21 	call	0x42be	; 0x42be <__divsf3>
    1842:	2b 01       	movw	r4, r22
    1844:	3c 01       	movw	r6, r24
    1846:	68 89       	ldd	r22, Y+16	; 0x10
    1848:	79 89       	ldd	r23, Y+17	; 0x11
    184a:	8a 89       	ldd	r24, Y+18	; 0x12
    184c:	9b 89       	ldd	r25, Y+19	; 0x13
    184e:	0e 94 09 22 	call	0x4412	; 0x4412 <__floatsisf>
    1852:	4b 01       	movw	r8, r22
    1854:	5c 01       	movw	r10, r24
    1856:	6c 89       	ldd	r22, Y+20	; 0x14
    1858:	7d 89       	ldd	r23, Y+21	; 0x15
    185a:	8e 89       	ldd	r24, Y+22	; 0x16
    185c:	9f 89       	ldd	r25, Y+23	; 0x17
    185e:	0e 94 09 22 	call	0x4412	; 0x4412 <__floatsisf>
    1862:	a7 01       	movw	r20, r14
    1864:	96 01       	movw	r18, r12
    1866:	0e 94 be 22 	call	0x457c	; 0x457c <__mulsf3>
    186a:	a5 01       	movw	r20, r10
    186c:	94 01       	movw	r18, r8
    186e:	0e 94 ee 20 	call	0x41dc	; 0x41dc <__addsf3>
    1872:	0e 94 d1 21 	call	0x43a2	; 0x43a2 <__fixsfsi>
    1876:	6c 83       	std	Y+4, r22	; 0x04
    1878:	7d 83       	std	Y+5, r23	; 0x05
    187a:	8e 83       	std	Y+6, r24	; 0x06
    187c:	9f 83       	std	Y+7, r25	; 0x07
    187e:	ec 80       	ldd	r14, Y+4	; 0x04
    1880:	fd 80       	ldd	r15, Y+5	; 0x05
    1882:	cb 80       	ldd	r12, Y+3	; 0x03
    1884:	cc 20       	and	r12, r12
    1886:	51 f1       	breq	.+84     	; 0x18dc <tft_FillTriangle+0x244>
    1888:	6c 8d       	ldd	r22, Y+28	; 0x1c
    188a:	7d 8d       	ldd	r23, Y+29	; 0x1d
    188c:	8e 8d       	ldd	r24, Y+30	; 0x1e
    188e:	9f 8d       	ldd	r25, Y+31	; 0x1f
    1890:	0e 94 09 22 	call	0x4412	; 0x4412 <__floatsisf>
    1894:	a3 01       	movw	r20, r6
    1896:	92 01       	movw	r18, r4
    1898:	0e 94 be 22 	call	0x457c	; 0x457c <__mulsf3>
    189c:	4b 01       	movw	r8, r22
    189e:	5c 01       	movw	r10, r24
    18a0:	68 a1       	ldd	r22, Y+32	; 0x20
    18a2:	79 a1       	ldd	r23, Y+33	; 0x21
    18a4:	8a a1       	ldd	r24, Y+34	; 0x22
    18a6:	9b a1       	ldd	r25, Y+35	; 0x23
    18a8:	0e 94 09 22 	call	0x4412	; 0x4412 <__floatsisf>
    18ac:	9b 01       	movw	r18, r22
    18ae:	ac 01       	movw	r20, r24
    18b0:	c5 01       	movw	r24, r10
    18b2:	b4 01       	movw	r22, r8
    18b4:	0e 94 ee 20 	call	0x41dc	; 0x41dc <__addsf3>
    18b8:	0e 94 d1 21 	call	0x43a2	; 0x43a2 <__fixsfsi>
    18bc:	6e 15       	cp	r22, r14
    18be:	7f 05       	cpc	r23, r15
    18c0:	1c f4       	brge	.+6      	; 0x18c8 <tft_FillTriangle+0x230>
    18c2:	7b 01       	movw	r14, r22
    18c4:	6c 81       	ldd	r22, Y+4	; 0x04
    18c6:	7d 81       	ldd	r23, Y+5	; 0x05
    18c8:	ab 01       	movw	r20, r22
    18ca:	4e 19       	sub	r20, r14
    18cc:	5f 09       	sbc	r21, r15
    18ce:	2c a1       	ldd	r18, Y+36	; 0x24
    18d0:	3d a1       	ldd	r19, Y+37	; 0x25
    18d2:	b8 01       	movw	r22, r16
    18d4:	c7 01       	movw	r24, r14
    18d6:	0e 94 73 08 	call	0x10e6	; 0x10e6 <tft_drawFastHLine>
    18da:	6f cf       	rjmp	.-290    	; 0x17ba <tft_FillTriangle+0x122>
    18dc:	68 8d       	ldd	r22, Y+24	; 0x18
    18de:	79 8d       	ldd	r23, Y+25	; 0x19
    18e0:	8a 8d       	ldd	r24, Y+26	; 0x1a
    18e2:	9b 8d       	ldd	r25, Y+27	; 0x1b
    18e4:	0e 94 09 22 	call	0x4412	; 0x4412 <__floatsisf>
    18e8:	a3 01       	movw	r20, r6
    18ea:	92 01       	movw	r18, r4
    18ec:	0e 94 be 22 	call	0x457c	; 0x457c <__mulsf3>
    18f0:	a5 01       	movw	r20, r10
    18f2:	94 01       	movw	r18, r8
    18f4:	df cf       	rjmp	.-66     	; 0x18b4 <tft_FillTriangle+0x21c>
    18f6:	dd a2       	std	Y+37, r13	; 0x25
    18f8:	cc a2       	std	Y+36, r12	; 0x24
    18fa:	09 81       	ldd	r16, Y+1	; 0x01
    18fc:	1a 81       	ldd	r17, Y+2	; 0x02
    18fe:	65 01       	movw	r12, r10
    1900:	0b 2c       	mov	r0, r11
    1902:	00 0c       	add	r0, r0
    1904:	ee 08       	sbc	r14, r14
    1906:	ff 08       	sbc	r15, r15
    1908:	c8 8a       	std	Y+16, r12	; 0x10
    190a:	d9 8a       	std	Y+17, r13	; 0x11
    190c:	ea 8a       	std	Y+18, r14	; 0x12
    190e:	fb 8a       	std	Y+19, r15	; 0x13
    1910:	bf 01       	movw	r22, r30
    1912:	6a 19       	sub	r22, r10
    1914:	7b 09       	sbc	r23, r11
    1916:	6b 01       	movw	r12, r22
    1918:	77 0f       	add	r23, r23
    191a:	ee 08       	sbc	r14, r14
    191c:	ff 08       	sbc	r15, r15
    191e:	cc 8a       	std	Y+20, r12	; 0x14
    1920:	dd 8a       	std	Y+21, r13	; 0x15
    1922:	ee 8a       	std	Y+22, r14	; 0x16
    1924:	ff 8a       	std	Y+23, r15	; 0x17
    1926:	cd 01       	movw	r24, r26
    1928:	8a 19       	sub	r24, r10
    192a:	9b 09       	sbc	r25, r11
    192c:	6c 01       	movw	r12, r24
    192e:	99 0f       	add	r25, r25
    1930:	ee 08       	sbc	r14, r14
    1932:	ff 08       	sbc	r15, r15
    1934:	c8 8e       	std	Y+24, r12	; 0x18
    1936:	d9 8e       	std	Y+25, r13	; 0x19
    1938:	ea 8e       	std	Y+26, r14	; 0x1a
    193a:	fb 8e       	std	Y+27, r15	; 0x1b
    193c:	ea 1b       	sub	r30, r26
    193e:	fb 0b       	sbc	r31, r27
    1940:	6f 01       	movw	r12, r30
    1942:	ff 0f       	add	r31, r31
    1944:	ee 08       	sbc	r14, r14
    1946:	ff 08       	sbc	r15, r15
    1948:	cc 8e       	std	Y+28, r12	; 0x1c
    194a:	dd 8e       	std	Y+29, r13	; 0x1d
    194c:	ee 8e       	std	Y+30, r14	; 0x1e
    194e:	ff 8e       	std	Y+31, r15	; 0x1f
    1950:	6d 01       	movw	r12, r26
    1952:	bb 0f       	add	r27, r27
    1954:	ee 08       	sbc	r14, r14
    1956:	ff 08       	sbc	r15, r15
    1958:	c8 a2       	std	Y+32, r12	; 0x20
    195a:	d9 a2       	std	Y+33, r13	; 0x21
    195c:	ea a2       	std	Y+34, r14	; 0x22
    195e:	fb a2       	std	Y+35, r15	; 0x23
    1960:	ee a0       	ldd	r14, Y+38	; 0x26
    1962:	ff a0       	ldd	r15, Y+39	; 0x27
    1964:	e2 18       	sub	r14, r2
    1966:	f3 08       	sbc	r15, r3
    1968:	f9 86       	std	Y+9, r15	; 0x09
    196a:	e8 86       	std	Y+8, r14	; 0x08
    196c:	69 01       	movw	r12, r18
    196e:	33 0f       	add	r19, r19
    1970:	ee 08       	sbc	r14, r14
    1972:	ff 08       	sbc	r15, r15
    1974:	ca 86       	std	Y+10, r12	; 0x0a
    1976:	db 86       	std	Y+11, r13	; 0x0b
    1978:	ec 86       	std	Y+12, r14	; 0x0c
    197a:	fd 86       	std	Y+13, r15	; 0x0d
    197c:	71 01       	movw	r14, r2
    197e:	e0 1a       	sub	r14, r16
    1980:	f1 0a       	sbc	r15, r17
    1982:	ff 86       	std	Y+15, r15	; 0x0f
    1984:	ee 86       	std	Y+14, r14	; 0x0e
    1986:	1b cf       	rjmp	.-458    	; 0x17be <tft_FillTriangle+0x126>
    1988:	b8 01       	movw	r22, r16
    198a:	e9 80       	ldd	r14, Y+1	; 0x01
    198c:	fa 80       	ldd	r15, Y+2	; 0x02
    198e:	6e 19       	sub	r22, r14
    1990:	7f 09       	sbc	r23, r15
    1992:	07 2e       	mov	r0, r23
    1994:	00 0c       	add	r0, r0
    1996:	88 0b       	sbc	r24, r24
    1998:	99 0b       	sbc	r25, r25
    199a:	0e 94 09 22 	call	0x4412	; 0x4412 <__floatsisf>
    199e:	6b 01       	movw	r12, r22
    19a0:	7c 01       	movw	r14, r24
    19a2:	6a 85       	ldd	r22, Y+10	; 0x0a
    19a4:	7b 85       	ldd	r23, Y+11	; 0x0b
    19a6:	8c 85       	ldd	r24, Y+12	; 0x0c
    19a8:	9d 85       	ldd	r25, Y+13	; 0x0d
    19aa:	0e 94 09 22 	call	0x4412	; 0x4412 <__floatsisf>
    19ae:	9b 01       	movw	r18, r22
    19b0:	ac 01       	movw	r20, r24
    19b2:	c7 01       	movw	r24, r14
    19b4:	b6 01       	movw	r22, r12
    19b6:	0e 94 5f 21 	call	0x42be	; 0x42be <__divsf3>
    19ba:	6b 01       	movw	r12, r22
    19bc:	7c 01       	movw	r14, r24
    19be:	c1 01       	movw	r24, r2
    19c0:	29 cf       	rjmp	.-430    	; 0x1814 <tft_FillTriangle+0x17c>
    19c2:	8e a0       	ldd	r8, Y+38	; 0x26
    19c4:	9f a0       	ldd	r9, Y+39	; 0x27
    19c6:	84 16       	cp	r8, r20
    19c8:	95 06       	cpc	r9, r21
    19ca:	0c f4       	brge	.+2      	; 0x19ce <tft_FillTriangle+0x336>
    19cc:	94 ce       	rjmp	.-728    	; 0x16f6 <tft_FillTriangle+0x5e>
    19ce:	ab ce       	rjmp	.-682    	; 0x1726 <tft_FillTriangle+0x8e>

000019d0 <u16_to_decstr>:
    19d0:	ef 92       	push	r14
    19d2:	ff 92       	push	r15
    19d4:	0f 93       	push	r16
    19d6:	1f 93       	push	r17
    19d8:	cf 93       	push	r28
    19da:	df 93       	push	r29
    19dc:	00 d0       	rcall	.+0      	; 0x19de <u16_to_decstr+0xe>
    19de:	00 d0       	rcall	.+0      	; 0x19e0 <u16_to_decstr+0x10>
    19e0:	1f 92       	push	r1
    19e2:	cd b7       	in	r28, 0x3d	; 61
    19e4:	de b7       	in	r29, 0x3e	; 62
    19e6:	8b 01       	movw	r16, r22
    19e8:	e0 e0       	ldi	r30, 0x00	; 0
    19ea:	2a e0       	ldi	r18, 0x0A	; 10
    19ec:	e2 2e       	mov	r14, r18
    19ee:	f1 2c       	mov	r15, r1
    19f0:	00 97       	sbiw	r24, 0x00	; 0
    19f2:	a9 f4       	brne	.+42     	; 0x1a1e <u16_to_decstr+0x4e>
    19f4:	80 e3       	ldi	r24, 0x30	; 48
    19f6:	db 01       	movw	r26, r22
    19f8:	8c 93       	st	X, r24
    19fa:	21 e0       	ldi	r18, 0x01	; 1
    19fc:	f8 01       	movw	r30, r16
    19fe:	e2 0f       	add	r30, r18
    1a00:	f1 1d       	adc	r31, r1
    1a02:	10 82       	st	Z, r1
    1a04:	82 2f       	mov	r24, r18
    1a06:	0f 90       	pop	r0
    1a08:	0f 90       	pop	r0
    1a0a:	0f 90       	pop	r0
    1a0c:	0f 90       	pop	r0
    1a0e:	0f 90       	pop	r0
    1a10:	df 91       	pop	r29
    1a12:	cf 91       	pop	r28
    1a14:	1f 91       	pop	r17
    1a16:	0f 91       	pop	r16
    1a18:	ff 90       	pop	r15
    1a1a:	ef 90       	pop	r14
    1a1c:	08 95       	ret
    1a1e:	21 e0       	ldi	r18, 0x01	; 1
    1a20:	2e 0f       	add	r18, r30
    1a22:	41 e0       	ldi	r20, 0x01	; 1
    1a24:	50 e0       	ldi	r21, 0x00	; 0
    1a26:	4c 0f       	add	r20, r28
    1a28:	5d 1f       	adc	r21, r29
    1a2a:	4e 0f       	add	r20, r30
    1a2c:	51 1d       	adc	r21, r1
    1a2e:	fa 01       	movw	r30, r20
    1a30:	b7 01       	movw	r22, r14
    1a32:	0e 94 4a 20 	call	0x4094	; 0x4094 <__udivmodhi4>
    1a36:	80 5d       	subi	r24, 0xD0	; 208
    1a38:	80 83       	st	Z, r24
    1a3a:	cb 01       	movw	r24, r22
    1a3c:	e2 2f       	mov	r30, r18
    1a3e:	00 97       	sbiw	r24, 0x00	; 0
    1a40:	71 f7       	brne	.-36     	; 0x1a1e <u16_to_decstr+0x4e>
    1a42:	a2 2f       	mov	r26, r18
    1a44:	ae 1b       	sub	r26, r30
    1a46:	a8 01       	movw	r20, r16
    1a48:	4a 0f       	add	r20, r26
    1a4a:	51 1d       	adc	r21, r1
    1a4c:	ee 23       	and	r30, r30
    1a4e:	b1 f2       	breq	.-84     	; 0x19fc <u16_to_decstr+0x2c>
    1a50:	e1 50       	subi	r30, 0x01	; 1
    1a52:	81 e0       	ldi	r24, 0x01	; 1
    1a54:	90 e0       	ldi	r25, 0x00	; 0
    1a56:	8c 0f       	add	r24, r28
    1a58:	9d 1f       	adc	r25, r29
    1a5a:	8e 0f       	add	r24, r30
    1a5c:	91 1d       	adc	r25, r1
    1a5e:	dc 01       	movw	r26, r24
    1a60:	8c 91       	ld	r24, X
    1a62:	da 01       	movw	r26, r20
    1a64:	8c 93       	st	X, r24
    1a66:	ed cf       	rjmp	.-38     	; 0x1a42 <u16_to_decstr+0x72>

00001a68 <tft_drawLine>:
    1a68:	2f 92       	push	r2
    1a6a:	3f 92       	push	r3
    1a6c:	4f 92       	push	r4
    1a6e:	5f 92       	push	r5
    1a70:	6f 92       	push	r6
    1a72:	7f 92       	push	r7
    1a74:	8f 92       	push	r8
    1a76:	9f 92       	push	r9
    1a78:	af 92       	push	r10
    1a7a:	bf 92       	push	r11
    1a7c:	cf 92       	push	r12
    1a7e:	df 92       	push	r13
    1a80:	ef 92       	push	r14
    1a82:	ff 92       	push	r15
    1a84:	0f 93       	push	r16
    1a86:	1f 93       	push	r17
    1a88:	cf 93       	push	r28
    1a8a:	df 93       	push	r29
    1a8c:	00 d0       	rcall	.+0      	; 0x1a8e <tft_drawLine+0x26>
    1a8e:	00 d0       	rcall	.+0      	; 0x1a90 <tft_drawLine+0x28>
    1a90:	cd b7       	in	r28, 0x3d	; 61
    1a92:	de b7       	in	r29, 0x3e	; 62
    1a94:	fa 01       	movw	r30, r20
    1a96:	d9 01       	movw	r26, r18
    1a98:	98 01       	movw	r18, r16
    1a9a:	7a 01       	movw	r14, r20
    1a9c:	84 17       	cp	r24, r20
    1a9e:	95 07       	cpc	r25, r21
    1aa0:	39 f5       	brne	.+78     	; 0x1af0 <tft_drawLine+0x88>
    1aa2:	ad 01       	movw	r20, r26
    1aa4:	46 1b       	sub	r20, r22
    1aa6:	57 0b       	sbc	r21, r23
    1aa8:	57 ff       	sbrs	r21, 7
    1aaa:	03 c0       	rjmp	.+6      	; 0x1ab2 <tft_drawLine+0x4a>
    1aac:	51 95       	neg	r21
    1aae:	41 95       	neg	r20
    1ab0:	51 09       	sbc	r21, r1
    1ab2:	4f 5f       	subi	r20, 0xFF	; 255
    1ab4:	5f 4f       	sbci	r21, 0xFF	; 255
    1ab6:	a6 17       	cp	r26, r22
    1ab8:	b7 07       	cpc	r27, r23
    1aba:	08 f4       	brcc	.+2      	; 0x1abe <tft_drawLine+0x56>
    1abc:	bd 01       	movw	r22, r26
    1abe:	cf 01       	movw	r24, r30
    1ac0:	0f 90       	pop	r0
    1ac2:	0f 90       	pop	r0
    1ac4:	0f 90       	pop	r0
    1ac6:	0f 90       	pop	r0
    1ac8:	df 91       	pop	r29
    1aca:	cf 91       	pop	r28
    1acc:	1f 91       	pop	r17
    1ace:	0f 91       	pop	r16
    1ad0:	ff 90       	pop	r15
    1ad2:	ef 90       	pop	r14
    1ad4:	df 90       	pop	r13
    1ad6:	cf 90       	pop	r12
    1ad8:	bf 90       	pop	r11
    1ada:	af 90       	pop	r10
    1adc:	9f 90       	pop	r9
    1ade:	8f 90       	pop	r8
    1ae0:	7f 90       	pop	r7
    1ae2:	6f 90       	pop	r6
    1ae4:	5f 90       	pop	r5
    1ae6:	4f 90       	pop	r4
    1ae8:	3f 90       	pop	r3
    1aea:	2f 90       	pop	r2
    1aec:	0c 94 8f 08 	jmp	0x111e	; 0x111e <tft_drawFastVLine>
    1af0:	ac 01       	movw	r20, r24
    1af2:	5f 01       	movw	r10, r30
    1af4:	a8 1a       	sub	r10, r24
    1af6:	b9 0a       	sbc	r11, r25
    1af8:	b7 fe       	sbrs	r11, 7
    1afa:	03 c0       	rjmp	.+6      	; 0x1b02 <tft_drawLine+0x9a>
    1afc:	b1 94       	neg	r11
    1afe:	a1 94       	neg	r10
    1b00:	b1 08       	sbc	r11, r1
    1b02:	6a 17       	cp	r22, r26
    1b04:	7b 07       	cpc	r23, r27
    1b06:	f9 f4       	brne	.+62     	; 0x1b46 <tft_drawLine+0xde>
    1b08:	a5 01       	movw	r20, r10
    1b0a:	4f 5f       	subi	r20, 0xFF	; 255
    1b0c:	5f 4f       	sbci	r21, 0xFF	; 255
    1b0e:	e8 17       	cp	r30, r24
    1b10:	f9 07       	cpc	r31, r25
    1b12:	08 f4       	brcc	.+2      	; 0x1b16 <tft_drawLine+0xae>
    1b14:	cf 01       	movw	r24, r30
    1b16:	0f 90       	pop	r0
    1b18:	0f 90       	pop	r0
    1b1a:	0f 90       	pop	r0
    1b1c:	0f 90       	pop	r0
    1b1e:	df 91       	pop	r29
    1b20:	cf 91       	pop	r28
    1b22:	1f 91       	pop	r17
    1b24:	0f 91       	pop	r16
    1b26:	ff 90       	pop	r15
    1b28:	ef 90       	pop	r14
    1b2a:	df 90       	pop	r13
    1b2c:	cf 90       	pop	r12
    1b2e:	bf 90       	pop	r11
    1b30:	af 90       	pop	r10
    1b32:	9f 90       	pop	r9
    1b34:	8f 90       	pop	r8
    1b36:	7f 90       	pop	r7
    1b38:	6f 90       	pop	r6
    1b3a:	5f 90       	pop	r5
    1b3c:	4f 90       	pop	r4
    1b3e:	3f 90       	pop	r3
    1b40:	2f 90       	pop	r2
    1b42:	0c 94 73 08 	jmp	0x10e6	; 0x10e6 <tft_drawFastHLine>
    1b46:	6b 01       	movw	r12, r22
    1b48:	bc 83       	std	Y+4, r27	; 0x04
    1b4a:	ab 83       	std	Y+3, r26	; 0x03
    1b4c:	4d 01       	movw	r8, r26
    1b4e:	86 1a       	sub	r8, r22
    1b50:	97 0a       	sbc	r9, r23
    1b52:	97 fe       	sbrs	r9, 7
    1b54:	03 c0       	rjmp	.+6      	; 0x1b5c <tft_drawLine+0xf4>
    1b56:	91 94       	neg	r9
    1b58:	81 94       	neg	r8
    1b5a:	91 08       	sbc	r9, r1
    1b5c:	a8 14       	cp	r10, r8
    1b5e:	b9 04       	cpc	r11, r9
    1b60:	2c f0       	brlt	.+10     	; 0x1b6c <tft_drawLine+0x104>
    1b62:	fc 83       	std	Y+4, r31	; 0x04
    1b64:	eb 83       	std	Y+3, r30	; 0x03
    1b66:	7d 01       	movw	r14, r26
    1b68:	6c 01       	movw	r12, r24
    1b6a:	ab 01       	movw	r20, r22
    1b6c:	8b 81       	ldd	r24, Y+3	; 0x03
    1b6e:	9c 81       	ldd	r25, Y+4	; 0x04
    1b70:	8c 15       	cp	r24, r12
    1b72:	9d 05       	cpc	r25, r13
    1b74:	5c f0       	brlt	.+22     	; 0x1b8c <tft_drawLine+0x124>
    1b76:	9e 2d       	mov	r25, r14
    1b78:	8f 2d       	mov	r24, r15
    1b7a:	7a 01       	movw	r14, r20
    1b7c:	49 2f       	mov	r20, r25
    1b7e:	58 2f       	mov	r21, r24
    1b80:	9b 81       	ldd	r25, Y+3	; 0x03
    1b82:	8c 81       	ldd	r24, Y+4	; 0x04
    1b84:	dc 82       	std	Y+4, r13	; 0x04
    1b86:	cb 82       	std	Y+3, r12	; 0x03
    1b88:	c9 2e       	mov	r12, r25
    1b8a:	d8 2e       	mov	r13, r24
    1b8c:	16 01       	movw	r2, r12
    1b8e:	8b 81       	ldd	r24, Y+3	; 0x03
    1b90:	9c 81       	ldd	r25, Y+4	; 0x04
    1b92:	28 1a       	sub	r2, r24
    1b94:	39 0a       	sbc	r3, r25
    1b96:	2a 01       	movw	r4, r20
    1b98:	4e 18       	sub	r4, r14
    1b9a:	5f 08       	sbc	r5, r15
    1b9c:	57 fe       	sbrs	r5, 7
    1b9e:	03 c0       	rjmp	.+6      	; 0x1ba6 <tft_drawLine+0x13e>
    1ba0:	51 94       	neg	r5
    1ba2:	41 94       	neg	r4
    1ba4:	51 08       	sbc	r5, r1
    1ba6:	31 01       	movw	r6, r2
    1ba8:	37 fe       	sbrs	r3, 7
    1baa:	03 c0       	rjmp	.+6      	; 0x1bb2 <tft_drawLine+0x14a>
    1bac:	9f ef       	ldi	r25, 0xFF	; 255
    1bae:	69 1a       	sub	r6, r25
    1bb0:	79 0a       	sbc	r7, r25
    1bb2:	3a 83       	std	Y+2, r19	; 0x02
    1bb4:	29 83       	std	Y+1, r18	; 0x01
    1bb6:	75 94       	asr	r7
    1bb8:	67 94       	ror	r6
    1bba:	01 e0       	ldi	r16, 0x01	; 1
    1bbc:	10 e0       	ldi	r17, 0x00	; 0
    1bbe:	e4 16       	cp	r14, r20
    1bc0:	f5 06       	cpc	r15, r21
    1bc2:	14 f0       	brlt	.+4      	; 0x1bc8 <tft_drawLine+0x160>
    1bc4:	0f ef       	ldi	r16, 0xFF	; 255
    1bc6:	1f ef       	ldi	r17, 0xFF	; 255
    1bc8:	8b 81       	ldd	r24, Y+3	; 0x03
    1bca:	9c 81       	ldd	r25, Y+4	; 0x04
    1bcc:	c8 16       	cp	r12, r24
    1bce:	d9 06       	cpc	r13, r25
    1bd0:	bc f4       	brge	.+46     	; 0x1c00 <tft_drawLine+0x198>
    1bd2:	0f 90       	pop	r0
    1bd4:	0f 90       	pop	r0
    1bd6:	0f 90       	pop	r0
    1bd8:	0f 90       	pop	r0
    1bda:	df 91       	pop	r29
    1bdc:	cf 91       	pop	r28
    1bde:	1f 91       	pop	r17
    1be0:	0f 91       	pop	r16
    1be2:	ff 90       	pop	r15
    1be4:	ef 90       	pop	r14
    1be6:	df 90       	pop	r13
    1be8:	cf 90       	pop	r12
    1bea:	bf 90       	pop	r11
    1bec:	af 90       	pop	r10
    1bee:	9f 90       	pop	r9
    1bf0:	8f 90       	pop	r8
    1bf2:	7f 90       	pop	r7
    1bf4:	6f 90       	pop	r6
    1bf6:	5f 90       	pop	r5
    1bf8:	4f 90       	pop	r4
    1bfa:	3f 90       	pop	r3
    1bfc:	2f 90       	pop	r2
    1bfe:	08 95       	ret
    1c00:	49 81       	ldd	r20, Y+1	; 0x01
    1c02:	5a 81       	ldd	r21, Y+2	; 0x02
    1c04:	6b 81       	ldd	r22, Y+3	; 0x03
    1c06:	7c 81       	ldd	r23, Y+4	; 0x04
    1c08:	c7 01       	movw	r24, r14
    1c0a:	a8 14       	cp	r10, r8
    1c0c:	b9 04       	cpc	r11, r9
    1c0e:	1c f0       	brlt	.+6      	; 0x1c16 <tft_drawLine+0x1ae>
    1c10:	b7 01       	movw	r22, r14
    1c12:	8b 81       	ldd	r24, Y+3	; 0x03
    1c14:	9c 81       	ldd	r25, Y+4	; 0x04
    1c16:	0e 94 50 08 	call	0x10a0	; 0x10a0 <tft_drawPixel>
    1c1a:	64 18       	sub	r6, r4
    1c1c:	75 08       	sbc	r7, r5
    1c1e:	77 fe       	sbrs	r7, 7
    1c20:	04 c0       	rjmp	.+8      	; 0x1c2a <tft_drawLine+0x1c2>
    1c22:	e0 0e       	add	r14, r16
    1c24:	f1 1e       	adc	r15, r17
    1c26:	62 0c       	add	r6, r2
    1c28:	73 1c       	adc	r7, r3
    1c2a:	8b 81       	ldd	r24, Y+3	; 0x03
    1c2c:	9c 81       	ldd	r25, Y+4	; 0x04
    1c2e:	01 96       	adiw	r24, 0x01	; 1
    1c30:	9c 83       	std	Y+4, r25	; 0x04
    1c32:	8b 83       	std	Y+3, r24	; 0x03
    1c34:	c9 cf       	rjmp	.-110    	; 0x1bc8 <tft_drawLine+0x160>

00001c36 <tft_drawCharGL>:
    1c36:	2f 92       	push	r2
    1c38:	3f 92       	push	r3
    1c3a:	4f 92       	push	r4
    1c3c:	5f 92       	push	r5
    1c3e:	6f 92       	push	r6
    1c40:	7f 92       	push	r7
    1c42:	8f 92       	push	r8
    1c44:	9f 92       	push	r9
    1c46:	af 92       	push	r10
    1c48:	bf 92       	push	r11
    1c4a:	cf 92       	push	r12
    1c4c:	df 92       	push	r13
    1c4e:	ef 92       	push	r14
    1c50:	ff 92       	push	r15
    1c52:	0f 93       	push	r16
    1c54:	1f 93       	push	r17
    1c56:	cf 93       	push	r28
    1c58:	df 93       	push	r29
    1c5a:	cd b7       	in	r28, 0x3d	; 61
    1c5c:	de b7       	in	r29, 0x3e	; 62
    1c5e:	2d 97       	sbiw	r28, 0x0d	; 13
    1c60:	0f b6       	in	r0, 0x3f	; 63
    1c62:	f8 94       	cli
    1c64:	de bf       	out	0x3e, r29	; 62
    1c66:	0f be       	out	0x3f, r0	; 63
    1c68:	cd bf       	out	0x3d, r28	; 61
    1c6a:	5b 01       	movw	r10, r22
    1c6c:	49 01       	movw	r8, r18
    1c6e:	38 01       	movw	r6, r16
    1c70:	20 91 03 01 	lds	r18, 0x0103	; 0x800103 <_width>
    1c74:	30 91 04 01 	lds	r19, 0x0104	; 0x800104 <_width+0x1>
    1c78:	82 17       	cp	r24, r18
    1c7a:	93 07       	cpc	r25, r19
    1c7c:	0c f0       	brlt	.+2      	; 0x1c80 <tft_drawCharGL+0x4a>
    1c7e:	be c0       	rjmp	.+380    	; 0x1dfc <tft_drawCharGL+0x1c6>
    1c80:	20 91 01 01 	lds	r18, 0x0101	; 0x800101 <_height>
    1c84:	30 91 02 01 	lds	r19, 0x0102	; 0x800102 <_height+0x1>
    1c88:	62 17       	cp	r22, r18
    1c8a:	73 07       	cpc	r23, r19
    1c8c:	0c f0       	brlt	.+2      	; 0x1c90 <tft_drawCharGL+0x5a>
    1c8e:	b6 c0       	rjmp	.+364    	; 0x1dfc <tft_drawCharGL+0x1c6>
    1c90:	9c 01       	movw	r18, r24
    1c92:	56 e0       	ldi	r21, 0x06	; 6
    1c94:	e5 9e       	mul	r14, r21
    1c96:	20 0d       	add	r18, r0
    1c98:	31 1d       	adc	r19, r1
    1c9a:	11 24       	eor	r1, r1
    1c9c:	12 16       	cp	r1, r18
    1c9e:	13 06       	cpc	r1, r19
    1ca0:	0c f0       	brlt	.+2      	; 0x1ca4 <tft_drawCharGL+0x6e>
    1ca2:	ac c0       	rjmp	.+344    	; 0x1dfc <tft_drawCharGL+0x1c6>
    1ca4:	4e 2c       	mov	r4, r14
    1ca6:	51 2c       	mov	r5, r1
    1ca8:	92 01       	movw	r18, r4
    1caa:	53 e0       	ldi	r21, 0x03	; 3
    1cac:	22 0f       	add	r18, r18
    1cae:	33 1f       	adc	r19, r19
    1cb0:	5a 95       	dec	r21
    1cb2:	e1 f7       	brne	.-8      	; 0x1cac <tft_drawCharGL+0x76>
    1cb4:	26 0f       	add	r18, r22
    1cb6:	37 1f       	adc	r19, r23
    1cb8:	12 16       	cp	r1, r18
    1cba:	13 06       	cpc	r1, r19
    1cbc:	0c f0       	brlt	.+2      	; 0x1cc0 <tft_drawCharGL+0x8a>
    1cbe:	9e c0       	rjmp	.+316    	; 0x1dfc <tft_drawCharGL+0x1c6>
    1cc0:	e5 e0       	ldi	r30, 0x05	; 5
    1cc2:	4e 9f       	mul	r20, r30
    1cc4:	80 01       	movw	r16, r0
    1cc6:	11 24       	eor	r1, r1
    1cc8:	f1 e0       	ldi	r31, 0x01	; 1
    1cca:	ef 12       	cpse	r14, r31
    1ccc:	55 c0       	rjmp	.+170    	; 0x1d78 <tft_drawCharGL+0x142>
    1cce:	68 14       	cp	r6, r8
    1cd0:	79 04       	cpc	r7, r9
    1cd2:	09 f4       	brne	.+2      	; 0x1cd6 <tft_drawCharGL+0xa0>
    1cd4:	51 c0       	rjmp	.+162    	; 0x1d78 <tft_drawCharGL+0x142>
    1cd6:	9b 01       	movw	r18, r22
    1cd8:	29 5f       	subi	r18, 0xF9	; 249
    1cda:	3f 4f       	sbci	r19, 0xFF	; 255
    1cdc:	ac 01       	movw	r20, r24
    1cde:	4b 5f       	subi	r20, 0xFB	; 251
    1ce0:	5f 4f       	sbci	r21, 0xFF	; 255
    1ce2:	0e 94 d2 07 	call	0xfa4	; 0xfa4 <tft_setAddressWindow>
    1ce6:	de 01       	movw	r26, r28
    1ce8:	11 96       	adiw	r26, 0x01	; 1
    1cea:	90 e0       	ldi	r25, 0x00	; 0
    1cec:	80 e0       	ldi	r24, 0x00	; 0
    1cee:	07 5e       	subi	r16, 0xE7	; 231
    1cf0:	17 4f       	sbci	r17, 0xF7	; 247
    1cf2:	f8 01       	movw	r30, r16
    1cf4:	e8 0f       	add	r30, r24
    1cf6:	f9 1f       	adc	r31, r25
    1cf8:	e4 91       	lpm	r30, Z
    1cfa:	ed 93       	st	X+, r30
    1cfc:	01 96       	adiw	r24, 0x01	; 1
    1cfe:	85 30       	cpi	r24, 0x05	; 5
    1d00:	91 05       	cpc	r25, r1
    1d02:	b9 f7       	brne	.-18     	; 0x1cf2 <tft_drawCharGL+0xbc>
    1d04:	1e 82       	std	Y+6, r1	; 0x06
    1d06:	88 e0       	ldi	r24, 0x08	; 8
    1d08:	f8 2e       	mov	r15, r24
    1d0a:	cc 24       	eor	r12, r12
    1d0c:	c3 94       	inc	r12
    1d0e:	d1 2c       	mov	r13, r1
    1d10:	cc 0e       	add	r12, r28
    1d12:	dd 1e       	adc	r13, r29
    1d14:	26 e0       	ldi	r18, 0x06	; 6
    1d16:	c2 0e       	add	r12, r18
    1d18:	d1 1c       	adc	r13, r1
    1d1a:	8e 01       	movw	r16, r28
    1d1c:	0f 5f       	subi	r16, 0xFF	; 255
    1d1e:	1f 4f       	sbci	r17, 0xFF	; 255
    1d20:	f8 01       	movw	r30, r16
    1d22:	81 91       	ld	r24, Z+
    1d24:	8f 01       	movw	r16, r30
    1d26:	8e 21       	and	r24, r14
    1d28:	29 f1       	breq	.+74     	; 0x1d74 <tft_drawCharGL+0x13e>
    1d2a:	c4 01       	movw	r24, r8
    1d2c:	0e 94 b7 06 	call	0xd6e	; 0xd6e <tft_data16>
    1d30:	c0 16       	cp	r12, r16
    1d32:	d1 06       	cpc	r13, r17
    1d34:	a9 f7       	brne	.-22     	; 0x1d20 <tft_drawCharGL+0xea>
    1d36:	ee 0c       	add	r14, r14
    1d38:	fa 94       	dec	r15
    1d3a:	f1 10       	cpse	r15, r1
    1d3c:	ee cf       	rjmp	.-36     	; 0x1d1a <tft_drawCharGL+0xe4>
    1d3e:	80 e0       	ldi	r24, 0x00	; 0
    1d40:	2d 96       	adiw	r28, 0x0d	; 13
    1d42:	0f b6       	in	r0, 0x3f	; 63
    1d44:	f8 94       	cli
    1d46:	de bf       	out	0x3e, r29	; 62
    1d48:	0f be       	out	0x3f, r0	; 63
    1d4a:	cd bf       	out	0x3d, r28	; 61
    1d4c:	df 91       	pop	r29
    1d4e:	cf 91       	pop	r28
    1d50:	1f 91       	pop	r17
    1d52:	0f 91       	pop	r16
    1d54:	ff 90       	pop	r15
    1d56:	ef 90       	pop	r14
    1d58:	df 90       	pop	r13
    1d5a:	cf 90       	pop	r12
    1d5c:	bf 90       	pop	r11
    1d5e:	af 90       	pop	r10
    1d60:	9f 90       	pop	r9
    1d62:	8f 90       	pop	r8
    1d64:	7f 90       	pop	r7
    1d66:	6f 90       	pop	r6
    1d68:	5f 90       	pop	r5
    1d6a:	4f 90       	pop	r4
    1d6c:	3f 90       	pop	r3
    1d6e:	2f 90       	pop	r2
    1d70:	0c 94 ab 06 	jmp	0xd56	; 0xd56 <tft_cmd>
    1d74:	c3 01       	movw	r24, r6
    1d76:	da cf       	rjmp	.-76     	; 0x1d2c <tft_drawCharGL+0xf6>
    1d78:	6c 01       	movw	r12, r24
    1d7a:	98 87       	std	Y+8, r25	; 0x08
    1d7c:	8f 83       	std	Y+7, r24	; 0x07
    1d7e:	19 86       	std	Y+9, r1	; 0x09
    1d80:	07 5e       	subi	r16, 0xE7	; 231
    1d82:	17 4f       	sbci	r17, 0xF7	; 247
    1d84:	c8 01       	movw	r24, r16
    1d86:	8c 19       	sub	r24, r12
    1d88:	9d 09       	sbc	r25, r13
    1d8a:	9d 87       	std	Y+13, r25	; 0x0d
    1d8c:	8c 87       	std	Y+12, r24	; 0x0c
    1d8e:	99 85       	ldd	r25, Y+9	; 0x09
    1d90:	f1 2c       	mov	r15, r1
    1d92:	95 30       	cpi	r25, 0x05	; 5
    1d94:	39 f0       	breq	.+14     	; 0x1da4 <tft_drawCharGL+0x16e>
    1d96:	ec 85       	ldd	r30, Y+12	; 0x0c
    1d98:	fd 85       	ldd	r31, Y+13	; 0x0d
    1d9a:	8f 81       	ldd	r24, Y+7	; 0x07
    1d9c:	98 85       	ldd	r25, Y+8	; 0x08
    1d9e:	e8 0f       	add	r30, r24
    1da0:	f9 1f       	adc	r31, r25
    1da2:	f4 90       	lpm	r15, Z
    1da4:	bb 86       	std	Y+11, r11	; 0x0b
    1da6:	aa 86       	std	Y+10, r10	; 0x0a
    1da8:	31 2c       	mov	r3, r1
    1daa:	21 2c       	mov	r2, r1
    1dac:	f0 fe       	sbrs	r15, 0
    1dae:	3f c0       	rjmp	.+126    	; 0x1e2e <tft_drawCharGL+0x1f8>
    1db0:	91 e0       	ldi	r25, 0x01	; 1
    1db2:	a4 01       	movw	r20, r8
    1db4:	84 01       	movw	r16, r8
    1db6:	e9 12       	cpse	r14, r25
    1db8:	43 c0       	rjmp	.+134    	; 0x1e40 <tft_drawCharGL+0x20a>
    1dba:	b5 01       	movw	r22, r10
    1dbc:	62 0d       	add	r22, r2
    1dbe:	73 1d       	adc	r23, r3
    1dc0:	8f 81       	ldd	r24, Y+7	; 0x07
    1dc2:	98 85       	ldd	r25, Y+8	; 0x08
    1dc4:	0e 94 50 08 	call	0x10a0	; 0x10a0 <tft_drawPixel>
    1dc8:	f6 94       	lsr	r15
    1dca:	ff ef       	ldi	r31, 0xFF	; 255
    1dcc:	2f 1a       	sub	r2, r31
    1dce:	3f 0a       	sbc	r3, r31
    1dd0:	8a 85       	ldd	r24, Y+10	; 0x0a
    1dd2:	9b 85       	ldd	r25, Y+11	; 0x0b
    1dd4:	84 0d       	add	r24, r4
    1dd6:	95 1d       	adc	r25, r5
    1dd8:	9b 87       	std	Y+11, r25	; 0x0b
    1dda:	8a 87       	std	Y+10, r24	; 0x0a
    1ddc:	98 e0       	ldi	r25, 0x08	; 8
    1dde:	29 16       	cp	r2, r25
    1de0:	31 04       	cpc	r3, r1
    1de2:	21 f7       	brne	.-56     	; 0x1dac <tft_drawCharGL+0x176>
    1de4:	ef 81       	ldd	r30, Y+7	; 0x07
    1de6:	f8 85       	ldd	r31, Y+8	; 0x08
    1de8:	31 96       	adiw	r30, 0x01	; 1
    1dea:	f8 87       	std	Y+8, r31	; 0x08
    1dec:	ef 83       	std	Y+7, r30	; 0x07
    1dee:	c4 0c       	add	r12, r4
    1df0:	d5 1c       	adc	r13, r5
    1df2:	f9 85       	ldd	r31, Y+9	; 0x09
    1df4:	ff 5f       	subi	r31, 0xFF	; 255
    1df6:	f9 87       	std	Y+9, r31	; 0x09
    1df8:	f6 30       	cpi	r31, 0x06	; 6
    1dfa:	49 f6       	brne	.-110    	; 0x1d8e <tft_drawCharGL+0x158>
    1dfc:	2d 96       	adiw	r28, 0x0d	; 13
    1dfe:	0f b6       	in	r0, 0x3f	; 63
    1e00:	f8 94       	cli
    1e02:	de bf       	out	0x3e, r29	; 62
    1e04:	0f be       	out	0x3f, r0	; 63
    1e06:	cd bf       	out	0x3d, r28	; 61
    1e08:	df 91       	pop	r29
    1e0a:	cf 91       	pop	r28
    1e0c:	1f 91       	pop	r17
    1e0e:	0f 91       	pop	r16
    1e10:	ff 90       	pop	r15
    1e12:	ef 90       	pop	r14
    1e14:	df 90       	pop	r13
    1e16:	cf 90       	pop	r12
    1e18:	bf 90       	pop	r11
    1e1a:	af 90       	pop	r10
    1e1c:	9f 90       	pop	r9
    1e1e:	8f 90       	pop	r8
    1e20:	7f 90       	pop	r7
    1e22:	6f 90       	pop	r6
    1e24:	5f 90       	pop	r5
    1e26:	4f 90       	pop	r4
    1e28:	3f 90       	pop	r3
    1e2a:	2f 90       	pop	r2
    1e2c:	08 95       	ret
    1e2e:	68 14       	cp	r6, r8
    1e30:	79 04       	cpc	r7, r9
    1e32:	51 f2       	breq	.-108    	; 0x1dc8 <tft_drawCharGL+0x192>
    1e34:	e1 e0       	ldi	r30, 0x01	; 1
    1e36:	83 01       	movw	r16, r6
    1e38:	ee 12       	cpse	r14, r30
    1e3a:	02 c0       	rjmp	.+4      	; 0x1e40 <tft_drawCharGL+0x20a>
    1e3c:	a3 01       	movw	r20, r6
    1e3e:	bd cf       	rjmp	.-134    	; 0x1dba <tft_drawCharGL+0x184>
    1e40:	92 01       	movw	r18, r4
    1e42:	a2 01       	movw	r20, r4
    1e44:	6a 85       	ldd	r22, Y+10	; 0x0a
    1e46:	7b 85       	ldd	r23, Y+11	; 0x0b
    1e48:	c6 01       	movw	r24, r12
    1e4a:	0e 94 0a 08 	call	0x1014	; 0x1014 <tft_fillRect>
    1e4e:	bc cf       	rjmp	.-136    	; 0x1dc8 <tft_drawCharGL+0x192>

00001e50 <tft_drawChar>:
    1e50:	2f 92       	push	r2
    1e52:	3f 92       	push	r3
    1e54:	4f 92       	push	r4
    1e56:	5f 92       	push	r5
    1e58:	6f 92       	push	r6
    1e5a:	7f 92       	push	r7
    1e5c:	8f 92       	push	r8
    1e5e:	9f 92       	push	r9
    1e60:	af 92       	push	r10
    1e62:	bf 92       	push	r11
    1e64:	cf 92       	push	r12
    1e66:	df 92       	push	r13
    1e68:	ef 92       	push	r14
    1e6a:	ff 92       	push	r15
    1e6c:	0f 93       	push	r16
    1e6e:	1f 93       	push	r17
    1e70:	cf 93       	push	r28
    1e72:	df 93       	push	r29
    1e74:	00 d0       	rcall	.+0      	; 0x1e76 <tft_drawChar+0x26>
    1e76:	00 d0       	rcall	.+0      	; 0x1e78 <tft_drawChar+0x28>
    1e78:	00 d0       	rcall	.+0      	; 0x1e7a <tft_drawChar+0x2a>
    1e7a:	1f 92       	push	r1
    1e7c:	cd b7       	in	r28, 0x3d	; 61
    1e7e:	de b7       	in	r29, 0x3e	; 62
    1e80:	6b 01       	movw	r12, r22
    1e82:	5f 83       	std	Y+7, r21	; 0x07
    1e84:	4e 83       	std	Y+6, r20	; 0x06
    1e86:	e0 90 2e 04 	lds	r14, 0x042E	; 0x80042e <textsize>
    1e8a:	21 30       	cpi	r18, 0x01	; 1
    1e8c:	31 05       	cpc	r19, r1
    1e8e:	69 f5       	brne	.+90     	; 0x1eea <tft_drawChar+0x9a>
    1e90:	00 91 30 04 	lds	r16, 0x0430	; 0x800430 <textbgcolor>
    1e94:	10 91 31 04 	lds	r17, 0x0431	; 0x800431 <textbgcolor+0x1>
    1e98:	20 91 32 04 	lds	r18, 0x0432	; 0x800432 <textcolor>
    1e9c:	30 91 33 04 	lds	r19, 0x0433	; 0x800433 <textcolor+0x1>
    1ea0:	48 2f       	mov	r20, r24
    1ea2:	6e 81       	ldd	r22, Y+6	; 0x06
    1ea4:	7f 81       	ldd	r23, Y+7	; 0x07
    1ea6:	c6 01       	movw	r24, r12
    1ea8:	0e 94 1b 0e 	call	0x1c36	; 0x1c36 <tft_drawCharGL>
    1eac:	80 91 2e 04 	lds	r24, 0x042E	; 0x80042e <textsize>
    1eb0:	26 e0       	ldi	r18, 0x06	; 6
    1eb2:	82 9f       	mul	r24, r18
    1eb4:	c0 01       	movw	r24, r0
    1eb6:	11 24       	eor	r1, r1
    1eb8:	27 96       	adiw	r28, 0x07	; 7
    1eba:	0f b6       	in	r0, 0x3f	; 63
    1ebc:	f8 94       	cli
    1ebe:	de bf       	out	0x3e, r29	; 62
    1ec0:	0f be       	out	0x3f, r0	; 63
    1ec2:	cd bf       	out	0x3d, r28	; 61
    1ec4:	df 91       	pop	r29
    1ec6:	cf 91       	pop	r28
    1ec8:	1f 91       	pop	r17
    1eca:	0f 91       	pop	r16
    1ecc:	ff 90       	pop	r15
    1ece:	ef 90       	pop	r14
    1ed0:	df 90       	pop	r13
    1ed2:	cf 90       	pop	r12
    1ed4:	bf 90       	pop	r11
    1ed6:	af 90       	pop	r10
    1ed8:	9f 90       	pop	r9
    1eda:	8f 90       	pop	r8
    1edc:	7f 90       	pop	r7
    1ede:	6f 90       	pop	r6
    1ee0:	5f 90       	pop	r5
    1ee2:	4f 90       	pop	r4
    1ee4:	3f 90       	pop	r3
    1ee6:	2f 90       	pop	r2
    1ee8:	08 95       	ret
    1eea:	51 2c       	mov	r5, r1
    1eec:	41 2c       	mov	r4, r1
    1eee:	22 30       	cpi	r18, 0x02	; 2
    1ef0:	31 05       	cpc	r19, r1
    1ef2:	09 f0       	breq	.+2      	; 0x1ef6 <tft_drawChar+0xa6>
    1ef4:	67 c0       	rjmp	.+206    	; 0x1fc4 <tft_drawChar+0x174>
    1ef6:	80 97       	sbiw	r24, 0x20	; 32
    1ef8:	fc 01       	movw	r30, r24
    1efa:	ee 0f       	add	r30, r30
    1efc:	ff 1f       	adc	r31, r31
    1efe:	e7 54       	subi	r30, 0x47	; 71
    1f00:	ff 4f       	sbci	r31, 0xFF	; 255
    1f02:	a5 90       	lpm	r10, Z+
    1f04:	b4 90       	lpm	r11, Z
    1f06:	45 01       	movw	r8, r10
    1f08:	87 54       	subi	r24, 0x47	; 71
    1f0a:	98 4f       	sbci	r25, 0xF8	; 248
    1f0c:	fc 01       	movw	r30, r24
    1f0e:	f4 91       	lpm	r31, Z
    1f10:	f9 83       	std	Y+1, r31	; 0x01
    1f12:	4f 2e       	mov	r4, r31
    1f14:	51 2c       	mov	r5, r1
    1f16:	fe 9d       	mul	r31, r14
    1f18:	c0 01       	movw	r24, r0
    1f1a:	11 24       	eor	r1, r1
    1f1c:	ac 01       	movw	r20, r24
    1f1e:	46 0f       	add	r20, r22
    1f20:	57 1f       	adc	r21, r23
    1f22:	20 91 03 01 	lds	r18, 0x0103	; 0x800103 <_width>
    1f26:	30 91 04 01 	lds	r19, 0x0104	; 0x800104 <_width+0x1>
    1f2a:	42 17       	cp	r20, r18
    1f2c:	53 07       	cpc	r21, r19
    1f2e:	0c f0       	brlt	.+2      	; 0x1f32 <tft_drawChar+0xe2>
    1f30:	c3 cf       	rjmp	.-122    	; 0x1eb8 <tft_drawChar+0x68>
    1f32:	32 01       	movw	r6, r4
    1f34:	27 e0       	ldi	r18, 0x07	; 7
    1f36:	62 0e       	add	r6, r18
    1f38:	71 1c       	adc	r7, r1
    1f3a:	43 e0       	ldi	r20, 0x03	; 3
    1f3c:	75 94       	asr	r7
    1f3e:	67 94       	ror	r6
    1f40:	4a 95       	dec	r20
    1f42:	e1 f7       	brne	.-8      	; 0x1f3c <tft_drawChar+0xec>
    1f44:	20 91 32 04 	lds	r18, 0x0432	; 0x800432 <textcolor>
    1f48:	30 91 33 04 	lds	r19, 0x0433	; 0x800433 <textcolor+0x1>
    1f4c:	80 91 30 04 	lds	r24, 0x0430	; 0x800430 <textbgcolor>
    1f50:	90 91 31 04 	lds	r25, 0x0431	; 0x800431 <textbgcolor+0x1>
    1f54:	28 17       	cp	r18, r24
    1f56:	39 07       	cpc	r19, r25
    1f58:	21 f0       	breq	.+8      	; 0x1f62 <tft_drawChar+0x112>
    1f5a:	31 e0       	ldi	r19, 0x01	; 1
    1f5c:	e3 16       	cp	r14, r19
    1f5e:	09 f4       	brne	.+2      	; 0x1f62 <tft_drawChar+0x112>
    1f60:	93 c0       	rjmp	.+294    	; 0x2088 <tft_drawChar+0x238>
    1f62:	30 e1       	ldi	r19, 0x10	; 16
    1f64:	23 2e       	mov	r2, r19
    1f66:	31 2c       	mov	r3, r1
    1f68:	00 91 30 04 	lds	r16, 0x0430	; 0x800430 <textbgcolor>
    1f6c:	10 91 31 04 	lds	r17, 0x0431	; 0x800431 <textbgcolor+0x1>
    1f70:	80 91 32 04 	lds	r24, 0x0432	; 0x800432 <textcolor>
    1f74:	90 91 33 04 	lds	r25, 0x0433	; 0x800433 <textcolor+0x1>
    1f78:	80 17       	cp	r24, r16
    1f7a:	91 07       	cpc	r25, r17
    1f7c:	69 f0       	breq	.+26     	; 0x1f98 <tft_drawChar+0x148>
    1f7e:	40 91 2e 04 	lds	r20, 0x042E	; 0x80042e <textsize>
    1f82:	24 2f       	mov	r18, r20
    1f84:	30 e0       	ldi	r19, 0x00	; 0
    1f86:	89 81       	ldd	r24, Y+1	; 0x01
    1f88:	84 9f       	mul	r24, r20
    1f8a:	a0 01       	movw	r20, r0
    1f8c:	11 24       	eor	r1, r1
    1f8e:	6e 81       	ldd	r22, Y+6	; 0x06
    1f90:	7f 81       	ldd	r23, Y+7	; 0x07
    1f92:	c6 01       	movw	r24, r12
    1f94:	0e 94 0a 08 	call	0x1014	; 0x1014 <tft_fillRect>
    1f98:	b1 2c       	mov	r11, r1
    1f9a:	a1 2c       	mov	r10, r1
    1f9c:	80 91 2e 04 	lds	r24, 0x042E	; 0x80042e <textsize>
    1fa0:	90 e0       	ldi	r25, 0x00	; 0
    1fa2:	a6 14       	cp	r10, r6
    1fa4:	b7 04       	cpc	r11, r7
    1fa6:	b1 f4       	brne	.+44     	; 0x1fd4 <tft_drawChar+0x184>
    1fa8:	ee 81       	ldd	r30, Y+6	; 0x06
    1faa:	ff 81       	ldd	r31, Y+7	; 0x07
    1fac:	e8 0f       	add	r30, r24
    1fae:	f9 1f       	adc	r31, r25
    1fb0:	ff 83       	std	Y+7, r31	; 0x07
    1fb2:	ee 83       	std	Y+6, r30	; 0x06
    1fb4:	f1 e0       	ldi	r31, 0x01	; 1
    1fb6:	2f 1a       	sub	r2, r31
    1fb8:	31 08       	sbc	r3, r1
    1fba:	86 0c       	add	r8, r6
    1fbc:	97 1c       	adc	r9, r7
    1fbe:	21 14       	cp	r2, r1
    1fc0:	31 04       	cpc	r3, r1
    1fc2:	91 f6       	brne	.-92     	; 0x1f68 <tft_drawChar+0x118>
    1fc4:	20 91 2e 04 	lds	r18, 0x042E	; 0x80042e <textsize>
    1fc8:	24 9d       	mul	r18, r4
    1fca:	c0 01       	movw	r24, r0
    1fcc:	25 9d       	mul	r18, r5
    1fce:	90 0d       	add	r25, r0
    1fd0:	11 24       	eor	r1, r1
    1fd2:	72 cf       	rjmp	.-284    	; 0x1eb8 <tft_drawChar+0x68>
    1fd4:	f4 01       	movw	r30, r8
    1fd6:	ea 0d       	add	r30, r10
    1fd8:	fb 1d       	adc	r31, r11
    1fda:	e4 91       	lpm	r30, Z
    1fdc:	ee 23       	and	r30, r30
    1fde:	f1 f1       	breq	.+124    	; 0x205c <tft_drawChar+0x20c>
    1fe0:	a5 01       	movw	r20, r10
    1fe2:	23 e0       	ldi	r18, 0x03	; 3
    1fe4:	44 0f       	add	r20, r20
    1fe6:	55 1f       	adc	r21, r21
    1fe8:	2a 95       	dec	r18
    1fea:	e1 f7       	brne	.-8      	; 0x1fe4 <tft_drawChar+0x194>
    1fec:	48 9f       	mul	r20, r24
    1fee:	90 01       	movw	r18, r0
    1ff0:	49 9f       	mul	r20, r25
    1ff2:	30 0d       	add	r19, r0
    1ff4:	58 9f       	mul	r21, r24
    1ff6:	30 0d       	add	r19, r0
    1ff8:	11 24       	eor	r1, r1
    1ffa:	c9 01       	movw	r24, r18
    1ffc:	8c 0d       	add	r24, r12
    1ffe:	9d 1d       	adc	r25, r13
    2000:	9b 83       	std	Y+3, r25	; 0x03
    2002:	8a 83       	std	Y+2, r24	; 0x02
    2004:	f1 2c       	mov	r15, r1
    2006:	e1 2c       	mov	r14, r1
    2008:	2e 2f       	mov	r18, r30
    200a:	30 e0       	ldi	r19, 0x00	; 0
    200c:	3d 83       	std	Y+5, r19	; 0x05
    200e:	2c 83       	std	Y+4, r18	; 0x04
    2010:	80 e8       	ldi	r24, 0x80	; 128
    2012:	90 e0       	ldi	r25, 0x00	; 0
    2014:	0e 2c       	mov	r0, r14
    2016:	02 c0       	rjmp	.+4      	; 0x201c <tft_drawChar+0x1cc>
    2018:	95 95       	asr	r25
    201a:	87 95       	ror	r24
    201c:	0a 94       	dec	r0
    201e:	e2 f7       	brpl	.-8      	; 0x2018 <tft_drawChar+0x1c8>
    2020:	ec 81       	ldd	r30, Y+4	; 0x04
    2022:	fd 81       	ldd	r31, Y+5	; 0x05
    2024:	8e 23       	and	r24, r30
    2026:	9f 23       	and	r25, r31
    2028:	89 2b       	or	r24, r25
    202a:	89 f0       	breq	.+34     	; 0x204e <tft_drawChar+0x1fe>
    202c:	40 91 2e 04 	lds	r20, 0x042E	; 0x80042e <textsize>
    2030:	00 91 32 04 	lds	r16, 0x0432	; 0x800432 <textcolor>
    2034:	10 91 33 04 	lds	r17, 0x0433	; 0x800433 <textcolor+0x1>
    2038:	41 30       	cpi	r20, 0x01	; 1
    203a:	a1 f4       	brne	.+40     	; 0x2064 <tft_drawChar+0x214>
    203c:	a8 01       	movw	r20, r16
    203e:	6e 81       	ldd	r22, Y+6	; 0x06
    2040:	7f 81       	ldd	r23, Y+7	; 0x07
    2042:	8a 81       	ldd	r24, Y+2	; 0x02
    2044:	9b 81       	ldd	r25, Y+3	; 0x03
    2046:	8e 0d       	add	r24, r14
    2048:	9f 1d       	adc	r25, r15
    204a:	0e 94 50 08 	call	0x10a0	; 0x10a0 <tft_drawPixel>
    204e:	ff ef       	ldi	r31, 0xFF	; 255
    2050:	ef 1a       	sub	r14, r31
    2052:	ff 0a       	sbc	r15, r31
    2054:	28 e0       	ldi	r18, 0x08	; 8
    2056:	e2 16       	cp	r14, r18
    2058:	f1 04       	cpc	r15, r1
    205a:	d1 f6       	brne	.-76     	; 0x2010 <tft_drawChar+0x1c0>
    205c:	3f ef       	ldi	r19, 0xFF	; 255
    205e:	a3 1a       	sub	r10, r19
    2060:	b3 0a       	sbc	r11, r19
    2062:	9c cf       	rjmp	.-200    	; 0x1f9c <tft_drawChar+0x14c>
    2064:	50 e0       	ldi	r21, 0x00	; 0
    2066:	4e 9d       	mul	r20, r14
    2068:	c0 01       	movw	r24, r0
    206a:	4f 9d       	mul	r20, r15
    206c:	90 0d       	add	r25, r0
    206e:	5e 9d       	mul	r21, r14
    2070:	90 0d       	add	r25, r0
    2072:	11 24       	eor	r1, r1
    2074:	9a 01       	movw	r18, r20
    2076:	6e 81       	ldd	r22, Y+6	; 0x06
    2078:	7f 81       	ldd	r23, Y+7	; 0x07
    207a:	ea 81       	ldd	r30, Y+2	; 0x02
    207c:	fb 81       	ldd	r31, Y+3	; 0x03
    207e:	8e 0f       	add	r24, r30
    2080:	9f 1f       	adc	r25, r31
    2082:	0e 94 0a 08 	call	0x1014	; 0x1014 <tft_fillRect>
    2086:	e3 cf       	rjmp	.-58     	; 0x204e <tft_drawChar+0x1fe>
    2088:	2e 81       	ldd	r18, Y+6	; 0x06
    208a:	3f 81       	ldd	r19, Y+7	; 0x07
    208c:	21 5f       	subi	r18, 0xF1	; 241
    208e:	3f 4f       	sbci	r19, 0xFF	; 255
    2090:	a3 01       	movw	r20, r6
    2092:	83 e0       	ldi	r24, 0x03	; 3
    2094:	44 0f       	add	r20, r20
    2096:	55 1f       	adc	r21, r21
    2098:	8a 95       	dec	r24
    209a:	e1 f7       	brne	.-8      	; 0x2094 <tft_drawChar+0x244>
    209c:	46 0f       	add	r20, r22
    209e:	57 1f       	adc	r21, r23
    20a0:	41 50       	subi	r20, 0x01	; 1
    20a2:	51 09       	sbc	r21, r1
    20a4:	6e 81       	ldd	r22, Y+6	; 0x06
    20a6:	7f 81       	ldd	r23, Y+7	; 0x07
    20a8:	c6 01       	movw	r24, r12
    20aa:	0e 94 d2 07 	call	0xfa4	; 0xfa4 <tft_setAddressWindow>
    20ae:	f1 2c       	mov	r15, r1
    20b0:	e1 2c       	mov	r14, r1
    20b2:	10 e0       	ldi	r17, 0x00	; 0
    20b4:	00 e0       	ldi	r16, 0x00	; 0
    20b6:	90 e8       	ldi	r25, 0x80	; 128
    20b8:	89 2e       	mov	r8, r25
    20ba:	91 2c       	mov	r9, r1
    20bc:	06 15       	cp	r16, r6
    20be:	17 05       	cpc	r17, r7
    20c0:	5c f0       	brlt	.+22     	; 0x20d8 <tft_drawChar+0x288>
    20c2:	3f ef       	ldi	r19, 0xFF	; 255
    20c4:	e3 1a       	sub	r14, r19
    20c6:	f3 0a       	sbc	r15, r19
    20c8:	80 e1       	ldi	r24, 0x10	; 16
    20ca:	e8 16       	cp	r14, r24
    20cc:	f1 04       	cpc	r15, r1
    20ce:	cc f1       	brlt	.+114    	; 0x2142 <tft_drawChar+0x2f2>
    20d0:	80 e0       	ldi	r24, 0x00	; 0
    20d2:	0e 94 ab 06 	call	0xd56	; 0xd56 <tft_cmd>
    20d6:	76 cf       	rjmp	.-276    	; 0x1fc4 <tft_drawChar+0x174>
    20d8:	6e 9c       	mul	r6, r14
    20da:	f0 01       	movw	r30, r0
    20dc:	6f 9c       	mul	r6, r15
    20de:	f0 0d       	add	r31, r0
    20e0:	7e 9c       	mul	r7, r14
    20e2:	f0 0d       	add	r31, r0
    20e4:	11 24       	eor	r1, r1
    20e6:	98 01       	movw	r18, r16
    20e8:	2a 0d       	add	r18, r10
    20ea:	3b 1d       	adc	r19, r11
    20ec:	e2 0f       	add	r30, r18
    20ee:	f3 1f       	adc	r31, r19
    20f0:	e4 91       	lpm	r30, Z
    20f2:	d1 2c       	mov	r13, r1
    20f4:	c1 2c       	mov	r12, r1
    20f6:	8e 2f       	mov	r24, r30
    20f8:	90 e0       	ldi	r25, 0x00	; 0
    20fa:	9b 83       	std	Y+3, r25	; 0x03
    20fc:	8a 83       	std	Y+2, r24	; 0x02
    20fe:	c4 01       	movw	r24, r8
    2100:	0c 2c       	mov	r0, r12
    2102:	02 c0       	rjmp	.+4      	; 0x2108 <tft_drawChar+0x2b8>
    2104:	95 95       	asr	r25
    2106:	87 95       	ror	r24
    2108:	0a 94       	dec	r0
    210a:	e2 f7       	brpl	.-8      	; 0x2104 <tft_drawChar+0x2b4>
    210c:	ea 81       	ldd	r30, Y+2	; 0x02
    210e:	fb 81       	ldd	r31, Y+3	; 0x03
    2110:	8e 23       	and	r24, r30
    2112:	9f 23       	and	r25, r31
    2114:	89 2b       	or	r24, r25
    2116:	81 f0       	breq	.+32     	; 0x2138 <tft_drawChar+0x2e8>
    2118:	80 91 32 04 	lds	r24, 0x0432	; 0x800432 <textcolor>
    211c:	90 91 33 04 	lds	r25, 0x0433	; 0x800433 <textcolor+0x1>
    2120:	0e 94 b7 06 	call	0xd6e	; 0xd6e <tft_data16>
    2124:	ff ef       	ldi	r31, 0xFF	; 255
    2126:	cf 1a       	sub	r12, r31
    2128:	df 0a       	sbc	r13, r31
    212a:	28 e0       	ldi	r18, 0x08	; 8
    212c:	c2 16       	cp	r12, r18
    212e:	d1 04       	cpc	r13, r1
    2130:	31 f7       	brne	.-52     	; 0x20fe <tft_drawChar+0x2ae>
    2132:	0f 5f       	subi	r16, 0xFF	; 255
    2134:	1f 4f       	sbci	r17, 0xFF	; 255
    2136:	c2 cf       	rjmp	.-124    	; 0x20bc <tft_drawChar+0x26c>
    2138:	80 91 30 04 	lds	r24, 0x0430	; 0x800430 <textbgcolor>
    213c:	90 91 31 04 	lds	r25, 0x0431	; 0x800431 <textbgcolor+0x1>
    2140:	ef cf       	rjmp	.-34     	; 0x2120 <tft_drawChar+0x2d0>
    2142:	10 e0       	ldi	r17, 0x00	; 0
    2144:	00 e0       	ldi	r16, 0x00	; 0
    2146:	ba cf       	rjmp	.-140    	; 0x20bc <tft_drawChar+0x26c>

00002148 <tft_write>:
    2148:	cf 93       	push	r28
    214a:	df 93       	push	r29
    214c:	8d 30       	cpi	r24, 0x0D	; 13
    214e:	51 f1       	breq	.+84     	; 0x21a4 <tft_write+0x5c>
    2150:	20 91 2f 04 	lds	r18, 0x042F	; 0x80042f <textfont>
    2154:	22 30       	cpi	r18, 0x02	; 2
    2156:	59 f5       	brne	.+86     	; 0x21ae <tft_write+0x66>
    2158:	48 2f       	mov	r20, r24
    215a:	40 52       	subi	r20, 0x20	; 32
    215c:	55 0b       	sbc	r21, r21
    215e:	fa 01       	movw	r30, r20
    2160:	e7 54       	subi	r30, 0x47	; 71
    2162:	f8 4f       	sbci	r31, 0xF8	; 248
    2164:	e4 91       	lpm	r30, Z
    2166:	f0 e0       	ldi	r31, 0x00	; 0
    2168:	36 96       	adiw	r30, 0x06	; 6
    216a:	e8 7f       	andi	r30, 0xF8	; 248
    216c:	a0 e1       	ldi	r26, 0x10	; 16
    216e:	b0 e0       	ldi	r27, 0x00	; 0
    2170:	60 91 2e 04 	lds	r22, 0x042E	; 0x80042e <textsize>
    2174:	70 e0       	ldi	r23, 0x00	; 0
    2176:	6a 9f       	mul	r22, r26
    2178:	e0 01       	movw	r28, r0
    217a:	6b 9f       	mul	r22, r27
    217c:	d0 0d       	add	r29, r0
    217e:	7a 9f       	mul	r23, r26
    2180:	d0 0d       	add	r29, r0
    2182:	11 24       	eor	r1, r1
    2184:	40 91 24 04 	lds	r20, 0x0424	; 0x800424 <cursor_y>
    2188:	50 91 25 04 	lds	r21, 0x0425	; 0x800425 <cursor_y+0x1>
    218c:	8a 30       	cpi	r24, 0x0A	; 10
    218e:	d1 f4       	brne	.+52     	; 0x21c4 <tft_write+0x7c>
    2190:	4c 0f       	add	r20, r28
    2192:	5d 1f       	adc	r21, r29
    2194:	50 93 25 04 	sts	0x0425, r21	; 0x800425 <cursor_y+0x1>
    2198:	40 93 24 04 	sts	0x0424, r20	; 0x800424 <cursor_y>
    219c:	10 92 2d 04 	sts	0x042D, r1	; 0x80042d <cursor_x+0x1>
    21a0:	10 92 2c 04 	sts	0x042C, r1	; 0x80042c <cursor_x>
    21a4:	81 e0       	ldi	r24, 0x01	; 1
    21a6:	90 e0       	ldi	r25, 0x00	; 0
    21a8:	df 91       	pop	r29
    21aa:	cf 91       	pop	r28
    21ac:	08 95       	ret
    21ae:	a8 e0       	ldi	r26, 0x08	; 8
    21b0:	b0 e0       	ldi	r27, 0x00	; 0
    21b2:	e6 e0       	ldi	r30, 0x06	; 6
    21b4:	f0 e0       	ldi	r31, 0x00	; 0
    21b6:	21 30       	cpi	r18, 0x01	; 1
    21b8:	d9 f2       	breq	.-74     	; 0x2170 <tft_write+0x28>
    21ba:	b0 e0       	ldi	r27, 0x00	; 0
    21bc:	a0 e0       	ldi	r26, 0x00	; 0
    21be:	f0 e0       	ldi	r31, 0x00	; 0
    21c0:	e0 e0       	ldi	r30, 0x00	; 0
    21c2:	d6 cf       	rjmp	.-84     	; 0x2170 <tft_write+0x28>
    21c4:	90 91 00 01 	lds	r25, 0x0100	; 0x800100 <__DATA_REGION_ORIGIN__>
    21c8:	99 23       	and	r25, r25
    21ca:	f1 f0       	breq	.+60     	; 0x2208 <tft_write+0xc0>
    21cc:	6e 9f       	mul	r22, r30
    21ce:	d0 01       	movw	r26, r0
    21d0:	6f 9f       	mul	r22, r31
    21d2:	b0 0d       	add	r27, r0
    21d4:	7e 9f       	mul	r23, r30
    21d6:	b0 0d       	add	r27, r0
    21d8:	11 24       	eor	r1, r1
    21da:	60 91 2c 04 	lds	r22, 0x042C	; 0x80042c <cursor_x>
    21de:	70 91 2d 04 	lds	r23, 0x042D	; 0x80042d <cursor_x+0x1>
    21e2:	6a 0f       	add	r22, r26
    21e4:	7b 1f       	adc	r23, r27
    21e6:	e0 91 03 01 	lds	r30, 0x0103	; 0x800103 <_width>
    21ea:	f0 91 04 01 	lds	r31, 0x0104	; 0x800104 <_width+0x1>
    21ee:	6e 17       	cp	r22, r30
    21f0:	7f 07       	cpc	r23, r31
    21f2:	50 f0       	brcs	.+20     	; 0x2208 <tft_write+0xc0>
    21f4:	4c 0f       	add	r20, r28
    21f6:	5d 1f       	adc	r21, r29
    21f8:	50 93 25 04 	sts	0x0425, r21	; 0x800425 <cursor_y+0x1>
    21fc:	40 93 24 04 	sts	0x0424, r20	; 0x800424 <cursor_y>
    2200:	10 92 2d 04 	sts	0x042D, r1	; 0x80042d <cursor_x+0x1>
    2204:	10 92 2c 04 	sts	0x042C, r1	; 0x80042c <cursor_x>
    2208:	30 e0       	ldi	r19, 0x00	; 0
    220a:	40 91 24 04 	lds	r20, 0x0424	; 0x800424 <cursor_y>
    220e:	50 91 25 04 	lds	r21, 0x0425	; 0x800425 <cursor_y+0x1>
    2212:	60 91 2c 04 	lds	r22, 0x042C	; 0x80042c <cursor_x>
    2216:	70 91 2d 04 	lds	r23, 0x042D	; 0x80042d <cursor_x+0x1>
    221a:	90 e0       	ldi	r25, 0x00	; 0
    221c:	0e 94 28 0f 	call	0x1e50	; 0x1e50 <tft_drawChar>
    2220:	20 91 2c 04 	lds	r18, 0x042C	; 0x80042c <cursor_x>
    2224:	30 91 2d 04 	lds	r19, 0x042D	; 0x80042d <cursor_x+0x1>
    2228:	82 0f       	add	r24, r18
    222a:	93 1f       	adc	r25, r19
    222c:	90 93 2d 04 	sts	0x042D, r25	; 0x80042d <cursor_x+0x1>
    2230:	80 93 2c 04 	sts	0x042C, r24	; 0x80042c <cursor_x>
    2234:	b7 cf       	rjmp	.-146    	; 0x21a4 <tft_write+0x5c>

00002236 <tft_Print>:
    2236:	cf 93       	push	r28
    2238:	df 93       	push	r29
    223a:	ec 01       	movw	r28, r24
    223c:	89 91       	ld	r24, Y+
    223e:	81 11       	cpse	r24, r1
    2240:	03 c0       	rjmp	.+6      	; 0x2248 <tft_Print+0x12>
    2242:	df 91       	pop	r29
    2244:	cf 91       	pop	r28
    2246:	08 95       	ret
    2248:	0e 94 a4 10 	call	0x2148	; 0x2148 <tft_write>
    224c:	f7 cf       	rjmp	.-18     	; 0x223c <tft_Print+0x6>

0000224e <setTextFont>:
    224e:	81 11       	cpse	r24, r1
    2250:	01 c0       	rjmp	.+2      	; 0x2254 <setTextFont+0x6>
    2252:	81 e0       	ldi	r24, 0x01	; 1
    2254:	80 93 2f 04 	sts	0x042F, r24	; 0x80042f <textfont>
    2258:	08 95       	ret

0000225a <tft_drawRect>:
    225a:	af 92       	push	r10
    225c:	bf 92       	push	r11
    225e:	cf 92       	push	r12
    2260:	df 92       	push	r13
    2262:	ef 92       	push	r14
    2264:	ff 92       	push	r15
    2266:	0f 93       	push	r16
    2268:	1f 93       	push	r17
    226a:	cf 93       	push	r28
    226c:	df 93       	push	r29
    226e:	5c 01       	movw	r10, r24
    2270:	7b 01       	movw	r14, r22
    2272:	ea 01       	movw	r28, r20
    2274:	69 01       	movw	r12, r18
    2276:	98 01       	movw	r18, r16
    2278:	0e 94 73 08 	call	0x10e6	; 0x10e6 <tft_drawFastHLine>
    227c:	b7 01       	movw	r22, r14
    227e:	6c 0d       	add	r22, r12
    2280:	7d 1d       	adc	r23, r13
    2282:	61 50       	subi	r22, 0x01	; 1
    2284:	71 09       	sbc	r23, r1
    2286:	98 01       	movw	r18, r16
    2288:	ae 01       	movw	r20, r28
    228a:	c5 01       	movw	r24, r10
    228c:	0e 94 73 08 	call	0x10e6	; 0x10e6 <tft_drawFastHLine>
    2290:	98 01       	movw	r18, r16
    2292:	a6 01       	movw	r20, r12
    2294:	b7 01       	movw	r22, r14
    2296:	c5 01       	movw	r24, r10
    2298:	0e 94 8f 08 	call	0x111e	; 0x111e <tft_drawFastVLine>
    229c:	ce 01       	movw	r24, r28
    229e:	8a 0d       	add	r24, r10
    22a0:	9b 1d       	adc	r25, r11
    22a2:	98 01       	movw	r18, r16
    22a4:	a6 01       	movw	r20, r12
    22a6:	b7 01       	movw	r22, r14
    22a8:	01 97       	sbiw	r24, 0x01	; 1
    22aa:	df 91       	pop	r29
    22ac:	cf 91       	pop	r28
    22ae:	1f 91       	pop	r17
    22b0:	0f 91       	pop	r16
    22b2:	ff 90       	pop	r15
    22b4:	ef 90       	pop	r14
    22b6:	df 90       	pop	r13
    22b8:	cf 90       	pop	r12
    22ba:	bf 90       	pop	r11
    22bc:	af 90       	pop	r10
    22be:	0c 94 8f 08 	jmp	0x111e	; 0x111e <tft_drawFastVLine>

000022c2 <tft_printAt>:
    22c2:	ef 92       	push	r14
    22c4:	ff 92       	push	r15
    22c6:	0f 93       	push	r16
    22c8:	1f 93       	push	r17
    22ca:	cf 93       	push	r28
    22cc:	df 93       	push	r29
    22ce:	eb 01       	movw	r28, r22
    22d0:	7a 01       	movw	r14, r20
    22d2:	30 93 33 04 	sts	0x0433, r19	; 0x800433 <textcolor+0x1>
    22d6:	20 93 32 04 	sts	0x0432, r18	; 0x800432 <textcolor>
    22da:	10 93 31 04 	sts	0x0431, r17	; 0x800431 <textbgcolor+0x1>
    22de:	00 93 30 04 	sts	0x0430, r16	; 0x800430 <textbgcolor>
    22e2:	21 e0       	ldi	r18, 0x01	; 1
    22e4:	20 93 2e 04 	sts	0x042E, r18	; 0x80042e <textsize>
    22e8:	8c 01       	movw	r16, r24
    22ea:	f8 01       	movw	r30, r16
    22ec:	81 91       	ld	r24, Z+
    22ee:	8f 01       	movw	r16, r30
    22f0:	88 23       	and	r24, r24
    22f2:	89 f0       	breq	.+34     	; 0x2316 <tft_printAt+0x54>
    22f4:	21 e0       	ldi	r18, 0x01	; 1
    22f6:	30 e0       	ldi	r19, 0x00	; 0
    22f8:	a7 01       	movw	r20, r14
    22fa:	be 01       	movw	r22, r28
    22fc:	90 e0       	ldi	r25, 0x00	; 0
    22fe:	0e 94 28 0f 	call	0x1e50	; 0x1e50 <tft_drawChar>
    2302:	c8 0f       	add	r28, r24
    2304:	d9 1f       	adc	r29, r25
    2306:	80 91 03 01 	lds	r24, 0x0103	; 0x800103 <_width>
    230a:	90 91 04 01 	lds	r25, 0x0104	; 0x800104 <_width+0x1>
    230e:	05 97       	sbiw	r24, 0x05	; 5
    2310:	8c 17       	cp	r24, r28
    2312:	9d 07       	cpc	r25, r29
    2314:	50 f7       	brcc	.-44     	; 0x22ea <tft_printAt+0x28>
    2316:	df 91       	pop	r29
    2318:	cf 91       	pop	r28
    231a:	1f 91       	pop	r17
    231c:	0f 91       	pop	r16
    231e:	ff 90       	pop	r15
    2320:	ef 90       	pop	r14
    2322:	08 95       	ret

00002324 <tft_print_int>:
    2324:	4f 92       	push	r4
    2326:	5f 92       	push	r5
    2328:	6f 92       	push	r6
    232a:	7f 92       	push	r7
    232c:	af 92       	push	r10
    232e:	bf 92       	push	r11
    2330:	cf 92       	push	r12
    2332:	df 92       	push	r13
    2334:	ef 92       	push	r14
    2336:	ff 92       	push	r15
    2338:	1f 93       	push	r17
    233a:	cf 93       	push	r28
    233c:	df 93       	push	r29
    233e:	cd b7       	in	r28, 0x3d	; 61
    2340:	de b7       	in	r29, 0x3e	; 62
    2342:	2e 97       	sbiw	r28, 0x0e	; 14
    2344:	0f b6       	in	r0, 0x3f	; 63
    2346:	f8 94       	cli
    2348:	de bf       	out	0x3e, r29	; 62
    234a:	0f be       	out	0x3f, r0	; 63
    234c:	cd bf       	out	0x3d, r28	; 61
    234e:	6b 01       	movw	r12, r22
    2350:	7c 01       	movw	r14, r24
    2352:	c1 14       	cp	r12, r1
    2354:	d1 04       	cpc	r13, r1
    2356:	e1 04       	cpc	r14, r1
    2358:	f1 04       	cpc	r15, r1
    235a:	c1 f4       	brne	.+48     	; 0x238c <tft_print_int+0x68>
    235c:	81 e0       	ldi	r24, 0x01	; 1
    235e:	92 e0       	ldi	r25, 0x02	; 2
    2360:	0e 94 1b 11 	call	0x2236	; 0x2236 <tft_Print>
    2364:	2e 96       	adiw	r28, 0x0e	; 14
    2366:	0f b6       	in	r0, 0x3f	; 63
    2368:	f8 94       	cli
    236a:	de bf       	out	0x3e, r29	; 62
    236c:	0f be       	out	0x3f, r0	; 63
    236e:	cd bf       	out	0x3d, r28	; 61
    2370:	df 91       	pop	r29
    2372:	cf 91       	pop	r28
    2374:	1f 91       	pop	r17
    2376:	ff 90       	pop	r15
    2378:	ef 90       	pop	r14
    237a:	df 90       	pop	r13
    237c:	cf 90       	pop	r12
    237e:	bf 90       	pop	r11
    2380:	af 90       	pop	r10
    2382:	7f 90       	pop	r7
    2384:	6f 90       	pop	r6
    2386:	5f 90       	pop	r5
    2388:	4f 90       	pop	r4
    238a:	08 95       	ret
    238c:	f7 fe       	sbrs	r15, 7
    238e:	0c c0       	rjmp	.+24     	; 0x23a8 <tft_print_int+0x84>
    2390:	82 e6       	ldi	r24, 0x62	; 98
    2392:	92 e0       	ldi	r25, 0x02	; 2
    2394:	0e 94 1b 11 	call	0x2236	; 0x2236 <tft_Print>
    2398:	f0 94       	com	r15
    239a:	e0 94       	com	r14
    239c:	d0 94       	com	r13
    239e:	c0 94       	com	r12
    23a0:	c1 1c       	adc	r12, r1
    23a2:	d1 1c       	adc	r13, r1
    23a4:	e1 1c       	adc	r14, r1
    23a6:	f1 1c       	adc	r15, r1
    23a8:	a1 2c       	mov	r10, r1
    23aa:	8a e0       	ldi	r24, 0x0A	; 10
    23ac:	48 2e       	mov	r4, r24
    23ae:	51 2c       	mov	r5, r1
    23b0:	61 2c       	mov	r6, r1
    23b2:	71 2c       	mov	r7, r1
    23b4:	11 e0       	ldi	r17, 0x01	; 1
    23b6:	1a 0d       	add	r17, r10
    23b8:	81 e0       	ldi	r24, 0x01	; 1
    23ba:	90 e0       	ldi	r25, 0x00	; 0
    23bc:	8c 0f       	add	r24, r28
    23be:	9d 1f       	adc	r25, r29
    23c0:	8a 0d       	add	r24, r10
    23c2:	91 1d       	adc	r25, r1
    23c4:	5c 01       	movw	r10, r24
    23c6:	c7 01       	movw	r24, r14
    23c8:	b6 01       	movw	r22, r12
    23ca:	a3 01       	movw	r20, r6
    23cc:	92 01       	movw	r18, r4
    23ce:	0e 94 94 20 	call	0x4128	; 0x4128 <__divmodsi4>
    23d2:	60 5d       	subi	r22, 0xD0	; 208
    23d4:	f5 01       	movw	r30, r10
    23d6:	60 83       	st	Z, r22
    23d8:	69 01       	movw	r12, r18
    23da:	7a 01       	movw	r14, r20
    23dc:	a1 2e       	mov	r10, r17
    23de:	c1 14       	cp	r12, r1
    23e0:	d1 04       	cpc	r13, r1
    23e2:	e1 04       	cpc	r14, r1
    23e4:	f1 04       	cpc	r15, r1
    23e6:	31 f7       	brne	.-52     	; 0x23b4 <tft_print_int+0x90>
    23e8:	11 23       	and	r17, r17
    23ea:	09 f4       	brne	.+2      	; 0x23ee <tft_print_int+0xca>
    23ec:	bb cf       	rjmp	.-138    	; 0x2364 <tft_print_int+0x40>
    23ee:	11 50       	subi	r17, 0x01	; 1
    23f0:	e1 e0       	ldi	r30, 0x01	; 1
    23f2:	f0 e0       	ldi	r31, 0x00	; 0
    23f4:	ec 0f       	add	r30, r28
    23f6:	fd 1f       	adc	r31, r29
    23f8:	e1 0f       	add	r30, r17
    23fa:	f1 1d       	adc	r31, r1
    23fc:	80 81       	ld	r24, Z
    23fe:	8d 87       	std	Y+13, r24	; 0x0d
    2400:	1e 86       	std	Y+14, r1	; 0x0e
    2402:	ce 01       	movw	r24, r28
    2404:	0d 96       	adiw	r24, 0x0d	; 13
    2406:	0e 94 1b 11 	call	0x2236	; 0x2236 <tft_Print>
    240a:	ee cf       	rjmp	.-36     	; 0x23e8 <tft_print_int+0xc4>

0000240c <tft_print_float>:
    240c:	8f 92       	push	r8
    240e:	9f 92       	push	r9
    2410:	af 92       	push	r10
    2412:	bf 92       	push	r11
    2414:	cf 92       	push	r12
    2416:	df 92       	push	r13
    2418:	ef 92       	push	r14
    241a:	ff 92       	push	r15
    241c:	cf 93       	push	r28
    241e:	df 93       	push	r29
    2420:	6b 01       	movw	r12, r22
    2422:	7c 01       	movw	r14, r24
    2424:	d4 2f       	mov	r29, r20
    2426:	20 e0       	ldi	r18, 0x00	; 0
    2428:	30 e0       	ldi	r19, 0x00	; 0
    242a:	a9 01       	movw	r20, r18
    242c:	0e 94 5a 21 	call	0x42b4	; 0x42b4 <__cmpsf2>
    2430:	87 ff       	sbrs	r24, 7
    2432:	08 c0       	rjmp	.+16     	; 0x2444 <tft_print_float+0x38>
    2434:	82 e6       	ldi	r24, 0x62	; 98
    2436:	92 e0       	ldi	r25, 0x02	; 2
    2438:	0e 94 1b 11 	call	0x2236	; 0x2236 <tft_Print>
    243c:	f7 fa       	bst	r15, 7
    243e:	f0 94       	com	r15
    2440:	f7 f8       	bld	r15, 7
    2442:	f0 94       	com	r15
    2444:	c7 01       	movw	r24, r14
    2446:	b6 01       	movw	r22, r12
    2448:	0e 94 d8 21 	call	0x43b0	; 0x43b0 <__fixunssfsi>
    244c:	4b 01       	movw	r8, r22
    244e:	5c 01       	movw	r10, r24
    2450:	0e 94 92 11 	call	0x2324	; 0x2324 <tft_print_int>
    2454:	dd 23       	and	r29, r29
    2456:	71 f1       	breq	.+92     	; 0x24b4 <tft_print_float+0xa8>
    2458:	83 e0       	ldi	r24, 0x03	; 3
    245a:	92 e0       	ldi	r25, 0x02	; 2
    245c:	0e 94 1b 11 	call	0x2236	; 0x2236 <tft_Print>
    2460:	c5 01       	movw	r24, r10
    2462:	b4 01       	movw	r22, r8
    2464:	0e 94 07 22 	call	0x440e	; 0x440e <__floatunsisf>
    2468:	9b 01       	movw	r18, r22
    246a:	ac 01       	movw	r20, r24
    246c:	c7 01       	movw	r24, r14
    246e:	b6 01       	movw	r22, r12
    2470:	0e 94 ed 20 	call	0x41da	; 0x41da <__subsf3>
    2474:	c0 e0       	ldi	r28, 0x00	; 0
    2476:	20 e0       	ldi	r18, 0x00	; 0
    2478:	30 e0       	ldi	r19, 0x00	; 0
    247a:	40 e2       	ldi	r20, 0x20	; 32
    247c:	51 e4       	ldi	r21, 0x41	; 65
    247e:	0e 94 be 22 	call	0x457c	; 0x457c <__mulsf3>
    2482:	4b 01       	movw	r8, r22
    2484:	5c 01       	movw	r10, r24
    2486:	0e 94 d8 21 	call	0x43b0	; 0x43b0 <__fixunssfsi>
    248a:	c6 2e       	mov	r12, r22
    248c:	d1 2c       	mov	r13, r1
    248e:	f1 2c       	mov	r15, r1
    2490:	e1 2c       	mov	r14, r1
    2492:	c7 01       	movw	r24, r14
    2494:	b6 01       	movw	r22, r12
    2496:	0e 94 92 11 	call	0x2324	; 0x2324 <tft_print_int>
    249a:	c7 01       	movw	r24, r14
    249c:	b6 01       	movw	r22, r12
    249e:	0e 94 07 22 	call	0x440e	; 0x440e <__floatunsisf>
    24a2:	9b 01       	movw	r18, r22
    24a4:	ac 01       	movw	r20, r24
    24a6:	c5 01       	movw	r24, r10
    24a8:	b4 01       	movw	r22, r8
    24aa:	0e 94 ed 20 	call	0x41da	; 0x41da <__subsf3>
    24ae:	cf 5f       	subi	r28, 0xFF	; 255
    24b0:	dc 13       	cpse	r29, r28
    24b2:	e1 cf       	rjmp	.-62     	; 0x2476 <tft_print_float+0x6a>
    24b4:	df 91       	pop	r29
    24b6:	cf 91       	pop	r28
    24b8:	ff 90       	pop	r15
    24ba:	ef 90       	pop	r14
    24bc:	df 90       	pop	r13
    24be:	cf 90       	pop	r12
    24c0:	bf 90       	pop	r11
    24c2:	af 90       	pop	r10
    24c4:	9f 90       	pop	r9
    24c6:	8f 90       	pop	r8
    24c8:	08 95       	ret

000024ca <uart_init>:
    24ca:	9b 01       	movw	r18, r22
    24cc:	ac 01       	movw	r20, r24
    24ce:	84 e0       	ldi	r24, 0x04	; 4
    24d0:	22 0f       	add	r18, r18
    24d2:	33 1f       	adc	r19, r19
    24d4:	44 1f       	adc	r20, r20
    24d6:	55 1f       	adc	r21, r21
    24d8:	8a 95       	dec	r24
    24da:	d1 f7       	brne	.-12     	; 0x24d0 <uart_init+0x6>
    24dc:	60 e0       	ldi	r22, 0x00	; 0
    24de:	7a e5       	ldi	r23, 0x5A	; 90
    24e0:	82 e6       	ldi	r24, 0x62	; 98
    24e2:	92 e0       	ldi	r25, 0x02	; 2
    24e4:	0e 94 72 20 	call	0x40e4	; 0x40e4 <__udivmodsi4>
    24e8:	21 50       	subi	r18, 0x01	; 1
    24ea:	31 09       	sbc	r19, r1
    24ec:	30 93 90 00 	sts	0x0090, r19	; 0x800090 <__TEXT_REGION_LENGTH__+0x7e0090>
    24f0:	29 b9       	out	0x09, r18	; 9
    24f2:	88 e1       	ldi	r24, 0x18	; 24
    24f4:	8a b9       	out	0x0a, r24	; 10
    24f6:	86 e0       	ldi	r24, 0x06	; 6
    24f8:	80 93 95 00 	sts	0x0095, r24	; 0x800095 <__TEXT_REGION_LENGTH__+0x7e0095>
    24fc:	08 95       	ret

000024fe <uart_tx>:
    24fe:	5d 9b       	sbis	0x0b, 5	; 11
    2500:	fe cf       	rjmp	.-4      	; 0x24fe <uart_tx>
    2502:	8c b9       	out	0x0c, r24	; 12
    2504:	08 95       	ret

00002506 <uart_print>:
    2506:	cf 93       	push	r28
    2508:	df 93       	push	r29
    250a:	ec 01       	movw	r28, r24
    250c:	89 91       	ld	r24, Y+
    250e:	81 11       	cpse	r24, r1
    2510:	03 c0       	rjmp	.+6      	; 0x2518 <uart_print+0x12>
    2512:	df 91       	pop	r29
    2514:	cf 91       	pop	r28
    2516:	08 95       	ret
    2518:	0e 94 7f 12 	call	0x24fe	; 0x24fe <uart_tx>
    251c:	f7 cf       	rjmp	.-18     	; 0x250c <uart_print+0x6>

0000251e <uart_putc>:
    251e:	0c 94 7f 12 	jmp	0x24fe	; 0x24fe <uart_tx>

00002522 <uart_print_hex16>:
    2522:	0f 93       	push	r16
    2524:	1f 93       	push	r17
    2526:	cf 93       	push	r28
    2528:	df 93       	push	r29
    252a:	cd b7       	in	r28, 0x3d	; 61
    252c:	de b7       	in	r29, 0x3e	; 62
    252e:	61 97       	sbiw	r28, 0x11	; 17
    2530:	0f b6       	in	r0, 0x3f	; 63
    2532:	f8 94       	cli
    2534:	de bf       	out	0x3e, r29	; 62
    2536:	0f be       	out	0x3f, r0	; 63
    2538:	cd bf       	out	0x3d, r28	; 61
    253a:	8c 01       	movw	r16, r24
    253c:	81 e1       	ldi	r24, 0x11	; 17
    253e:	e5 e0       	ldi	r30, 0x05	; 5
    2540:	f2 e0       	ldi	r31, 0x02	; 2
    2542:	de 01       	movw	r26, r28
    2544:	11 96       	adiw	r26, 0x01	; 1
    2546:	01 90       	ld	r0, Z+
    2548:	0d 92       	st	X+, r0
    254a:	8a 95       	dec	r24
    254c:	e1 f7       	brne	.-8      	; 0x2546 <uart_print_hex16+0x24>
    254e:	f8 01       	movw	r30, r16
    2550:	ef 2f       	mov	r30, r31
    2552:	ff 27       	eor	r31, r31
    2554:	e2 95       	swap	r30
    2556:	ef 70       	andi	r30, 0x0F	; 15
    2558:	81 e0       	ldi	r24, 0x01	; 1
    255a:	90 e0       	ldi	r25, 0x00	; 0
    255c:	8c 0f       	add	r24, r28
    255e:	9d 1f       	adc	r25, r29
    2560:	e8 0f       	add	r30, r24
    2562:	f9 1f       	adc	r31, r25
    2564:	80 81       	ld	r24, Z
    2566:	0e 94 7f 12 	call	0x24fe	; 0x24fe <uart_tx>
    256a:	e1 2f       	mov	r30, r17
    256c:	ff 27       	eor	r31, r31
    256e:	ef 70       	andi	r30, 0x0F	; 15
    2570:	ff 27       	eor	r31, r31
    2572:	81 e0       	ldi	r24, 0x01	; 1
    2574:	90 e0       	ldi	r25, 0x00	; 0
    2576:	8c 0f       	add	r24, r28
    2578:	9d 1f       	adc	r25, r29
    257a:	e8 0f       	add	r30, r24
    257c:	f9 1f       	adc	r31, r25
    257e:	80 81       	ld	r24, Z
    2580:	0e 94 7f 12 	call	0x24fe	; 0x24fe <uart_tx>
    2584:	f8 01       	movw	r30, r16
    2586:	24 e0       	ldi	r18, 0x04	; 4
    2588:	f6 95       	lsr	r31
    258a:	e7 95       	ror	r30
    258c:	2a 95       	dec	r18
    258e:	e1 f7       	brne	.-8      	; 0x2588 <uart_print_hex16+0x66>
    2590:	ef 70       	andi	r30, 0x0F	; 15
    2592:	ff 27       	eor	r31, r31
    2594:	81 e0       	ldi	r24, 0x01	; 1
    2596:	90 e0       	ldi	r25, 0x00	; 0
    2598:	8c 0f       	add	r24, r28
    259a:	9d 1f       	adc	r25, r29
    259c:	e8 0f       	add	r30, r24
    259e:	f9 1f       	adc	r31, r25
    25a0:	80 81       	ld	r24, Z
    25a2:	0e 94 7f 12 	call	0x24fe	; 0x24fe <uart_tx>
    25a6:	f8 01       	movw	r30, r16
    25a8:	ef 70       	andi	r30, 0x0F	; 15
    25aa:	ff 27       	eor	r31, r31
    25ac:	81 e0       	ldi	r24, 0x01	; 1
    25ae:	90 e0       	ldi	r25, 0x00	; 0
    25b0:	8c 0f       	add	r24, r28
    25b2:	9d 1f       	adc	r25, r29
    25b4:	e8 0f       	add	r30, r24
    25b6:	f9 1f       	adc	r31, r25
    25b8:	80 81       	ld	r24, Z
    25ba:	61 96       	adiw	r28, 0x11	; 17
    25bc:	0f b6       	in	r0, 0x3f	; 63
    25be:	f8 94       	cli
    25c0:	de bf       	out	0x3e, r29	; 62
    25c2:	0f be       	out	0x3f, r0	; 63
    25c4:	cd bf       	out	0x3d, r28	; 61
    25c6:	df 91       	pop	r29
    25c8:	cf 91       	pop	r28
    25ca:	1f 91       	pop	r17
    25cc:	0f 91       	pop	r16
    25ce:	0c 94 7f 12 	jmp	0x24fe	; 0x24fe <uart_tx>

000025d2 <uart_print_int16>:
    25d2:	ff 92       	push	r15
    25d4:	0f 93       	push	r16
    25d6:	1f 93       	push	r17
    25d8:	cf 93       	push	r28
    25da:	df 93       	push	r29
    25dc:	00 d0       	rcall	.+0      	; 0x25de <uart_print_int16+0xc>
    25de:	00 d0       	rcall	.+0      	; 0x25e0 <uart_print_int16+0xe>
    25e0:	00 d0       	rcall	.+0      	; 0x25e2 <uart_print_int16+0x10>
    25e2:	1f 92       	push	r1
    25e4:	cd b7       	in	r28, 0x3d	; 61
    25e6:	de b7       	in	r29, 0x3e	; 62
    25e8:	8c 01       	movw	r16, r24
    25ea:	97 ff       	sbrs	r25, 7
    25ec:	06 c0       	rjmp	.+12     	; 0x25fa <uart_print_int16+0x28>
    25ee:	8d e2       	ldi	r24, 0x2D	; 45
    25f0:	0e 94 7f 12 	call	0x24fe	; 0x24fe <uart_tx>
    25f4:	11 95       	neg	r17
    25f6:	01 95       	neg	r16
    25f8:	11 09       	sbc	r17, r1
    25fa:	e0 e0       	ldi	r30, 0x00	; 0
    25fc:	2a e0       	ldi	r18, 0x0A	; 10
    25fe:	30 e0       	ldi	r19, 0x00	; 0
    2600:	ff 24       	eor	r15, r15
    2602:	f3 94       	inc	r15
    2604:	fe 0e       	add	r15, r30
    2606:	81 e0       	ldi	r24, 0x01	; 1
    2608:	90 e0       	ldi	r25, 0x00	; 0
    260a:	8c 0f       	add	r24, r28
    260c:	9d 1f       	adc	r25, r29
    260e:	8e 0f       	add	r24, r30
    2610:	91 1d       	adc	r25, r1
    2612:	fc 01       	movw	r30, r24
    2614:	c8 01       	movw	r24, r16
    2616:	b9 01       	movw	r22, r18
    2618:	0e 94 5e 20 	call	0x40bc	; 0x40bc <__divmodhi4>
    261c:	80 5d       	subi	r24, 0xD0	; 208
    261e:	80 83       	st	Z, r24
    2620:	8b 01       	movw	r16, r22
    2622:	ef 2d       	mov	r30, r15
    2624:	67 2b       	or	r22, r23
    2626:	61 f7       	brne	.-40     	; 0x2600 <uart_print_int16+0x2e>
    2628:	fa 94       	dec	r15
    262a:	9f ef       	ldi	r25, 0xFF	; 255
    262c:	f9 12       	cpse	r15, r25
    262e:	0c c0       	rjmp	.+24     	; 0x2648 <uart_print_int16+0x76>
    2630:	27 96       	adiw	r28, 0x07	; 7
    2632:	0f b6       	in	r0, 0x3f	; 63
    2634:	f8 94       	cli
    2636:	de bf       	out	0x3e, r29	; 62
    2638:	0f be       	out	0x3f, r0	; 63
    263a:	cd bf       	out	0x3d, r28	; 61
    263c:	df 91       	pop	r29
    263e:	cf 91       	pop	r28
    2640:	1f 91       	pop	r17
    2642:	0f 91       	pop	r16
    2644:	ff 90       	pop	r15
    2646:	08 95       	ret
    2648:	e1 e0       	ldi	r30, 0x01	; 1
    264a:	f0 e0       	ldi	r31, 0x00	; 0
    264c:	ec 0f       	add	r30, r28
    264e:	fd 1f       	adc	r31, r29
    2650:	ef 0d       	add	r30, r15
    2652:	f1 1d       	adc	r31, r1
    2654:	80 81       	ld	r24, Z
    2656:	0e 94 7f 12 	call	0x24fe	; 0x24fe <uart_tx>
    265a:	e6 cf       	rjmp	.-52     	; 0x2628 <uart_print_int16+0x56>

0000265c <uart_print_hex>:
    265c:	1f 93       	push	r17
    265e:	cf 93       	push	r28
    2660:	df 93       	push	r29
    2662:	cd b7       	in	r28, 0x3d	; 61
    2664:	de b7       	in	r29, 0x3e	; 62
    2666:	61 97       	sbiw	r28, 0x11	; 17
    2668:	0f b6       	in	r0, 0x3f	; 63
    266a:	f8 94       	cli
    266c:	de bf       	out	0x3e, r29	; 62
    266e:	0f be       	out	0x3f, r0	; 63
    2670:	cd bf       	out	0x3d, r28	; 61
    2672:	18 2f       	mov	r17, r24
    2674:	81 e1       	ldi	r24, 0x11	; 17
    2676:	e5 e0       	ldi	r30, 0x05	; 5
    2678:	f2 e0       	ldi	r31, 0x02	; 2
    267a:	de 01       	movw	r26, r28
    267c:	11 96       	adiw	r26, 0x01	; 1
    267e:	01 90       	ld	r0, Z+
    2680:	0d 92       	st	X+, r0
    2682:	8a 95       	dec	r24
    2684:	e1 f7       	brne	.-8      	; 0x267e <uart_print_hex+0x22>
    2686:	e1 2f       	mov	r30, r17
    2688:	e2 95       	swap	r30
    268a:	ef 70       	andi	r30, 0x0F	; 15
    268c:	81 e0       	ldi	r24, 0x01	; 1
    268e:	90 e0       	ldi	r25, 0x00	; 0
    2690:	8c 0f       	add	r24, r28
    2692:	9d 1f       	adc	r25, r29
    2694:	8e 0f       	add	r24, r30
    2696:	91 1d       	adc	r25, r1
    2698:	fc 01       	movw	r30, r24
    269a:	80 81       	ld	r24, Z
    269c:	0e 94 7f 12 	call	0x24fe	; 0x24fe <uart_tx>
    26a0:	e1 2f       	mov	r30, r17
    26a2:	ef 70       	andi	r30, 0x0F	; 15
    26a4:	81 e0       	ldi	r24, 0x01	; 1
    26a6:	90 e0       	ldi	r25, 0x00	; 0
    26a8:	8c 0f       	add	r24, r28
    26aa:	9d 1f       	adc	r25, r29
    26ac:	8e 0f       	add	r24, r30
    26ae:	91 1d       	adc	r25, r1
    26b0:	fc 01       	movw	r30, r24
    26b2:	80 81       	ld	r24, Z
    26b4:	61 96       	adiw	r28, 0x11	; 17
    26b6:	0f b6       	in	r0, 0x3f	; 63
    26b8:	f8 94       	cli
    26ba:	de bf       	out	0x3e, r29	; 62
    26bc:	0f be       	out	0x3f, r0	; 63
    26be:	cd bf       	out	0x3d, r28	; 61
    26c0:	df 91       	pop	r29
    26c2:	cf 91       	pop	r28
    26c4:	1f 91       	pop	r17
    26c6:	0c 94 7f 12 	jmp	0x24fe	; 0x24fe <uart_tx>

000026ca <uart_print_uint32>:
    26ca:	8f 92       	push	r8
    26cc:	9f 92       	push	r9
    26ce:	af 92       	push	r10
    26d0:	bf 92       	push	r11
    26d2:	ef 92       	push	r14
    26d4:	ff 92       	push	r15
    26d6:	1f 93       	push	r17
    26d8:	cf 93       	push	r28
    26da:	df 93       	push	r29
    26dc:	cd b7       	in	r28, 0x3d	; 61
    26de:	de b7       	in	r29, 0x3e	; 62
    26e0:	2b 97       	sbiw	r28, 0x0b	; 11
    26e2:	0f b6       	in	r0, 0x3f	; 63
    26e4:	f8 94       	cli
    26e6:	de bf       	out	0x3e, r29	; 62
    26e8:	0f be       	out	0x3f, r0	; 63
    26ea:	cd bf       	out	0x3d, r28	; 61
    26ec:	e1 2c       	mov	r14, r1
    26ee:	2a e0       	ldi	r18, 0x0A	; 10
    26f0:	82 2e       	mov	r8, r18
    26f2:	91 2c       	mov	r9, r1
    26f4:	a1 2c       	mov	r10, r1
    26f6:	b1 2c       	mov	r11, r1
    26f8:	11 e0       	ldi	r17, 0x01	; 1
    26fa:	1e 0d       	add	r17, r14
    26fc:	21 e0       	ldi	r18, 0x01	; 1
    26fe:	30 e0       	ldi	r19, 0x00	; 0
    2700:	2c 0f       	add	r18, r28
    2702:	3d 1f       	adc	r19, r29
    2704:	2e 0d       	add	r18, r14
    2706:	31 1d       	adc	r19, r1
    2708:	79 01       	movw	r14, r18
    270a:	a5 01       	movw	r20, r10
    270c:	94 01       	movw	r18, r8
    270e:	0e 94 72 20 	call	0x40e4	; 0x40e4 <__udivmodsi4>
    2712:	60 5d       	subi	r22, 0xD0	; 208
    2714:	f7 01       	movw	r30, r14
    2716:	60 83       	st	Z, r22
    2718:	b9 01       	movw	r22, r18
    271a:	ca 01       	movw	r24, r20
    271c:	e1 2e       	mov	r14, r17
    271e:	61 15       	cp	r22, r1
    2720:	71 05       	cpc	r23, r1
    2722:	81 05       	cpc	r24, r1
    2724:	91 05       	cpc	r25, r1
    2726:	41 f7       	brne	.-48     	; 0x26f8 <uart_print_uint32+0x2e>
    2728:	11 50       	subi	r17, 0x01	; 1
    272a:	80 f4       	brcc	.+32     	; 0x274c <uart_print_uint32+0x82>
    272c:	2b 96       	adiw	r28, 0x0b	; 11
    272e:	0f b6       	in	r0, 0x3f	; 63
    2730:	f8 94       	cli
    2732:	de bf       	out	0x3e, r29	; 62
    2734:	0f be       	out	0x3f, r0	; 63
    2736:	cd bf       	out	0x3d, r28	; 61
    2738:	df 91       	pop	r29
    273a:	cf 91       	pop	r28
    273c:	1f 91       	pop	r17
    273e:	ff 90       	pop	r15
    2740:	ef 90       	pop	r14
    2742:	bf 90       	pop	r11
    2744:	af 90       	pop	r10
    2746:	9f 90       	pop	r9
    2748:	8f 90       	pop	r8
    274a:	08 95       	ret
    274c:	e1 e0       	ldi	r30, 0x01	; 1
    274e:	f0 e0       	ldi	r31, 0x00	; 0
    2750:	ec 0f       	add	r30, r28
    2752:	fd 1f       	adc	r31, r29
    2754:	e1 0f       	add	r30, r17
    2756:	f1 1d       	adc	r31, r1
    2758:	80 81       	ld	r24, Z
    275a:	0e 94 7f 12 	call	0x24fe	; 0x24fe <uart_tx>
    275e:	e4 cf       	rjmp	.-56     	; 0x2728 <uart_print_uint32+0x5e>

00002760 <uart_print_float>:
    2760:	8f 92       	push	r8
    2762:	9f 92       	push	r9
    2764:	af 92       	push	r10
    2766:	bf 92       	push	r11
    2768:	cf 92       	push	r12
    276a:	df 92       	push	r13
    276c:	ef 92       	push	r14
    276e:	ff 92       	push	r15
    2770:	cf 93       	push	r28
    2772:	df 93       	push	r29
    2774:	6b 01       	movw	r12, r22
    2776:	7c 01       	movw	r14, r24
    2778:	d4 2f       	mov	r29, r20
    277a:	20 e0       	ldi	r18, 0x00	; 0
    277c:	30 e0       	ldi	r19, 0x00	; 0
    277e:	a9 01       	movw	r20, r18
    2780:	0e 94 5a 21 	call	0x42b4	; 0x42b4 <__cmpsf2>
    2784:	87 ff       	sbrs	r24, 7
    2786:	07 c0       	rjmp	.+14     	; 0x2796 <uart_print_float+0x36>
    2788:	8d e2       	ldi	r24, 0x2D	; 45
    278a:	0e 94 7f 12 	call	0x24fe	; 0x24fe <uart_tx>
    278e:	f7 fa       	bst	r15, 7
    2790:	f0 94       	com	r15
    2792:	f7 f8       	bld	r15, 7
    2794:	f0 94       	com	r15
    2796:	c7 01       	movw	r24, r14
    2798:	b6 01       	movw	r22, r12
    279a:	0e 94 d8 21 	call	0x43b0	; 0x43b0 <__fixunssfsi>
    279e:	4b 01       	movw	r8, r22
    27a0:	5c 01       	movw	r10, r24
    27a2:	0e 94 65 13 	call	0x26ca	; 0x26ca <uart_print_uint32>
    27a6:	dd 23       	and	r29, r29
    27a8:	61 f1       	breq	.+88     	; 0x2802 <uart_print_float+0xa2>
    27aa:	8e e2       	ldi	r24, 0x2E	; 46
    27ac:	0e 94 7f 12 	call	0x24fe	; 0x24fe <uart_tx>
    27b0:	c5 01       	movw	r24, r10
    27b2:	b4 01       	movw	r22, r8
    27b4:	0e 94 07 22 	call	0x440e	; 0x440e <__floatunsisf>
    27b8:	9b 01       	movw	r18, r22
    27ba:	ac 01       	movw	r20, r24
    27bc:	c7 01       	movw	r24, r14
    27be:	b6 01       	movw	r22, r12
    27c0:	0e 94 ed 20 	call	0x41da	; 0x41da <__subsf3>
    27c4:	f1 2c       	mov	r15, r1
    27c6:	20 e0       	ldi	r18, 0x00	; 0
    27c8:	30 e0       	ldi	r19, 0x00	; 0
    27ca:	40 e2       	ldi	r20, 0x20	; 32
    27cc:	51 e4       	ldi	r21, 0x41	; 65
    27ce:	0e 94 be 22 	call	0x457c	; 0x457c <__mulsf3>
    27d2:	4b 01       	movw	r8, r22
    27d4:	5c 01       	movw	r10, r24
    27d6:	0e 94 d8 21 	call	0x43b0	; 0x43b0 <__fixunssfsi>
    27da:	c6 2f       	mov	r28, r22
    27dc:	80 e3       	ldi	r24, 0x30	; 48
    27de:	8c 0f       	add	r24, r28
    27e0:	0e 94 7f 12 	call	0x24fe	; 0x24fe <uart_tx>
    27e4:	6c 2f       	mov	r22, r28
    27e6:	70 e0       	ldi	r23, 0x00	; 0
    27e8:	90 e0       	ldi	r25, 0x00	; 0
    27ea:	80 e0       	ldi	r24, 0x00	; 0
    27ec:	0e 94 07 22 	call	0x440e	; 0x440e <__floatunsisf>
    27f0:	9b 01       	movw	r18, r22
    27f2:	ac 01       	movw	r20, r24
    27f4:	c5 01       	movw	r24, r10
    27f6:	b4 01       	movw	r22, r8
    27f8:	0e 94 ed 20 	call	0x41da	; 0x41da <__subsf3>
    27fc:	f3 94       	inc	r15
    27fe:	df 11       	cpse	r29, r15
    2800:	e2 cf       	rjmp	.-60     	; 0x27c6 <uart_print_float+0x66>
    2802:	df 91       	pop	r29
    2804:	cf 91       	pop	r28
    2806:	ff 90       	pop	r15
    2808:	ef 90       	pop	r14
    280a:	df 90       	pop	r13
    280c:	cf 90       	pop	r12
    280e:	bf 90       	pop	r11
    2810:	af 90       	pop	r10
    2812:	9f 90       	pop	r9
    2814:	8f 90       	pop	r8
    2816:	08 95       	ret

00002818 <leds_init>:
    2818:	8f ef       	ldi	r24, 0xFF	; 255
    281a:	8a bb       	out	0x1a, r24	; 26
    281c:	80 e8       	ldi	r24, 0x80	; 128
    281e:	8b bb       	out	0x1b, r24	; 27
    2820:	08 95       	ret

00002822 <leds_field_carrier_on>:
    2822:	d8 9a       	sbi	0x1b, 0	; 27
    2824:	08 95       	ret

00002826 <leds_field_carrier_off>:
    2826:	d8 98       	cbi	0x1b, 0	; 27
    2828:	08 95       	ret

0000282a <leds_field_mod_on>:
    282a:	d9 9a       	sbi	0x1b, 1	; 27
    282c:	08 95       	ret

0000282e <leds_field_mod_off>:
    282e:	d9 98       	cbi	0x1b, 1	; 27
    2830:	08 95       	ret

00002832 <leds_field_mag_on>:
    2832:	da 9a       	sbi	0x1b, 2	; 27
    2834:	08 95       	ret

00002836 <leds_field_mag_off>:
    2836:	da 98       	cbi	0x1b, 2	; 27
    2838:	08 95       	ret

0000283a <leds_field_dead_on>:
    283a:	db 9a       	sbi	0x1b, 3	; 27
    283c:	08 95       	ret

0000283e <leds_field_dead_off>:
    283e:	db 98       	cbi	0x1b, 3	; 27
    2840:	08 95       	ret

00002842 <leds_output_set>:
    2842:	08 95       	ret

00002844 <keypad_init>:
    2844:	12 ba       	out	0x12, r1	; 18
    2846:	08 95       	ret

00002848 <keypad_poll>:
    2848:	fc 01       	movw	r30, r24
    284a:	90 b3       	in	r25, 0x10	; 16
    284c:	90 ff       	sbrs	r25, 0
    284e:	09 c0       	rjmp	.+18     	; 0x2862 <keypad_poll+0x1a>
    2850:	21 b3       	in	r18, 0x11	; 17
    2852:	2f 70       	andi	r18, 0x0F	; 15
    2854:	20 83       	st	Z, r18
    2856:	96 95       	lsr	r25
    2858:	91 70       	andi	r25, 0x01	; 1
    285a:	fb 01       	movw	r30, r22
    285c:	90 83       	st	Z, r25
    285e:	81 e0       	ldi	r24, 0x01	; 1
    2860:	08 95       	ret
    2862:	80 e0       	ldi	r24, 0x00	; 0
    2864:	08 95       	ret

00002866 <encoder_get_delta>:
    2866:	8c b3       	in	r24, 0x1c	; 28
    2868:	90 91 eb 03 	lds	r25, 0x03EB	; 0x8003eb <prev.1680>
    286c:	80 93 eb 03 	sts	0x03EB, r24	; 0x8003eb <prev.1680>
    2870:	89 1b       	sub	r24, r25
    2872:	08 95       	ret

00002874 <encoder_read>:
    2874:	9d b3       	in	r25, 0x1d	; 29
    2876:	8c b3       	in	r24, 0x1c	; 28
    2878:	08 95       	ret

0000287a <update_param_32>:
    287a:	4f 92       	push	r4
    287c:	5f 92       	push	r5
    287e:	6f 92       	push	r6
    2880:	7f 92       	push	r7
    2882:	af 92       	push	r10
    2884:	bf 92       	push	r11
    2886:	cf 92       	push	r12
    2888:	df 92       	push	r13
    288a:	ef 92       	push	r14
    288c:	ff 92       	push	r15
    288e:	0f 93       	push	r16
    2890:	1f 93       	push	r17
    2892:	cf 93       	push	r28
    2894:	df 93       	push	r29
    2896:	cd b7       	in	r28, 0x3d	; 61
    2898:	de b7       	in	r29, 0x3e	; 62
    289a:	28 97       	sbiw	r28, 0x08	; 8
    289c:	0f b6       	in	r0, 0x3f	; 63
    289e:	f8 94       	cli
    28a0:	de bf       	out	0x3e, r29	; 62
    28a2:	0f be       	out	0x3f, r0	; 63
    28a4:	cd bf       	out	0x3d, r28	; 61
    28a6:	2b 01       	movw	r4, r22
    28a8:	3c 01       	movw	r6, r24
    28aa:	29 83       	std	Y+1, r18	; 0x01
    28ac:	3a 83       	std	Y+2, r19	; 0x02
    28ae:	4b 83       	std	Y+3, r20	; 0x03
    28b0:	5c 83       	std	Y+4, r21	; 0x04
    28b2:	ed 82       	std	Y+5, r14	; 0x05
    28b4:	fe 82       	std	Y+6, r15	; 0x06
    28b6:	0f 83       	std	Y+7, r16	; 0x07
    28b8:	18 87       	std	Y+8, r17	; 0x08
    28ba:	0e 94 3a 14 	call	0x2874	; 0x2874 <encoder_read>
    28be:	20 91 ec 03 	lds	r18, 0x03EC	; 0x8003ec <prev_det>
    28c2:	30 91 ed 03 	lds	r19, 0x03ED	; 0x8003ed <prev_det+0x1>
    28c6:	dc 01       	movw	r26, r24
    28c8:	a2 1b       	sub	r26, r18
    28ca:	b3 0b       	sbc	r27, r19
    28cc:	90 93 ed 03 	sts	0x03ED, r25	; 0x8003ed <prev_det+0x1>
    28d0:	80 93 ec 03 	sts	0x03EC, r24	; 0x8003ec <prev_det>
    28d4:	10 97       	sbiw	r26, 0x00	; 0
    28d6:	f1 f0       	breq	.+60     	; 0x2914 <update_param_32+0x9a>
    28d8:	a6 01       	movw	r20, r12
    28da:	95 01       	movw	r18, r10
    28dc:	0e 94 da 20 	call	0x41b4	; 0x41b4 <__mulshisi3>
    28e0:	46 0e       	add	r4, r22
    28e2:	57 1e       	adc	r5, r23
    28e4:	68 1e       	adc	r6, r24
    28e6:	79 1e       	adc	r7, r25
    28e8:	89 81       	ldd	r24, Y+1	; 0x01
    28ea:	9a 81       	ldd	r25, Y+2	; 0x02
    28ec:	ab 81       	ldd	r26, Y+3	; 0x03
    28ee:	bc 81       	ldd	r27, Y+4	; 0x04
    28f0:	48 16       	cp	r4, r24
    28f2:	59 06       	cpc	r5, r25
    28f4:	6a 06       	cpc	r6, r26
    28f6:	7b 06       	cpc	r7, r27
    28f8:	10 f4       	brcc	.+4      	; 0x28fe <update_param_32+0x84>
    28fa:	2c 01       	movw	r4, r24
    28fc:	3d 01       	movw	r6, r26
    28fe:	8d 81       	ldd	r24, Y+5	; 0x05
    2900:	9e 81       	ldd	r25, Y+6	; 0x06
    2902:	af 81       	ldd	r26, Y+7	; 0x07
    2904:	b8 85       	ldd	r27, Y+8	; 0x08
    2906:	84 15       	cp	r24, r4
    2908:	95 05       	cpc	r25, r5
    290a:	a6 05       	cpc	r26, r6
    290c:	b7 05       	cpc	r27, r7
    290e:	10 f4       	brcc	.+4      	; 0x2914 <update_param_32+0x9a>
    2910:	2c 01       	movw	r4, r24
    2912:	3d 01       	movw	r6, r26
    2914:	c3 01       	movw	r24, r6
    2916:	b2 01       	movw	r22, r4
    2918:	28 96       	adiw	r28, 0x08	; 8
    291a:	0f b6       	in	r0, 0x3f	; 63
    291c:	f8 94       	cli
    291e:	de bf       	out	0x3e, r29	; 62
    2920:	0f be       	out	0x3f, r0	; 63
    2922:	cd bf       	out	0x3d, r28	; 61
    2924:	df 91       	pop	r29
    2926:	cf 91       	pop	r28
    2928:	1f 91       	pop	r17
    292a:	0f 91       	pop	r16
    292c:	ff 90       	pop	r15
    292e:	ef 90       	pop	r14
    2930:	df 90       	pop	r13
    2932:	cf 90       	pop	r12
    2934:	bf 90       	pop	r11
    2936:	af 90       	pop	r10
    2938:	7f 90       	pop	r7
    293a:	6f 90       	pop	r6
    293c:	5f 90       	pop	r5
    293e:	4f 90       	pop	r4
    2940:	08 95       	ret

00002942 <update_param_16>:
    2942:	cf 92       	push	r12
    2944:	df 92       	push	r13
    2946:	ef 92       	push	r14
    2948:	ff 92       	push	r15
    294a:	0f 93       	push	r16
    294c:	1f 93       	push	r17
    294e:	cf 93       	push	r28
    2950:	df 93       	push	r29
    2952:	ec 01       	movw	r28, r24
    2954:	7b 01       	movw	r14, r22
    2956:	8a 01       	movw	r16, r20
    2958:	69 01       	movw	r12, r18
    295a:	0e 94 3a 14 	call	0x2874	; 0x2874 <encoder_read>
    295e:	20 91 ec 03 	lds	r18, 0x03EC	; 0x8003ec <prev_det>
    2962:	30 91 ed 03 	lds	r19, 0x03ED	; 0x8003ed <prev_det+0x1>
    2966:	ac 01       	movw	r20, r24
    2968:	42 1b       	sub	r20, r18
    296a:	53 0b       	sbc	r21, r19
    296c:	90 93 ed 03 	sts	0x03ED, r25	; 0x8003ed <prev_det+0x1>
    2970:	80 93 ec 03 	sts	0x03EC, r24	; 0x8003ec <prev_det>
    2974:	41 15       	cp	r20, r1
    2976:	51 05       	cpc	r21, r1
    2978:	89 f0       	breq	.+34     	; 0x299c <update_param_16+0x5a>
    297a:	4c 9d       	mul	r20, r12
    297c:	c0 01       	movw	r24, r0
    297e:	4d 9d       	mul	r20, r13
    2980:	90 0d       	add	r25, r0
    2982:	5c 9d       	mul	r21, r12
    2984:	90 0d       	add	r25, r0
    2986:	11 24       	eor	r1, r1
    2988:	c8 0f       	add	r28, r24
    298a:	d9 1f       	adc	r29, r25
    298c:	ce 15       	cp	r28, r14
    298e:	df 05       	cpc	r29, r15
    2990:	08 f4       	brcc	.+2      	; 0x2994 <update_param_16+0x52>
    2992:	e7 01       	movw	r28, r14
    2994:	0c 17       	cp	r16, r28
    2996:	1d 07       	cpc	r17, r29
    2998:	08 f4       	brcc	.+2      	; 0x299c <update_param_16+0x5a>
    299a:	e8 01       	movw	r28, r16
    299c:	ce 01       	movw	r24, r28
    299e:	df 91       	pop	r29
    29a0:	cf 91       	pop	r28
    29a2:	1f 91       	pop	r17
    29a4:	0f 91       	pop	r16
    29a6:	ff 90       	pop	r15
    29a8:	ef 90       	pop	r14
    29aa:	df 90       	pop	r13
    29ac:	cf 90       	pop	r12
    29ae:	08 95       	ret

000029b0 <update_param_16_signed>:
    29b0:	8f 92       	push	r8
    29b2:	9f 92       	push	r9
    29b4:	af 92       	push	r10
    29b6:	bf 92       	push	r11
    29b8:	ef 92       	push	r14
    29ba:	ff 92       	push	r15
    29bc:	0f 93       	push	r16
    29be:	1f 93       	push	r17
    29c0:	4c 01       	movw	r8, r24
    29c2:	8b 01       	movw	r16, r22
    29c4:	7a 01       	movw	r14, r20
    29c6:	59 01       	movw	r10, r18
    29c8:	0e 94 3a 14 	call	0x2874	; 0x2874 <encoder_read>
    29cc:	20 91 e9 03 	lds	r18, 0x03E9	; 0x8003e9 <prev_det_signed>
    29d0:	30 91 ea 03 	lds	r19, 0x03EA	; 0x8003ea <prev_det_signed+0x1>
    29d4:	ac 01       	movw	r20, r24
    29d6:	42 1b       	sub	r20, r18
    29d8:	53 0b       	sbc	r21, r19
    29da:	9a 01       	movw	r18, r20
    29dc:	90 93 ea 03 	sts	0x03EA, r25	; 0x8003ea <prev_det_signed+0x1>
    29e0:	80 93 e9 03 	sts	0x03E9, r24	; 0x8003e9 <prev_det_signed>
    29e4:	41 15       	cp	r20, r1
    29e6:	51 05       	cpc	r21, r1
    29e8:	21 f1       	breq	.+72     	; 0x2a32 <update_param_16_signed+0x82>
    29ea:	ca 01       	movw	r24, r20
    29ec:	44 96       	adiw	r24, 0x14	; 20
    29ee:	89 97       	sbiw	r24, 0x29	; 41
    29f0:	00 f5       	brcc	.+64     	; 0x2a32 <update_param_16_signed+0x82>
    29f2:	d5 01       	movw	r26, r10
    29f4:	0e 94 bc 20 	call	0x4178	; 0x4178 <__mulhisi3>
    29f8:	09 2c       	mov	r0, r9
    29fa:	00 0c       	add	r0, r0
    29fc:	aa 08       	sbc	r10, r10
    29fe:	bb 08       	sbc	r11, r11
    2a00:	86 0e       	add	r8, r22
    2a02:	97 1e       	adc	r9, r23
    2a04:	a8 1e       	adc	r10, r24
    2a06:	b9 1e       	adc	r11, r25
    2a08:	01 2e       	mov	r0, r17
    2a0a:	00 0c       	add	r0, r0
    2a0c:	22 0b       	sbc	r18, r18
    2a0e:	33 0b       	sbc	r19, r19
    2a10:	08 15       	cp	r16, r8
    2a12:	19 05       	cpc	r17, r9
    2a14:	2a 05       	cpc	r18, r10
    2a16:	3b 05       	cpc	r19, r11
    2a18:	14 f4       	brge	.+4      	; 0x2a1e <update_param_16_signed+0x6e>
    2a1a:	95 01       	movw	r18, r10
    2a1c:	84 01       	movw	r16, r8
    2a1e:	47 01       	movw	r8, r14
    2a20:	ff 0c       	add	r15, r15
    2a22:	aa 08       	sbc	r10, r10
    2a24:	bb 08       	sbc	r11, r11
    2a26:	08 15       	cp	r16, r8
    2a28:	19 05       	cpc	r17, r9
    2a2a:	2a 05       	cpc	r18, r10
    2a2c:	3b 05       	cpc	r19, r11
    2a2e:	0c f4       	brge	.+2      	; 0x2a32 <update_param_16_signed+0x82>
    2a30:	48 01       	movw	r8, r16
    2a32:	c4 01       	movw	r24, r8
    2a34:	1f 91       	pop	r17
    2a36:	0f 91       	pop	r16
    2a38:	ff 90       	pop	r15
    2a3a:	ef 90       	pop	r14
    2a3c:	bf 90       	pop	r11
    2a3e:	af 90       	pop	r10
    2a40:	9f 90       	pop	r9
    2a42:	8f 90       	pop	r8
    2a44:	08 95       	ret

00002a46 <update_param_8>:
    2a46:	0f 93       	push	r16
    2a48:	1f 93       	push	r17
    2a4a:	cf 93       	push	r28
    2a4c:	df 93       	push	r29
    2a4e:	c8 2f       	mov	r28, r24
    2a50:	16 2f       	mov	r17, r22
    2a52:	d4 2f       	mov	r29, r20
    2a54:	02 2f       	mov	r16, r18
    2a56:	0e 94 3a 14 	call	0x2874	; 0x2874 <encoder_read>
    2a5a:	20 91 ec 03 	lds	r18, 0x03EC	; 0x8003ec <prev_det>
    2a5e:	30 91 ed 03 	lds	r19, 0x03ED	; 0x8003ed <prev_det+0x1>
    2a62:	ac 01       	movw	r20, r24
    2a64:	42 1b       	sub	r20, r18
    2a66:	53 0b       	sbc	r21, r19
    2a68:	90 93 ed 03 	sts	0x03ED, r25	; 0x8003ed <prev_det+0x1>
    2a6c:	80 93 ec 03 	sts	0x03EC, r24	; 0x8003ec <prev_det>
    2a70:	81 e0       	ldi	r24, 0x01	; 1
    2a72:	14 16       	cp	r1, r20
    2a74:	15 06       	cpc	r1, r21
    2a76:	4c f0       	brlt	.+18     	; 0x2a8a <update_param_8+0x44>
    2a78:	8f ef       	ldi	r24, 0xFF	; 255
    2a7a:	45 2b       	or	r20, r21
    2a7c:	31 f4       	brne	.+12     	; 0x2a8a <update_param_8+0x44>
    2a7e:	8c 2f       	mov	r24, r28
    2a80:	df 91       	pop	r29
    2a82:	cf 91       	pop	r28
    2a84:	1f 91       	pop	r17
    2a86:	0f 91       	pop	r16
    2a88:	08 95       	ret
    2a8a:	08 9f       	mul	r16, r24
    2a8c:	c0 0d       	add	r28, r0
    2a8e:	11 24       	eor	r1, r1
    2a90:	8c 2f       	mov	r24, r28
    2a92:	2c 2f       	mov	r18, r28
    2a94:	cc 0f       	add	r28, r28
    2a96:	33 0b       	sbc	r19, r19
    2a98:	12 17       	cp	r17, r18
    2a9a:	13 06       	cpc	r1, r19
    2a9c:	11 f0       	breq	.+4      	; 0x2aa2 <update_param_8+0x5c>
    2a9e:	0c f0       	brlt	.+2      	; 0x2aa2 <update_param_8+0x5c>
    2aa0:	81 2f       	mov	r24, r17
    2aa2:	28 2f       	mov	r18, r24
    2aa4:	08 2e       	mov	r0, r24
    2aa6:	00 0c       	add	r0, r0
    2aa8:	33 0b       	sbc	r19, r19
    2aaa:	d2 17       	cp	r29, r18
    2aac:	13 06       	cpc	r1, r19
    2aae:	0c f4       	brge	.+2      	; 0x2ab2 <update_param_8+0x6c>
    2ab0:	8d 2f       	mov	r24, r29
    2ab2:	c8 2f       	mov	r28, r24
    2ab4:	e4 cf       	rjmp	.-56     	; 0x2a7e <update_param_8+0x38>

00002ab6 <drawMenuButton.constprop.3>:
    2ab6:	cf 92       	push	r12
    2ab8:	df 92       	push	r13
    2aba:	ef 92       	push	r14
    2abc:	ff 92       	push	r15
    2abe:	0f 93       	push	r16
    2ac0:	1f 93       	push	r17
    2ac2:	cf 93       	push	r28
    2ac4:	df 93       	push	r29
    2ac6:	6b 01       	movw	r12, r22
    2ac8:	7a 01       	movw	r14, r20
    2aca:	92 e3       	ldi	r25, 0x32	; 50
    2acc:	89 9f       	mul	r24, r25
    2ace:	e0 01       	movw	r28, r0
    2ad0:	11 24       	eor	r1, r1
    2ad2:	be 01       	movw	r22, r28
    2ad4:	67 5e       	subi	r22, 0xE7	; 231
    2ad6:	7f 4f       	sbci	r23, 0xFF	; 255
    2ad8:	8a 01       	movw	r16, r20
    2ada:	28 e2       	ldi	r18, 0x28	; 40
    2adc:	30 e0       	ldi	r19, 0x00	; 0
    2ade:	41 e4       	ldi	r20, 0x41	; 65
    2ae0:	50 e0       	ldi	r21, 0x00	; 0
    2ae2:	8a e9       	ldi	r24, 0x9A	; 154
    2ae4:	91 e0       	ldi	r25, 0x01	; 1
    2ae6:	0e 94 2d 11 	call	0x225a	; 0x225a <tft_drawRect>
    2aea:	ae 01       	movw	r20, r28
    2aec:	48 5d       	subi	r20, 0xD8	; 216
    2aee:	5f 4f       	sbci	r21, 0xFF	; 255
    2af0:	10 e0       	ldi	r17, 0x00	; 0
    2af2:	00 e0       	ldi	r16, 0x00	; 0
    2af4:	97 01       	movw	r18, r14
    2af6:	6f e9       	ldi	r22, 0x9F	; 159
    2af8:	71 e0       	ldi	r23, 0x01	; 1
    2afa:	c6 01       	movw	r24, r12
    2afc:	0e 94 61 11 	call	0x22c2	; 0x22c2 <tft_printAt>
    2b00:	df 91       	pop	r29
    2b02:	cf 91       	pop	r28
    2b04:	1f 91       	pop	r17
    2b06:	0f 91       	pop	r16
    2b08:	ff 90       	pop	r15
    2b0a:	ef 90       	pop	r14
    2b0c:	df 90       	pop	r13
    2b0e:	cf 90       	pop	r12
    2b10:	08 95       	ret

00002b12 <set_base_time>:
    2b12:	83 31       	cpi	r24, 0x13	; 19
    2b14:	08 f0       	brcs	.+2      	; 0x2b18 <set_base_time+0x6>
    2b16:	82 e1       	ldi	r24, 0x12	; 18
    2b18:	80 93 12 04 	sts	0x0412, r24	; 0x800412 <current_time_base_idx>
    2b1c:	84 bb       	out	0x14, r24	; 20
    2b1e:	08 95       	ret

00002b20 <set_trigger_level>:
    2b20:	9f 70       	andi	r25, 0x0F	; 15
    2b22:	83 bb       	out	0x13, r24	; 19
    2b24:	93 bb       	out	0x13, r25	; 19
    2b26:	13 ba       	out	0x13, r1	; 19
    2b28:	08 95       	ret

00002b2a <set_trigger_mode>:
    2b2a:	98 e0       	ldi	r25, 0x08	; 8
    2b2c:	69 9f       	mul	r22, r25
    2b2e:	90 01       	movw	r18, r0
    2b30:	11 24       	eor	r1, r1
    2b32:	28 70       	andi	r18, 0x08	; 8
    2b34:	90 e4       	ldi	r25, 0x40	; 64
    2b36:	89 9f       	mul	r24, r25
    2b38:	f0 01       	movw	r30, r0
    2b3a:	11 24       	eor	r1, r1
    2b3c:	2e 2b       	or	r18, r30
    2b3e:	41 50       	subi	r20, 0x01	; 1
    2b40:	09 f0       	breq	.+2      	; 0x2b44 <set_trigger_mode+0x1a>
    2b42:	41 e0       	ldi	r20, 0x01	; 1
    2b44:	90 e1       	ldi	r25, 0x10	; 16
    2b46:	49 9f       	mul	r20, r25
    2b48:	a0 01       	movw	r20, r0
    2b4a:	11 24       	eor	r1, r1
    2b4c:	24 2b       	or	r18, r20
    2b4e:	24 60       	ori	r18, 0x04	; 4
    2b50:	25 bb       	out	0x15, r18	; 21
    2b52:	80 93 21 04 	sts	0x0421, r24	; 0x800421 <trigger_mode>
    2b56:	60 93 20 04 	sts	0x0420, r22	; 0x800420 <trigger_slope>
    2b5a:	08 95       	ret

00002b5c <draw_trace>:
    2b5c:	2f 92       	push	r2
    2b5e:	3f 92       	push	r3
    2b60:	4f 92       	push	r4
    2b62:	5f 92       	push	r5
    2b64:	6f 92       	push	r6
    2b66:	7f 92       	push	r7
    2b68:	8f 92       	push	r8
    2b6a:	9f 92       	push	r9
    2b6c:	af 92       	push	r10
    2b6e:	bf 92       	push	r11
    2b70:	cf 92       	push	r12
    2b72:	df 92       	push	r13
    2b74:	ef 92       	push	r14
    2b76:	ff 92       	push	r15
    2b78:	0f 93       	push	r16
    2b7a:	1f 93       	push	r17
    2b7c:	cf 93       	push	r28
    2b7e:	df 93       	push	r29
    2b80:	00 d0       	rcall	.+0      	; 0x2b82 <draw_trace+0x26>
    2b82:	00 d0       	rcall	.+0      	; 0x2b84 <draw_trace+0x28>
    2b84:	1f 92       	push	r1
    2b86:	cd b7       	in	r28, 0x3d	; 61
    2b88:	de b7       	in	r29, 0x3e	; 62
    2b8a:	3c 01       	movw	r6, r24
    2b8c:	1a 01       	movw	r2, r20
    2b8e:	3a 83       	std	Y+2, r19	; 0x02
    2b90:	29 83       	std	Y+1, r18	; 0x01
    2b92:	de 2c       	mov	r13, r14
    2b94:	5b 01       	movw	r10, r22
    2b96:	91 2c       	mov	r9, r1
    2b98:	81 2c       	mov	r8, r1
    2b9a:	8c e9       	ldi	r24, 0x9C	; 156
    2b9c:	e8 2e       	mov	r14, r24
    2b9e:	ff 24       	eor	r15, r15
    2ba0:	fa 94       	dec	r15
    2ba2:	82 14       	cp	r8, r2
    2ba4:	93 04       	cpc	r9, r3
    2ba6:	c1 f4       	brne	.+48     	; 0x2bd8 <draw_trace+0x7c>
    2ba8:	0f 90       	pop	r0
    2baa:	0f 90       	pop	r0
    2bac:	0f 90       	pop	r0
    2bae:	0f 90       	pop	r0
    2bb0:	0f 90       	pop	r0
    2bb2:	df 91       	pop	r29
    2bb4:	cf 91       	pop	r28
    2bb6:	1f 91       	pop	r17
    2bb8:	0f 91       	pop	r16
    2bba:	ff 90       	pop	r15
    2bbc:	ef 90       	pop	r14
    2bbe:	df 90       	pop	r13
    2bc0:	cf 90       	pop	r12
    2bc2:	bf 90       	pop	r11
    2bc4:	af 90       	pop	r10
    2bc6:	9f 90       	pop	r9
    2bc8:	8f 90       	pop	r8
    2bca:	7f 90       	pop	r7
    2bcc:	6f 90       	pop	r6
    2bce:	5f 90       	pop	r5
    2bd0:	4f 90       	pop	r4
    2bd2:	3f 90       	pop	r3
    2bd4:	2f 90       	pop	r2
    2bd6:	08 95       	ret
    2bd8:	24 01       	movw	r4, r8
    2bda:	25 e0       	ldi	r18, 0x05	; 5
    2bdc:	42 0e       	add	r4, r18
    2bde:	51 1c       	adc	r5, r1
    2be0:	f5 01       	movw	r30, r10
    2be2:	60 81       	ld	r22, Z
    2be4:	71 81       	ldd	r23, Z+1	; 0x01
    2be6:	cb 01       	movw	r24, r22
    2be8:	4a 97       	sbiw	r24, 0x1a	; 26
    2bea:	8f 3e       	cpi	r24, 0xEF	; 239
    2bec:	91 05       	cpc	r25, r1
    2bee:	28 f4       	brcc	.+10     	; 0x2bfa <draw_trace+0x9e>
    2bf0:	50 e0       	ldi	r21, 0x00	; 0
    2bf2:	40 e0       	ldi	r20, 0x00	; 0
    2bf4:	c2 01       	movw	r24, r4
    2bf6:	0e 94 50 08 	call	0x10a0	; 0x10a0 <tft_drawPixel>
    2bfa:	cc 20       	and	r12, r12
    2bfc:	39 f1       	breq	.+78     	; 0x2c4c <draw_trace+0xf0>
    2bfe:	f3 01       	movw	r30, r6
    2c00:	e8 0d       	add	r30, r8
    2c02:	f9 1d       	adc	r31, r9
    2c04:	20 81       	ld	r18, Z
    2c06:	2b 83       	std	Y+3, r18	; 0x03
    2c08:	d1 10       	cpse	r13, r1
    2c0a:	02 c0       	rjmp	.+4      	; 0x2c10 <draw_trace+0xb4>
    2c0c:	20 95       	com	r18
    2c0e:	2b 83       	std	Y+3, r18	; 0x03
    2c10:	8b 81       	ldd	r24, Y+3	; 0x03
    2c12:	86 95       	lsr	r24
    2c14:	e9 81       	ldd	r30, Y+1	; 0x01
    2c16:	fa 81       	ldd	r31, Y+2	; 0x02
    2c18:	e8 0f       	add	r30, r24
    2c1a:	f1 1d       	adc	r31, r1
    2c1c:	fd 83       	std	Y+5, r31	; 0x05
    2c1e:	ec 83       	std	Y+4, r30	; 0x04
    2c20:	cf 01       	movw	r24, r30
    2c22:	4a 97       	sbiw	r24, 0x1a	; 26
    2c24:	8f 3e       	cpi	r24, 0xEF	; 239
    2c26:	91 05       	cpc	r25, r1
    2c28:	28 f4       	brcc	.+10     	; 0x2c34 <draw_trace+0xd8>
    2c2a:	a8 01       	movw	r20, r16
    2c2c:	bf 01       	movw	r22, r30
    2c2e:	c2 01       	movw	r24, r4
    2c30:	0e 94 50 08 	call	0x10a0	; 0x10a0 <tft_drawPixel>
    2c34:	8c 81       	ldd	r24, Y+4	; 0x04
    2c36:	9d 81       	ldd	r25, Y+5	; 0x05
    2c38:	f5 01       	movw	r30, r10
    2c3a:	91 83       	std	Z+1, r25	; 0x01
    2c3c:	80 83       	st	Z, r24
    2c3e:	ff ef       	ldi	r31, 0xFF	; 255
    2c40:	8f 1a       	sub	r8, r31
    2c42:	9f 0a       	sbc	r9, r31
    2c44:	22 e0       	ldi	r18, 0x02	; 2
    2c46:	a2 0e       	add	r10, r18
    2c48:	b1 1c       	adc	r11, r1
    2c4a:	ab cf       	rjmp	.-170    	; 0x2ba2 <draw_trace+0x46>
    2c4c:	f5 01       	movw	r30, r10
    2c4e:	f1 82       	std	Z+1, r15	; 0x01
    2c50:	e0 82       	st	Z, r14
    2c52:	f5 cf       	rjmp	.-22     	; 0x2c3e <draw_trace+0xe2>

00002c54 <osc_wait_ready>:
    2c54:	05 b6       	in	r0, 0x35	; 53
    2c56:	01 fe       	sbrs	r0, 1
    2c58:	fd cf       	rjmp	.-6      	; 0x2c54 <osc_wait_ready>
    2c5a:	08 95       	ret

00002c5c <rearm>:
    2c5c:	80 91 21 04 	lds	r24, 0x0421	; 0x800421 <trigger_mode>
    2c60:	82 30       	cpi	r24, 0x02	; 2
    2c62:	41 f4       	brne	.+16     	; 0x2c74 <rearm+0x18>
    2c64:	80 91 1b 04 	lds	r24, 0x041B	; 0x80041b <freeze>
    2c68:	88 23       	and	r24, r24
    2c6a:	21 f0       	breq	.+8      	; 0x2c74 <rearm+0x18>
    2c6c:	81 e0       	ldi	r24, 0x01	; 1
    2c6e:	85 bf       	out	0x35, r24	; 53
    2c70:	10 92 1b 04 	sts	0x041B, r1	; 0x80041b <freeze>
    2c74:	08 95       	ret

00002c76 <tft_drawGrid>:
    2c76:	af 92       	push	r10
    2c78:	bf 92       	push	r11
    2c7a:	cf 92       	push	r12
    2c7c:	df 92       	push	r13
    2c7e:	ef 92       	push	r14
    2c80:	ff 92       	push	r15
    2c82:	0f 93       	push	r16
    2c84:	1f 93       	push	r17
    2c86:	cf 93       	push	r28
    2c88:	df 93       	push	r29
    2c8a:	7c 01       	movw	r14, r24
    2c8c:	09 e1       	ldi	r16, 0x19	; 25
    2c8e:	10 e0       	ldi	r17, 0x00	; 0
    2c90:	c4 e0       	ldi	r28, 0x04	; 4
    2c92:	04 c0       	rjmp	.+8      	; 0x2c9c <tft_drawGrid+0x26>
    2c94:	01 39       	cpi	r16, 0x91	; 145
    2c96:	11 05       	cpc	r17, r1
    2c98:	d9 f7       	brne	.-10     	; 0x2c90 <tft_drawGrid+0x1a>
    2c9a:	c2 e0       	ldi	r28, 0x02	; 2
    2c9c:	d0 e0       	ldi	r29, 0x00	; 0
    2c9e:	25 e0       	ldi	r18, 0x05	; 5
    2ca0:	a2 2e       	mov	r10, r18
    2ca2:	b1 2c       	mov	r11, r1
    2ca4:	35 e0       	ldi	r19, 0x05	; 5
    2ca6:	c3 2e       	mov	r12, r19
    2ca8:	d1 2c       	mov	r13, r1
    2caa:	a7 01       	movw	r20, r14
    2cac:	b8 01       	movw	r22, r16
    2cae:	c5 01       	movw	r24, r10
    2cb0:	0e 94 50 08 	call	0x10a0	; 0x10a0 <tft_drawPixel>
    2cb4:	cc 0e       	add	r12, r28
    2cb6:	dd 1e       	adc	r13, r29
    2cb8:	ac 0e       	add	r10, r28
    2cba:	bd 1e       	adc	r11, r29
    2cbc:	86 e9       	ldi	r24, 0x96	; 150
    2cbe:	c8 16       	cp	r12, r24
    2cc0:	81 e0       	ldi	r24, 0x01	; 1
    2cc2:	d8 06       	cpc	r13, r24
    2cc4:	94 f3       	brlt	.-28     	; 0x2caa <tft_drawGrid+0x34>
    2cc6:	02 5e       	subi	r16, 0xE2	; 226
    2cc8:	1f 4f       	sbci	r17, 0xFF	; 255
    2cca:	07 32       	cpi	r16, 0x27	; 39
    2ccc:	81 e0       	ldi	r24, 0x01	; 1
    2cce:	18 07       	cpc	r17, r24
    2cd0:	09 f7       	brne	.-62     	; 0x2c94 <tft_drawGrid+0x1e>
    2cd2:	05 e0       	ldi	r16, 0x05	; 5
    2cd4:	10 e0       	ldi	r17, 0x00	; 0
    2cd6:	c4 e0       	ldi	r28, 0x04	; 4
    2cd8:	04 c0       	rjmp	.+8      	; 0x2ce2 <tft_drawGrid+0x6c>
    2cda:	0d 3c       	cpi	r16, 0xCD	; 205
    2cdc:	11 05       	cpc	r17, r1
    2cde:	d9 f7       	brne	.-10     	; 0x2cd6 <tft_drawGrid+0x60>
    2ce0:	c2 e0       	ldi	r28, 0x02	; 2
    2ce2:	d0 e0       	ldi	r29, 0x00	; 0
    2ce4:	89 e1       	ldi	r24, 0x19	; 25
    2ce6:	a8 2e       	mov	r10, r24
    2ce8:	b1 2c       	mov	r11, r1
    2cea:	99 e1       	ldi	r25, 0x19	; 25
    2cec:	c9 2e       	mov	r12, r25
    2cee:	d1 2c       	mov	r13, r1
    2cf0:	a7 01       	movw	r20, r14
    2cf2:	b5 01       	movw	r22, r10
    2cf4:	c8 01       	movw	r24, r16
    2cf6:	0e 94 50 08 	call	0x10a0	; 0x10a0 <tft_drawPixel>
    2cfa:	cc 0e       	add	r12, r28
    2cfc:	dd 1e       	adc	r13, r29
    2cfe:	ac 0e       	add	r10, r28
    2d00:	bd 1e       	adc	r11, r29
    2d02:	8a e0       	ldi	r24, 0x0A	; 10
    2d04:	c8 16       	cp	r12, r24
    2d06:	81 e0       	ldi	r24, 0x01	; 1
    2d08:	d8 06       	cpc	r13, r24
    2d0a:	94 f3       	brlt	.-28     	; 0x2cf0 <tft_drawGrid+0x7a>
    2d0c:	08 5d       	subi	r16, 0xD8	; 216
    2d0e:	1f 4f       	sbci	r17, 0xFF	; 255
    2d10:	0d 3b       	cpi	r16, 0xBD	; 189
    2d12:	81 e0       	ldi	r24, 0x01	; 1
    2d14:	18 07       	cpc	r17, r24
    2d16:	09 f7       	brne	.-62     	; 0x2cda <tft_drawGrid+0x64>
    2d18:	df 91       	pop	r29
    2d1a:	cf 91       	pop	r28
    2d1c:	1f 91       	pop	r17
    2d1e:	0f 91       	pop	r16
    2d20:	ff 90       	pop	r15
    2d22:	ef 90       	pop	r14
    2d24:	df 90       	pop	r13
    2d26:	cf 90       	pop	r12
    2d28:	bf 90       	pop	r11
    2d2a:	af 90       	pop	r10
    2d2c:	08 95       	ret

00002d2e <osc_read_triggered>:
    2d2e:	0f 93       	push	r16
    2d30:	1f 93       	push	r17
    2d32:	cf 93       	push	r28
    2d34:	df 93       	push	r29
    2d36:	d8 2f       	mov	r29, r24
    2d38:	c9 2f       	mov	r28, r25
    2d3a:	8b 01       	movw	r16, r22
    2d3c:	80 91 1b 04 	lds	r24, 0x041B	; 0x80041b <freeze>
    2d40:	88 23       	and	r24, r24
    2d42:	09 f1       	breq	.+66     	; 0x2d86 <osc_read_triggered+0x58>
    2d44:	1c be       	out	0x3c, r1	; 60
    2d46:	f8 01       	movw	r30, r16
    2d48:	ad 2f       	mov	r26, r29
    2d4a:	bc 2f       	mov	r27, r28
    2d4c:	c8 01       	movw	r24, r16
    2d4e:	80 57       	subi	r24, 0x70	; 112
    2d50:	9e 4f       	sbci	r25, 0xFE	; 254
    2d52:	24 b3       	in	r18, 0x14	; 20
    2d54:	21 93       	st	Z+, r18
    2d56:	23 b3       	in	r18, 0x13	; 19
    2d58:	2d 93       	st	X+, r18
    2d5a:	e8 17       	cp	r30, r24
    2d5c:	f9 07       	cpc	r31, r25
    2d5e:	c9 f7       	brne	.-14     	; 0x2d52 <osc_read_triggered+0x24>
    2d60:	80 91 4b 01 	lds	r24, 0x014B	; 0x80014b <is_running>
    2d64:	88 23       	and	r24, r24
    2d66:	51 f0       	breq	.+20     	; 0x2d7c <osc_read_triggered+0x4e>
    2d68:	80 91 21 04 	lds	r24, 0x0421	; 0x800421 <trigger_mode>
    2d6c:	82 30       	cpi	r24, 0x02	; 2
    2d6e:	21 f4       	brne	.+8      	; 0x2d78 <osc_read_triggered+0x4a>
    2d70:	80 91 1b 04 	lds	r24, 0x041B	; 0x80041b <freeze>
    2d74:	81 11       	cpse	r24, r1
    2d76:	02 c0       	rjmp	.+4      	; 0x2d7c <osc_read_triggered+0x4e>
    2d78:	81 e0       	ldi	r24, 0x01	; 1
    2d7a:	85 bf       	out	0x35, r24	; 53
    2d7c:	df 91       	pop	r29
    2d7e:	cf 91       	pop	r28
    2d80:	1f 91       	pop	r17
    2d82:	0f 91       	pop	r16
    2d84:	08 95       	ret
    2d86:	0e 94 2a 16 	call	0x2c54	; 0x2c54 <osc_wait_ready>
    2d8a:	80 91 21 04 	lds	r24, 0x0421	; 0x800421 <trigger_mode>
    2d8e:	82 30       	cpi	r24, 0x02	; 2
    2d90:	c9 f6       	brne	.-78     	; 0x2d44 <osc_read_triggered+0x16>
    2d92:	81 e0       	ldi	r24, 0x01	; 1
    2d94:	80 93 1b 04 	sts	0x041B, r24	; 0x80041b <freeze>
    2d98:	d5 cf       	rjmp	.-86     	; 0x2d44 <osc_read_triggered+0x16>

00002d9a <drawPanTrack>:
    2d9a:	8f 92       	push	r8
    2d9c:	9f 92       	push	r9
    2d9e:	af 92       	push	r10
    2da0:	bf 92       	push	r11
    2da2:	cf 92       	push	r12
    2da4:	df 92       	push	r13
    2da6:	ef 92       	push	r14
    2da8:	ff 92       	push	r15
    2daa:	0f 93       	push	r16
    2dac:	1f 93       	push	r17
    2dae:	cf 93       	push	r28
    2db0:	df 93       	push	r29
    2db2:	80 91 1e 04 	lds	r24, 0x041E	; 0x80041e <view_offset>
    2db6:	90 91 1f 04 	lds	r25, 0x041F	; 0x80041f <view_offset+0x1>
    2dba:	cd ec       	ldi	r28, 0xCD	; 205
    2dbc:	d0 e0       	ldi	r29, 0x00	; 0
    2dbe:	c8 1b       	sub	r28, r24
    2dc0:	d9 0b       	sbc	r29, r25
    2dc2:	28 ec       	ldi	r18, 0xC8	; 200
    2dc4:	30 e0       	ldi	r19, 0x00	; 0
    2dc6:	49 01       	movw	r8, r18
    2dc8:	88 1a       	sub	r8, r24
    2dca:	99 0a       	sbc	r9, r25
    2dcc:	22 ed       	ldi	r18, 0xD2	; 210
    2dce:	30 e0       	ldi	r19, 0x00	; 0
    2dd0:	59 01       	movw	r10, r18
    2dd2:	a8 1a       	sub	r10, r24
    2dd4:	b9 0a       	sbc	r11, r25
    2dd6:	80 91 1a 04 	lds	r24, 0x041A	; 0x80041a <pan_flag>
    2dda:	88 23       	and	r24, r24
    2ddc:	c1 f1       	breq	.+112    	; 0x2e4e <drawPanTrack+0xb4>
    2dde:	e0 90 06 04 	lds	r14, 0x0406	; 0x800406 <old_c>
    2de2:	f0 90 07 04 	lds	r15, 0x0407	; 0x800407 <old_c+0x1>
    2de6:	00 91 08 04 	lds	r16, 0x0408	; 0x800408 <old_c+0x2>
    2dea:	10 91 09 04 	lds	r17, 0x0409	; 0x800409 <old_c+0x3>
    2dee:	20 91 0a 04 	lds	r18, 0x040A	; 0x80040a <old_b>
    2df2:	30 91 0b 04 	lds	r19, 0x040B	; 0x80040b <old_b+0x1>
    2df6:	40 91 0c 04 	lds	r20, 0x040C	; 0x80040c <old_b+0x2>
    2dfa:	50 91 0d 04 	lds	r21, 0x040D	; 0x80040d <old_b+0x3>
    2dfe:	60 91 0e 04 	lds	r22, 0x040E	; 0x80040e <old_a>
    2e02:	70 91 0f 04 	lds	r23, 0x040F	; 0x80040f <old_a+0x1>
    2e06:	80 91 10 04 	lds	r24, 0x0410	; 0x800410 <old_a+0x2>
    2e0a:	90 91 11 04 	lds	r25, 0x0411	; 0x800411 <old_a+0x3>
    2e0e:	d1 2c       	mov	r13, r1
    2e10:	c1 2c       	mov	r12, r1
    2e12:	0e 94 4c 0b 	call	0x1698	; 0x1698 <tft_FillTriangle>
    2e16:	90 92 0f 04 	sts	0x040F, r9	; 0x80040f <old_a+0x1>
    2e1a:	80 92 0e 04 	sts	0x040E, r8	; 0x80040e <old_a>
    2e1e:	89 e1       	ldi	r24, 0x19	; 25
    2e20:	90 e0       	ldi	r25, 0x00	; 0
    2e22:	90 93 11 04 	sts	0x0411, r25	; 0x800411 <old_a+0x3>
    2e26:	80 93 10 04 	sts	0x0410, r24	; 0x800410 <old_a+0x2>
    2e2a:	b0 92 0b 04 	sts	0x040B, r11	; 0x80040b <old_b+0x1>
    2e2e:	a0 92 0a 04 	sts	0x040A, r10	; 0x80040a <old_b>
    2e32:	90 93 0d 04 	sts	0x040D, r25	; 0x80040d <old_b+0x3>
    2e36:	80 93 0c 04 	sts	0x040C, r24	; 0x80040c <old_b+0x2>
    2e3a:	d0 93 07 04 	sts	0x0407, r29	; 0x800407 <old_c+0x1>
    2e3e:	c0 93 06 04 	sts	0x0406, r28	; 0x800406 <old_c>
    2e42:	88 e2       	ldi	r24, 0x28	; 40
    2e44:	90 e0       	ldi	r25, 0x00	; 0
    2e46:	90 93 09 04 	sts	0x0409, r25	; 0x800409 <old_c+0x3>
    2e4a:	80 93 08 04 	sts	0x0408, r24	; 0x800408 <old_c+0x2>
    2e4e:	b4 01       	movw	r22, r8
    2e50:	89 e1       	ldi	r24, 0x19	; 25
    2e52:	90 e0       	ldi	r25, 0x00	; 0
    2e54:	95 01       	movw	r18, r10
    2e56:	49 e1       	ldi	r20, 0x19	; 25
    2e58:	50 e0       	ldi	r21, 0x00	; 0
    2e5a:	7e 01       	movw	r14, r28
    2e5c:	08 e2       	ldi	r16, 0x28	; 40
    2e5e:	10 e0       	ldi	r17, 0x00	; 0
    2e60:	cc 24       	eor	r12, r12
    2e62:	ca 94       	dec	r12
    2e64:	dc 2c       	mov	r13, r12
    2e66:	0e 94 4c 0b 	call	0x1698	; 0x1698 <tft_FillTriangle>
    2e6a:	df 91       	pop	r29
    2e6c:	cf 91       	pop	r28
    2e6e:	1f 91       	pop	r17
    2e70:	0f 91       	pop	r16
    2e72:	ff 90       	pop	r15
    2e74:	ef 90       	pop	r14
    2e76:	df 90       	pop	r13
    2e78:	cf 90       	pop	r12
    2e7a:	bf 90       	pop	r11
    2e7c:	af 90       	pop	r10
    2e7e:	9f 90       	pop	r9
    2e80:	8f 90       	pop	r8
    2e82:	08 95       	ret

00002e84 <draw_ground_marker>:
    2e84:	8f 92       	push	r8
    2e86:	9f 92       	push	r9
    2e88:	af 92       	push	r10
    2e8a:	bf 92       	push	r11
    2e8c:	cf 92       	push	r12
    2e8e:	df 92       	push	r13
    2e90:	ef 92       	push	r14
    2e92:	ff 92       	push	r15
    2e94:	0f 93       	push	r16
    2e96:	1f 93       	push	r17
    2e98:	cf 93       	push	r28
    2e9a:	df 93       	push	r29
    2e9c:	4b 01       	movw	r8, r22
    2e9e:	c8 2f       	mov	r28, r24
    2ea0:	d0 e0       	ldi	r29, 0x00	; 0
    2ea2:	ce 01       	movw	r24, r28
    2ea4:	88 0f       	add	r24, r24
    2ea6:	99 1f       	adc	r25, r25
    2ea8:	fc 01       	movw	r30, r24
    2eaa:	ea 5a       	subi	r30, 0xAA	; 170
    2eac:	fe 4f       	sbci	r31, 0xFE	; 254
    2eae:	20 81       	ld	r18, Z
    2eb0:	31 81       	ldd	r19, Z+1	; 0x01
    2eb2:	59 01       	movw	r10, r18
    2eb4:	40 e4       	ldi	r20, 0x40	; 64
    2eb6:	a4 0e       	add	r10, r20
    2eb8:	b1 1c       	adc	r11, r1
    2eba:	85 58       	subi	r24, 0x85	; 133
    2ebc:	95 4f       	sbci	r25, 0xF5	; 245
    2ebe:	fc 01       	movw	r30, r24
    2ec0:	80 81       	ld	r24, Z
    2ec2:	91 81       	ldd	r25, Z+1	; 0x01
    2ec4:	cc 0f       	add	r28, r28
    2ec6:	dd 1f       	adc	r29, r29
    2ec8:	cc 0f       	add	r28, r28
    2eca:	dd 1f       	adc	r29, r29
    2ecc:	28 17       	cp	r18, r24
    2ece:	39 07       	cpc	r19, r25
    2ed0:	c9 f0       	breq	.+50     	; 0x2f04 <draw_ground_marker+0x80>
    2ed2:	fe 01       	movw	r30, r28
    2ed4:	e2 51       	subi	r30, 0x12	; 18
    2ed6:	fc 4f       	sbci	r31, 0xFC	; 252
    2ed8:	e0 80       	ld	r14, Z
    2eda:	f1 80       	ldd	r15, Z+1	; 0x01
    2edc:	02 81       	ldd	r16, Z+2	; 0x02
    2ede:	13 81       	ldd	r17, Z+3	; 0x03
    2ee0:	fe 01       	movw	r30, r28
    2ee2:	ea 50       	subi	r30, 0x0A	; 10
    2ee4:	fc 4f       	sbci	r31, 0xFC	; 252
    2ee6:	20 81       	ld	r18, Z
    2ee8:	31 81       	ldd	r19, Z+1	; 0x01
    2eea:	42 81       	ldd	r20, Z+2	; 0x02
    2eec:	53 81       	ldd	r21, Z+3	; 0x03
    2eee:	fe 01       	movw	r30, r28
    2ef0:	e2 50       	subi	r30, 0x02	; 2
    2ef2:	fc 4f       	sbci	r31, 0xFC	; 252
    2ef4:	60 81       	ld	r22, Z
    2ef6:	71 81       	ldd	r23, Z+1	; 0x01
    2ef8:	82 81       	ldd	r24, Z+2	; 0x02
    2efa:	93 81       	ldd	r25, Z+3	; 0x03
    2efc:	d1 2c       	mov	r13, r1
    2efe:	c1 2c       	mov	r12, r1
    2f00:	0e 94 4c 0b 	call	0x1698	; 0x1698 <tft_FillTriangle>
    2f04:	fe 01       	movw	r30, r28
    2f06:	e2 50       	subi	r30, 0x02	; 2
    2f08:	fc 4f       	sbci	r31, 0xFC	; 252
    2f0a:	85 e0       	ldi	r24, 0x05	; 5
    2f0c:	90 e0       	ldi	r25, 0x00	; 0
    2f0e:	91 83       	std	Z+1, r25	; 0x01
    2f10:	80 83       	st	Z, r24
    2f12:	95 01       	movw	r18, r10
    2f14:	25 50       	subi	r18, 0x05	; 5
    2f16:	31 09       	sbc	r19, r1
    2f18:	33 83       	std	Z+3, r19	; 0x03
    2f1a:	22 83       	std	Z+2, r18	; 0x02
    2f1c:	de 01       	movw	r26, r28
    2f1e:	aa 50       	subi	r26, 0x0A	; 10
    2f20:	bc 4f       	sbci	r27, 0xFC	; 252
    2f22:	11 96       	adiw	r26, 0x01	; 1
    2f24:	9c 93       	st	X, r25
    2f26:	8e 93       	st	-X, r24
    2f28:	c5 01       	movw	r24, r10
    2f2a:	05 96       	adiw	r24, 0x05	; 5
    2f2c:	13 96       	adiw	r26, 0x03	; 3
    2f2e:	9c 93       	st	X, r25
    2f30:	8e 93       	st	-X, r24
    2f32:	12 97       	sbiw	r26, 0x02	; 2
    2f34:	c2 51       	subi	r28, 0x12	; 18
    2f36:	dc 4f       	sbci	r29, 0xFC	; 252
    2f38:	8d e0       	ldi	r24, 0x0D	; 13
    2f3a:	90 e0       	ldi	r25, 0x00	; 0
    2f3c:	99 83       	std	Y+1, r25	; 0x01
    2f3e:	88 83       	st	Y, r24
    2f40:	bb 82       	std	Y+3, r11	; 0x03
    2f42:	aa 82       	std	Y+2, r10	; 0x02
    2f44:	e8 80       	ld	r14, Y
    2f46:	f9 80       	ldd	r15, Y+1	; 0x01
    2f48:	0a 81       	ldd	r16, Y+2	; 0x02
    2f4a:	1b 81       	ldd	r17, Y+3	; 0x03
    2f4c:	2d 91       	ld	r18, X+
    2f4e:	3d 91       	ld	r19, X+
    2f50:	4d 91       	ld	r20, X+
    2f52:	5c 91       	ld	r21, X
    2f54:	60 81       	ld	r22, Z
    2f56:	71 81       	ldd	r23, Z+1	; 0x01
    2f58:	82 81       	ldd	r24, Z+2	; 0x02
    2f5a:	93 81       	ldd	r25, Z+3	; 0x03
    2f5c:	64 01       	movw	r12, r8
    2f5e:	0e 94 4c 0b 	call	0x1698	; 0x1698 <tft_FillTriangle>
    2f62:	df 91       	pop	r29
    2f64:	cf 91       	pop	r28
    2f66:	1f 91       	pop	r17
    2f68:	0f 91       	pop	r16
    2f6a:	ff 90       	pop	r15
    2f6c:	ef 90       	pop	r14
    2f6e:	df 90       	pop	r13
    2f70:	cf 90       	pop	r12
    2f72:	bf 90       	pop	r11
    2f74:	af 90       	pop	r10
    2f76:	9f 90       	pop	r9
    2f78:	8f 90       	pop	r8
    2f7a:	0c 94 cd 16 	jmp	0x2d9a	; 0x2d9a <drawPanTrack>

00002f7e <drawMenuButton>:
    2f7e:	cf 92       	push	r12
    2f80:	df 92       	push	r13
    2f82:	ef 92       	push	r14
    2f84:	ff 92       	push	r15
    2f86:	0f 93       	push	r16
    2f88:	1f 93       	push	r17
    2f8a:	cf 93       	push	r28
    2f8c:	df 93       	push	r29
    2f8e:	6b 01       	movw	r12, r22
    2f90:	79 01       	movw	r14, r18
    2f92:	92 e3       	ldi	r25, 0x32	; 50
    2f94:	89 9f       	mul	r24, r25
    2f96:	e0 01       	movw	r28, r0
    2f98:	11 24       	eor	r1, r1
    2f9a:	be 01       	movw	r22, r28
    2f9c:	67 5e       	subi	r22, 0xE7	; 231
    2f9e:	7f 4f       	sbci	r23, 0xFF	; 255
    2fa0:	89 01       	movw	r16, r18
    2fa2:	28 e2       	ldi	r18, 0x28	; 40
    2fa4:	30 e0       	ldi	r19, 0x00	; 0
    2fa6:	41 e4       	ldi	r20, 0x41	; 65
    2fa8:	50 e0       	ldi	r21, 0x00	; 0
    2faa:	8a e9       	ldi	r24, 0x9A	; 154
    2fac:	91 e0       	ldi	r25, 0x01	; 1
    2fae:	0e 94 2d 11 	call	0x225a	; 0x225a <tft_drawRect>
    2fb2:	ae 01       	movw	r20, r28
    2fb4:	48 5d       	subi	r20, 0xD8	; 216
    2fb6:	5f 4f       	sbci	r21, 0xFF	; 255
    2fb8:	10 e0       	ldi	r17, 0x00	; 0
    2fba:	00 e0       	ldi	r16, 0x00	; 0
    2fbc:	97 01       	movw	r18, r14
    2fbe:	6f e9       	ldi	r22, 0x9F	; 159
    2fc0:	71 e0       	ldi	r23, 0x01	; 1
    2fc2:	c6 01       	movw	r24, r12
    2fc4:	0e 94 61 11 	call	0x22c2	; 0x22c2 <tft_printAt>
    2fc8:	df 91       	pop	r29
    2fca:	cf 91       	pop	r28
    2fcc:	1f 91       	pop	r17
    2fce:	0f 91       	pop	r16
    2fd0:	ff 90       	pop	r15
    2fd2:	ef 90       	pop	r14
    2fd4:	df 90       	pop	r13
    2fd6:	cf 90       	pop	r12
    2fd8:	08 95       	ret

00002fda <drawStaticInterface>:
    2fda:	ef 92       	push	r14
    2fdc:	ff 92       	push	r15
    2fde:	0f 93       	push	r16
    2fe0:	1f 93       	push	r17
    2fe2:	cf 93       	push	r28
    2fe4:	df 93       	push	r29
    2fe6:	90 e0       	ldi	r25, 0x00	; 0
    2fe8:	80 e0       	ldi	r24, 0x00	; 0
    2fea:	0e 94 bc 09 	call	0x1378	; 0x1378 <tft_fillScreen>
    2fee:	06 e8       	ldi	r16, 0x86	; 134
    2ff0:	11 e3       	ldi	r17, 0x31	; 49
    2ff2:	24 e1       	ldi	r18, 0x14	; 20
    2ff4:	30 e0       	ldi	r19, 0x00	; 0
    2ff6:	40 ee       	ldi	r20, 0xE0	; 224
    2ff8:	51 e0       	ldi	r21, 0x01	; 1
    2ffa:	70 e0       	ldi	r23, 0x00	; 0
    2ffc:	60 e0       	ldi	r22, 0x00	; 0
    2ffe:	90 e0       	ldi	r25, 0x00	; 0
    3000:	80 e0       	ldi	r24, 0x00	; 0
    3002:	0e 94 0a 08 	call	0x1014	; 0x1014 <tft_fillRect>
    3006:	20 ee       	ldi	r18, 0xE0	; 224
    3008:	37 e0       	ldi	r19, 0x07	; 7
    300a:	45 e0       	ldi	r20, 0x05	; 5
    300c:	50 e0       	ldi	r21, 0x00	; 0
    300e:	6a e0       	ldi	r22, 0x0A	; 10
    3010:	70 e0       	ldi	r23, 0x00	; 0
    3012:	81 e9       	ldi	r24, 0x91	; 145
    3014:	92 e0       	ldi	r25, 0x02	; 2
    3016:	0e 94 61 11 	call	0x22c2	; 0x22c2 <tft_printAt>
    301a:	20 ee       	ldi	r18, 0xE0	; 224
    301c:	3f ef       	ldi	r19, 0xFF	; 255
    301e:	45 e0       	ldi	r20, 0x05	; 5
    3020:	50 e0       	ldi	r21, 0x00	; 0
    3022:	6a ef       	ldi	r22, 0xFA	; 250
    3024:	70 e0       	ldi	r23, 0x00	; 0
    3026:	85 e9       	ldi	r24, 0x95	; 149
    3028:	92 e0       	ldi	r25, 0x02	; 2
    302a:	0e 94 61 11 	call	0x22c2	; 0x22c2 <tft_printAt>
    302e:	80 91 66 01 	lds	r24, 0x0166	; 0x800166 <currentMenu>
    3032:	81 30       	cpi	r24, 0x01	; 1
    3034:	09 f4       	brne	.+2      	; 0x3038 <drawStaticInterface+0x5e>
    3036:	9c c0       	rjmp	.+312    	; 0x3170 <drawStaticInterface+0x196>
    3038:	82 30       	cpi	r24, 0x02	; 2
    303a:	09 f4       	brne	.+2      	; 0x303e <drawStaticInterface+0x64>
    303c:	9c c0       	rjmp	.+312    	; 0x3176 <drawStaticInterface+0x19c>
    303e:	83 30       	cpi	r24, 0x03	; 3
    3040:	09 f4       	brne	.+2      	; 0x3044 <drawStaticInterface+0x6a>
    3042:	9c c0       	rjmp	.+312    	; 0x317c <drawStaticInterface+0x1a2>
    3044:	85 e2       	ldi	r24, 0x25	; 37
    3046:	92 e0       	ldi	r25, 0x02	; 2
    3048:	06 e8       	ldi	r16, 0x86	; 134
    304a:	11 e3       	ldi	r17, 0x31	; 49
    304c:	2f ef       	ldi	r18, 0xFF	; 255
    304e:	3f ef       	ldi	r19, 0xFF	; 255
    3050:	45 e0       	ldi	r20, 0x05	; 5
    3052:	50 e0       	ldi	r21, 0x00	; 0
    3054:	6e ea       	ldi	r22, 0xAE	; 174
    3056:	71 e0       	ldi	r23, 0x01	; 1
    3058:	0e 94 61 11 	call	0x22c2	; 0x22c2 <tft_printAt>
    305c:	0f ef       	ldi	r16, 0xFF	; 255
    305e:	1f ef       	ldi	r17, 0xFF	; 255
    3060:	22 ef       	ldi	r18, 0xF2	; 242
    3062:	30 e0       	ldi	r19, 0x00	; 0
    3064:	42 e9       	ldi	r20, 0x92	; 146
    3066:	51 e0       	ldi	r21, 0x01	; 1
    3068:	68 e1       	ldi	r22, 0x18	; 24
    306a:	70 e0       	ldi	r23, 0x00	; 0
    306c:	84 e0       	ldi	r24, 0x04	; 4
    306e:	90 e0       	ldi	r25, 0x00	; 0
    3070:	0e 94 2d 11 	call	0x225a	; 0x225a <tft_drawRect>
    3074:	00 e1       	ldi	r16, 0x10	; 16
    3076:	14 e8       	ldi	r17, 0x84	; 132
    3078:	20 e4       	ldi	r18, 0x40	; 64
    307a:	31 e0       	ldi	r19, 0x01	; 1
    307c:	48 e9       	ldi	r20, 0x98	; 152
    307e:	51 e0       	ldi	r21, 0x01	; 1
    3080:	64 e1       	ldi	r22, 0x14	; 20
    3082:	70 e0       	ldi	r23, 0x00	; 0
    3084:	88 e9       	ldi	r24, 0x98	; 152
    3086:	91 e0       	ldi	r25, 0x01	; 1
    3088:	0e 94 34 0d 	call	0x1a68	; 0x1a68 <tft_drawLine>
    308c:	80 91 66 01 	lds	r24, 0x0166	; 0x800166 <currentMenu>
    3090:	9f ef       	ldi	r25, 0xFF	; 255
    3092:	98 0f       	add	r25, r24
    3094:	92 30       	cpi	r25, 0x02	; 2
    3096:	08 f0       	brcs	.+2      	; 0x309a <drawStaticInterface+0xc0>
    3098:	7c c0       	rjmp	.+248    	; 0x3192 <drawStaticInterface+0x1b8>
    309a:	c1 e0       	ldi	r28, 0x01	; 1
    309c:	d0 e0       	ldi	r29, 0x00	; 0
    309e:	81 30       	cpi	r24, 0x01	; 1
    30a0:	11 f4       	brne	.+4      	; 0x30a6 <drawStaticInterface+0xcc>
    30a2:	d0 e0       	ldi	r29, 0x00	; 0
    30a4:	c0 e0       	ldi	r28, 0x00	; 0
    30a6:	fe 01       	movw	r30, r28
    30a8:	e8 5e       	subi	r30, 0xE8	; 232
    30aa:	fb 4f       	sbci	r31, 0xFB	; 251
    30ac:	90 81       	ld	r25, Z
    30ae:	2e e2       	ldi	r18, 0x2E	; 46
    30b0:	e2 2e       	mov	r14, r18
    30b2:	22 e0       	ldi	r18, 0x02	; 2
    30b4:	f2 2e       	mov	r15, r18
    30b6:	99 23       	and	r25, r25
    30b8:	51 f0       	breq	.+20     	; 0x30ce <drawStaticInterface+0xf4>
    30ba:	3a e2       	ldi	r19, 0x2A	; 42
    30bc:	e3 2e       	mov	r14, r19
    30be:	32 e0       	ldi	r19, 0x02	; 2
    30c0:	f3 2e       	mov	r15, r19
    30c2:	91 30       	cpi	r25, 0x01	; 1
    30c4:	21 f4       	brne	.+8      	; 0x30ce <drawStaticInterface+0xf4>
    30c6:	91 e3       	ldi	r25, 0x31	; 49
    30c8:	e9 2e       	mov	r14, r25
    30ca:	92 e0       	ldi	r25, 0x02	; 2
    30cc:	f9 2e       	mov	r15, r25
    30ce:	fe 01       	movw	r30, r28
    30d0:	ea 5e       	subi	r30, 0xEA	; 234
    30d2:	fb 4f       	sbci	r31, 0xFB	; 251
    30d4:	90 81       	ld	r25, Z
    30d6:	09 e3       	ldi	r16, 0x39	; 57
    30d8:	12 e0       	ldi	r17, 0x02	; 2
    30da:	99 23       	and	r25, r25
    30dc:	31 f0       	breq	.+12     	; 0x30ea <drawStaticInterface+0x110>
    30de:	04 e3       	ldi	r16, 0x34	; 52
    30e0:	12 e0       	ldi	r17, 0x02	; 2
    30e2:	91 30       	cpi	r25, 0x01	; 1
    30e4:	11 f4       	brne	.+4      	; 0x30ea <drawStaticInterface+0x110>
    30e6:	0c e3       	ldi	r16, 0x3C	; 60
    30e8:	12 e0       	ldi	r17, 0x02	; 2
    30ea:	fe 01       	movw	r30, r28
    30ec:	e0 5a       	subi	r30, 0xA0	; 160
    30ee:	fe 4f       	sbci	r31, 0xFE	; 254
    30f0:	90 81       	ld	r25, Z
    30f2:	99 23       	and	r25, r25
    30f4:	09 f4       	brne	.+2      	; 0x30f8 <drawStaticInterface+0x11e>
    30f6:	45 c0       	rjmp	.+138    	; 0x3182 <drawStaticInterface+0x1a8>
    30f8:	60 e4       	ldi	r22, 0x40	; 64
    30fa:	72 e0       	ldi	r23, 0x02	; 2
    30fc:	81 30       	cpi	r24, 0x01	; 1
    30fe:	11 f4       	brne	.+4      	; 0x3104 <drawStaticInterface+0x12a>
    3100:	67 e5       	ldi	r22, 0x57	; 87
    3102:	72 e0       	ldi	r23, 0x02	; 2
    3104:	4f ef       	ldi	r20, 0xFF	; 255
    3106:	5f ef       	ldi	r21, 0xFF	; 255
    3108:	80 e0       	ldi	r24, 0x00	; 0
    310a:	0e 94 5b 15 	call	0x2ab6	; 0x2ab6 <drawMenuButton.constprop.3>
    310e:	4f ef       	ldi	r20, 0xFF	; 255
    3110:	5f ef       	ldi	r21, 0xFF	; 255
    3112:	b7 01       	movw	r22, r14
    3114:	81 e0       	ldi	r24, 0x01	; 1
    3116:	0e 94 5b 15 	call	0x2ab6	; 0x2ab6 <drawMenuButton.constprop.3>
    311a:	4f ef       	ldi	r20, 0xFF	; 255
    311c:	5f ef       	ldi	r21, 0xFF	; 255
    311e:	b8 01       	movw	r22, r16
    3120:	82 e0       	ldi	r24, 0x02	; 2
    3122:	0e 94 5b 15 	call	0x2ab6	; 0x2ab6 <drawMenuButton.constprop.3>
    3126:	cc 5e       	subi	r28, 0xEC	; 236
    3128:	db 4f       	sbci	r29, 0xFB	; 251
    312a:	88 81       	ld	r24, Y
    312c:	64 e6       	ldi	r22, 0x64	; 100
    312e:	72 e0       	ldi	r23, 0x02	; 2
    3130:	88 23       	and	r24, r24
    3132:	11 f0       	breq	.+4      	; 0x3138 <drawStaticInterface+0x15e>
    3134:	6e e5       	ldi	r22, 0x5E	; 94
    3136:	72 e0       	ldi	r23, 0x02	; 2
    3138:	4f ef       	ldi	r20, 0xFF	; 255
    313a:	5f ef       	ldi	r21, 0xFF	; 255
    313c:	83 e0       	ldi	r24, 0x03	; 3
    313e:	0e 94 5b 15 	call	0x2ab6	; 0x2ab6 <drawMenuButton.constprop.3>
    3142:	80 91 13 04 	lds	r24, 0x0413	; 0x800413 <encoderMode>
    3146:	63 e7       	ldi	r22, 0x73	; 115
    3148:	72 e0       	ldi	r23, 0x02	; 2
    314a:	81 30       	cpi	r24, 0x01	; 1
    314c:	11 f4       	brne	.+4      	; 0x3152 <drawStaticInterface+0x178>
    314e:	6b e6       	ldi	r22, 0x6B	; 107
    3150:	72 e0       	ldi	r23, 0x02	; 2
    3152:	4f ef       	ldi	r20, 0xFF	; 255
    3154:	5f ef       	ldi	r21, 0xFF	; 255
    3156:	84 e0       	ldi	r24, 0x04	; 4
    3158:	0e 94 5b 15 	call	0x2ab6	; 0x2ab6 <drawMenuButton.constprop.3>
    315c:	88 e1       	ldi	r24, 0x18	; 24
    315e:	96 ec       	ldi	r25, 0xC6	; 198
    3160:	df 91       	pop	r29
    3162:	cf 91       	pop	r28
    3164:	1f 91       	pop	r17
    3166:	0f 91       	pop	r16
    3168:	ff 90       	pop	r15
    316a:	ef 90       	pop	r14
    316c:	0c 94 3b 16 	jmp	0x2c76	; 0x2c76 <tft_drawGrid>
    3170:	86 e1       	ldi	r24, 0x16	; 22
    3172:	92 e0       	ldi	r25, 0x02	; 2
    3174:	69 cf       	rjmp	.-302    	; 0x3048 <drawStaticInterface+0x6e>
    3176:	8b e1       	ldi	r24, 0x1B	; 27
    3178:	92 e0       	ldi	r25, 0x02	; 2
    317a:	66 cf       	rjmp	.-308    	; 0x3048 <drawStaticInterface+0x6e>
    317c:	80 e2       	ldi	r24, 0x20	; 32
    317e:	92 e0       	ldi	r25, 0x02	; 2
    3180:	63 cf       	rjmp	.-314    	; 0x3048 <drawStaticInterface+0x6e>
    3182:	67 e4       	ldi	r22, 0x47	; 71
    3184:	72 e0       	ldi	r23, 0x02	; 2
    3186:	81 30       	cpi	r24, 0x01	; 1
    3188:	09 f0       	breq	.+2      	; 0x318c <drawStaticInterface+0x1b2>
    318a:	bc cf       	rjmp	.-136    	; 0x3104 <drawStaticInterface+0x12a>
    318c:	6f e4       	ldi	r22, 0x4F	; 79
    318e:	72 e0       	ldi	r23, 0x02	; 2
    3190:	b9 cf       	rjmp	.-142    	; 0x3104 <drawStaticInterface+0x12a>
    3192:	83 30       	cpi	r24, 0x03	; 3
    3194:	19 f7       	brne	.-58     	; 0x315c <drawStaticInterface+0x182>
    3196:	80 91 21 04 	lds	r24, 0x0421	; 0x800421 <trigger_mode>
    319a:	6c e7       	ldi	r22, 0x7C	; 124
    319c:	72 e0       	ldi	r23, 0x02	; 2
    319e:	81 11       	cpse	r24, r1
    31a0:	02 c0       	rjmp	.+4      	; 0x31a6 <drawStaticInterface+0x1cc>
    31a2:	61 ed       	ldi	r22, 0xD1	; 209
    31a4:	72 e0       	ldi	r23, 0x02	; 2
    31a6:	4f ef       	ldi	r20, 0xFF	; 255
    31a8:	5f ef       	ldi	r21, 0xFF	; 255
    31aa:	80 e0       	ldi	r24, 0x00	; 0
    31ac:	0e 94 5b 15 	call	0x2ab6	; 0x2ab6 <drawMenuButton.constprop.3>
    31b0:	80 91 20 04 	lds	r24, 0x0420	; 0x800420 <trigger_slope>
    31b4:	66 ec       	ldi	r22, 0xC6	; 198
    31b6:	72 e0       	ldi	r23, 0x02	; 2
    31b8:	88 23       	and	r24, r24
    31ba:	11 f0       	breq	.+4      	; 0x31c0 <drawStaticInterface+0x1e6>
    31bc:	6c eb       	ldi	r22, 0xBC	; 188
    31be:	72 e0       	ldi	r23, 0x02	; 2
    31c0:	4f ef       	ldi	r20, 0xFF	; 255
    31c2:	5f ef       	ldi	r21, 0xFF	; 255
    31c4:	81 e0       	ldi	r24, 0x01	; 1
    31c6:	0e 94 5b 15 	call	0x2ab6	; 0x2ab6 <drawMenuButton.constprop.3>
    31ca:	80 91 67 01 	lds	r24, 0x0167	; 0x800167 <trigger_source>
    31ce:	63 eb       	ldi	r22, 0xB3	; 179
    31d0:	72 e0       	ldi	r23, 0x02	; 2
    31d2:	81 30       	cpi	r24, 0x01	; 1
    31d4:	11 f4       	brne	.+4      	; 0x31da <drawStaticInterface+0x200>
    31d6:	6a ea       	ldi	r22, 0xAA	; 170
    31d8:	72 e0       	ldi	r23, 0x02	; 2
    31da:	4f ef       	ldi	r20, 0xFF	; 255
    31dc:	5f ef       	ldi	r21, 0xFF	; 255
    31de:	82 e0       	ldi	r24, 0x02	; 2
    31e0:	0e 94 5b 15 	call	0x2ab6	; 0x2ab6 <drawMenuButton.constprop.3>
    31e4:	80 91 13 04 	lds	r24, 0x0413	; 0x800413 <encoderMode>
    31e8:	6b e8       	ldi	r22, 0x8B	; 139
    31ea:	72 e0       	ldi	r23, 0x02	; 2
    31ec:	82 30       	cpi	r24, 0x02	; 2
    31ee:	11 f4       	brne	.+4      	; 0x31f4 <drawStaticInterface+0x21a>
    31f0:	63 e8       	ldi	r22, 0x83	; 131
    31f2:	72 e0       	ldi	r23, 0x02	; 2
    31f4:	4f ef       	ldi	r20, 0xFF	; 255
    31f6:	5f ef       	ldi	r21, 0xFF	; 255
    31f8:	83 e0       	ldi	r24, 0x03	; 3
    31fa:	0e 94 5b 15 	call	0x2ab6	; 0x2ab6 <drawMenuButton.constprop.3>
    31fe:	4f ef       	ldi	r20, 0xFF	; 255
    3200:	5f ef       	ldi	r21, 0xFF	; 255
    3202:	60 ea       	ldi	r22, 0xA0	; 160
    3204:	72 e0       	ldi	r23, 0x02	; 2
    3206:	a7 cf       	rjmp	.-178    	; 0x3156 <drawStaticInterface+0x17c>

00003208 <cycleCoupling>:
    3208:	81 50       	subi	r24, 0x01	; 1
    320a:	e8 2f       	mov	r30, r24
    320c:	f0 e0       	ldi	r31, 0x00	; 0
    320e:	e8 5e       	subi	r30, 0xE8	; 232
    3210:	fb 4f       	sbci	r31, 0xFB	; 251
    3212:	80 81       	ld	r24, Z
    3214:	8f 5f       	subi	r24, 0xFF	; 255
    3216:	83 30       	cpi	r24, 0x03	; 3
    3218:	90 f4       	brcc	.+36     	; 0x323e <cycleCoupling+0x36>
    321a:	80 83       	st	Z, r24
    321c:	e0 81       	ld	r30, Z
    321e:	6a ef       	ldi	r22, 0xFA	; 250
    3220:	72 e0       	ldi	r23, 0x02	; 2
    3222:	e3 30       	cpi	r30, 0x03	; 3
    3224:	38 f4       	brcc	.+14     	; 0x3234 <cycleCoupling+0x2c>
    3226:	f0 e0       	ldi	r31, 0x00	; 0
    3228:	ee 0f       	add	r30, r30
    322a:	ff 1f       	adc	r31, r31
    322c:	e5 53       	subi	r30, 0x35	; 53
    322e:	fe 4f       	sbci	r31, 0xFE	; 254
    3230:	60 81       	ld	r22, Z
    3232:	71 81       	ldd	r23, Z+1	; 0x01
    3234:	4f ef       	ldi	r20, 0xFF	; 255
    3236:	5f ef       	ldi	r21, 0xFF	; 255
    3238:	81 e0       	ldi	r24, 0x01	; 1
    323a:	0c 94 5b 15 	jmp	0x2ab6	; 0x2ab6 <drawMenuButton.constprop.3>
    323e:	10 82       	st	Z, r1
    3240:	ed cf       	rjmp	.-38     	; 0x321c <cycleCoupling+0x14>

00003242 <aggiornaMoltiplicatoreSonda>:
    3242:	81 50       	subi	r24, 0x01	; 1
    3244:	61 30       	cpi	r22, 0x01	; 1
    3246:	99 f0       	breq	.+38     	; 0x326e <aggiornaMoltiplicatoreSonda+0x2c>
    3248:	18 f0       	brcs	.+6      	; 0x3250 <aggiornaMoltiplicatoreSonda+0xe>
    324a:	62 30       	cpi	r22, 0x02	; 2
    324c:	d9 f0       	breq	.+54     	; 0x3284 <aggiornaMoltiplicatoreSonda+0x42>
    324e:	08 95       	ret
    3250:	94 e0       	ldi	r25, 0x04	; 4
    3252:	89 9f       	mul	r24, r25
    3254:	f0 01       	movw	r30, r0
    3256:	11 24       	eor	r1, r1
    3258:	e2 5b       	subi	r30, 0xB2	; 178
    325a:	fe 4f       	sbci	r31, 0xFE	; 254
    325c:	80 e0       	ldi	r24, 0x00	; 0
    325e:	90 e0       	ldi	r25, 0x00	; 0
    3260:	a0 e8       	ldi	r26, 0x80	; 128
    3262:	bf e3       	ldi	r27, 0x3F	; 63
    3264:	80 83       	st	Z, r24
    3266:	91 83       	std	Z+1, r25	; 0x01
    3268:	a2 83       	std	Z+2, r26	; 0x02
    326a:	b3 83       	std	Z+3, r27	; 0x03
    326c:	08 95       	ret
    326e:	94 e0       	ldi	r25, 0x04	; 4
    3270:	89 9f       	mul	r24, r25
    3272:	f0 01       	movw	r30, r0
    3274:	11 24       	eor	r1, r1
    3276:	e2 5b       	subi	r30, 0xB2	; 178
    3278:	fe 4f       	sbci	r31, 0xFE	; 254
    327a:	80 e0       	ldi	r24, 0x00	; 0
    327c:	90 e0       	ldi	r25, 0x00	; 0
    327e:	a0 e2       	ldi	r26, 0x20	; 32
    3280:	b1 e4       	ldi	r27, 0x41	; 65
    3282:	f0 cf       	rjmp	.-32     	; 0x3264 <aggiornaMoltiplicatoreSonda+0x22>
    3284:	94 e0       	ldi	r25, 0x04	; 4
    3286:	89 9f       	mul	r24, r25
    3288:	f0 01       	movw	r30, r0
    328a:	11 24       	eor	r1, r1
    328c:	e2 5b       	subi	r30, 0xB2	; 178
    328e:	fe 4f       	sbci	r31, 0xFE	; 254
    3290:	80 e0       	ldi	r24, 0x00	; 0
    3292:	90 e0       	ldi	r25, 0x00	; 0
    3294:	a8 ec       	ldi	r26, 0xC8	; 200
    3296:	b2 e4       	ldi	r27, 0x42	; 66
    3298:	e5 cf       	rjmp	.-54     	; 0x3264 <aggiornaMoltiplicatoreSonda+0x22>

0000329a <cycleProbe>:
    329a:	cf 93       	push	r28
    329c:	df 93       	push	r29
    329e:	cf ef       	ldi	r28, 0xFF	; 255
    32a0:	c8 0f       	add	r28, r24
    32a2:	d0 e0       	ldi	r29, 0x00	; 0
    32a4:	ca 5e       	subi	r28, 0xEA	; 234
    32a6:	db 4f       	sbci	r29, 0xFB	; 251
    32a8:	98 81       	ld	r25, Y
    32aa:	9f 5f       	subi	r25, 0xFF	; 255
    32ac:	93 30       	cpi	r25, 0x03	; 3
    32ae:	b8 f4       	brcc	.+46     	; 0x32de <cycleProbe+0x44>
    32b0:	98 83       	st	Y, r25
    32b2:	68 81       	ld	r22, Y
    32b4:	0e 94 21 19 	call	0x3242	; 0x3242 <aggiornaMoltiplicatoreSonda>
    32b8:	e8 81       	ld	r30, Y
    32ba:	6a ef       	ldi	r22, 0xFA	; 250
    32bc:	72 e0       	ldi	r23, 0x02	; 2
    32be:	e3 30       	cpi	r30, 0x03	; 3
    32c0:	38 f4       	brcc	.+14     	; 0x32d0 <cycleProbe+0x36>
    32c2:	f0 e0       	ldi	r31, 0x00	; 0
    32c4:	ee 0f       	add	r30, r30
    32c6:	ff 1f       	adc	r31, r31
    32c8:	eb 53       	subi	r30, 0x3B	; 59
    32ca:	fe 4f       	sbci	r31, 0xFE	; 254
    32cc:	60 81       	ld	r22, Z
    32ce:	71 81       	ldd	r23, Z+1	; 0x01
    32d0:	4f ef       	ldi	r20, 0xFF	; 255
    32d2:	5f ef       	ldi	r21, 0xFF	; 255
    32d4:	82 e0       	ldi	r24, 0x02	; 2
    32d6:	df 91       	pop	r29
    32d8:	cf 91       	pop	r28
    32da:	0c 94 5b 15 	jmp	0x2ab6	; 0x2ab6 <drawMenuButton.constprop.3>
    32de:	18 82       	st	Y, r1
    32e0:	e8 cf       	rjmp	.-48     	; 0x32b2 <cycleProbe+0x18>

000032e2 <calcolaVoltReali>:
    32e2:	cf 93       	push	r28
    32e4:	df 93       	push	r29
    32e6:	81 50       	subi	r24, 0x01	; 1
    32e8:	94 e0       	ldi	r25, 0x04	; 4
    32ea:	89 9f       	mul	r24, r25
    32ec:	e0 01       	movw	r28, r0
    32ee:	11 24       	eor	r1, r1
    32f0:	c2 5b       	subi	r28, 0xB2	; 178
    32f2:	de 4f       	sbci	r29, 0xFE	; 254
    32f4:	70 e0       	ldi	r23, 0x00	; 0
    32f6:	90 e0       	ldi	r25, 0x00	; 0
    32f8:	80 e0       	ldi	r24, 0x00	; 0
    32fa:	0e 94 09 22 	call	0x4412	; 0x4412 <__floatsisf>
    32fe:	20 e0       	ldi	r18, 0x00	; 0
    3300:	30 e0       	ldi	r19, 0x00	; 0
    3302:	40 ea       	ldi	r20, 0xA0	; 160
    3304:	50 e4       	ldi	r21, 0x40	; 64
    3306:	0e 94 be 22 	call	0x457c	; 0x457c <__mulsf3>
    330a:	20 e0       	ldi	r18, 0x00	; 0
    330c:	30 e0       	ldi	r19, 0x00	; 0
    330e:	4f e7       	ldi	r20, 0x7F	; 127
    3310:	53 e4       	ldi	r21, 0x43	; 67
    3312:	0e 94 5f 21 	call	0x42be	; 0x42be <__divsf3>
    3316:	28 81       	ld	r18, Y
    3318:	39 81       	ldd	r19, Y+1	; 0x01
    331a:	4a 81       	ldd	r20, Y+2	; 0x02
    331c:	5b 81       	ldd	r21, Y+3	; 0x03
    331e:	0e 94 be 22 	call	0x457c	; 0x457c <__mulsf3>
    3322:	df 91       	pop	r29
    3324:	cf 91       	pop	r28
    3326:	08 95       	ret

00003328 <updateSidebarLabels>:
    3328:	0f 93       	push	r16
    332a:	1f 93       	push	r17
    332c:	cf 93       	push	r28
    332e:	df 93       	push	r29
    3330:	cd b7       	in	r28, 0x3d	; 61
    3332:	de b7       	in	r29, 0x3e	; 62
    3334:	2c 97       	sbiw	r28, 0x0c	; 12
    3336:	0f b6       	in	r0, 0x3f	; 63
    3338:	f8 94       	cli
    333a:	de bf       	out	0x3e, r29	; 62
    333c:	0f be       	out	0x3f, r0	; 63
    333e:	cd bf       	out	0x3d, r28	; 61
    3340:	20 91 66 01 	lds	r18, 0x0166	; 0x800166 <currentMenu>
    3344:	21 50       	subi	r18, 0x01	; 1
    3346:	25 30       	cpi	r18, 0x05	; 5
    3348:	08 f0       	brcs	.+2      	; 0x334c <updateSidebarLabels+0x24>
    334a:	94 c0       	rjmp	.+296    	; 0x3474 <updateSidebarLabels+0x14c>
    334c:	30 e0       	ldi	r19, 0x00	; 0
    334e:	22 0f       	add	r18, r18
    3350:	33 1f       	adc	r19, r19
    3352:	f9 01       	movw	r30, r18
    3354:	e5 54       	subi	r30, 0x45	; 69
    3356:	fe 4f       	sbci	r31, 0xFE	; 254
    3358:	80 81       	ld	r24, Z
    335a:	91 81       	ldd	r25, Z+1	; 0x01
    335c:	2f 54       	subi	r18, 0x4F	; 79
    335e:	3e 4f       	sbci	r19, 0xFE	; 254
    3360:	f9 01       	movw	r30, r18
    3362:	20 81       	ld	r18, Z
    3364:	31 81       	ldd	r19, Z+1	; 0x01
    3366:	06 e8       	ldi	r16, 0x86	; 134
    3368:	11 e3       	ldi	r17, 0x31	; 49
    336a:	45 e0       	ldi	r20, 0x05	; 5
    336c:	50 e0       	ldi	r21, 0x00	; 0
    336e:	6e ea       	ldi	r22, 0xAE	; 174
    3370:	71 e0       	ldi	r23, 0x01	; 1
    3372:	0e 94 61 11 	call	0x22c2	; 0x22c2 <tft_printAt>
    3376:	80 91 66 01 	lds	r24, 0x0166	; 0x800166 <currentMenu>
    337a:	9f ef       	ldi	r25, 0xFF	; 255
    337c:	98 0f       	add	r25, r24
    337e:	92 30       	cpi	r25, 0x02	; 2
    3380:	08 f0       	brcs	.+2      	; 0x3384 <updateSidebarLabels+0x5c>
    3382:	85 c0       	rjmp	.+266    	; 0x348e <updateSidebarLabels+0x166>
    3384:	01 e0       	ldi	r16, 0x01	; 1
    3386:	10 e0       	ldi	r17, 0x00	; 0
    3388:	81 30       	cpi	r24, 0x01	; 1
    338a:	11 f4       	brne	.+4      	; 0x3390 <updateSidebarLabels+0x68>
    338c:	10 e0       	ldi	r17, 0x00	; 0
    338e:	00 e0       	ldi	r16, 0x00	; 0
    3390:	f8 01       	movw	r30, r16
    3392:	e0 5a       	subi	r30, 0xA0	; 160
    3394:	fe 4f       	sbci	r31, 0xFE	; 254
    3396:	90 81       	ld	r25, Z
    3398:	99 23       	and	r25, r25
    339a:	09 f4       	brne	.+2      	; 0x339e <updateSidebarLabels+0x76>
    339c:	70 c0       	rjmp	.+224    	; 0x347e <updateSidebarLabels+0x156>
    339e:	60 e4       	ldi	r22, 0x40	; 64
    33a0:	72 e0       	ldi	r23, 0x02	; 2
    33a2:	81 30       	cpi	r24, 0x01	; 1
    33a4:	11 f4       	brne	.+4      	; 0x33aa <updateSidebarLabels+0x82>
    33a6:	67 e5       	ldi	r22, 0x57	; 87
    33a8:	72 e0       	ldi	r23, 0x02	; 2
    33aa:	4f ef       	ldi	r20, 0xFF	; 255
    33ac:	5f ef       	ldi	r21, 0xFF	; 255
    33ae:	80 e0       	ldi	r24, 0x00	; 0
    33b0:	0e 94 5b 15 	call	0x2ab6	; 0x2ab6 <drawMenuButton.constprop.3>
    33b4:	86 e0       	ldi	r24, 0x06	; 6
    33b6:	ed e6       	ldi	r30, 0x6D	; 109
    33b8:	f1 e0       	ldi	r31, 0x01	; 1
    33ba:	de 01       	movw	r26, r28
    33bc:	17 96       	adiw	r26, 0x07	; 7
    33be:	01 90       	ld	r0, Z+
    33c0:	0d 92       	st	X+, r0
    33c2:	8a 95       	dec	r24
    33c4:	e1 f7       	brne	.-8      	; 0x33be <updateSidebarLabels+0x96>
    33c6:	f8 01       	movw	r30, r16
    33c8:	e8 5e       	subi	r30, 0xE8	; 232
    33ca:	fb 4f       	sbci	r31, 0xFB	; 251
    33cc:	e0 81       	ld	r30, Z
    33ce:	f0 e0       	ldi	r31, 0x00	; 0
    33d0:	ee 0f       	add	r30, r30
    33d2:	ff 1f       	adc	r31, r31
    33d4:	81 e0       	ldi	r24, 0x01	; 1
    33d6:	90 e0       	ldi	r25, 0x00	; 0
    33d8:	8c 0f       	add	r24, r28
    33da:	9d 1f       	adc	r25, r29
    33dc:	e8 0f       	add	r30, r24
    33de:	f9 1f       	adc	r31, r25
    33e0:	66 81       	ldd	r22, Z+6	; 0x06
    33e2:	77 81       	ldd	r23, Z+7	; 0x07
    33e4:	4f ef       	ldi	r20, 0xFF	; 255
    33e6:	5f ef       	ldi	r21, 0xFF	; 255
    33e8:	81 e0       	ldi	r24, 0x01	; 1
    33ea:	0e 94 5b 15 	call	0x2ab6	; 0x2ab6 <drawMenuButton.constprop.3>
    33ee:	86 e0       	ldi	r24, 0x06	; 6
    33f0:	e3 e7       	ldi	r30, 0x73	; 115
    33f2:	f1 e0       	ldi	r31, 0x01	; 1
    33f4:	de 01       	movw	r26, r28
    33f6:	11 96       	adiw	r26, 0x01	; 1
    33f8:	01 90       	ld	r0, Z+
    33fa:	0d 92       	st	X+, r0
    33fc:	8a 95       	dec	r24
    33fe:	e1 f7       	brne	.-8      	; 0x33f8 <updateSidebarLabels+0xd0>
    3400:	f8 01       	movw	r30, r16
    3402:	ea 5e       	subi	r30, 0xEA	; 234
    3404:	fb 4f       	sbci	r31, 0xFB	; 251
    3406:	e0 81       	ld	r30, Z
    3408:	f0 e0       	ldi	r31, 0x00	; 0
    340a:	ee 0f       	add	r30, r30
    340c:	ff 1f       	adc	r31, r31
    340e:	81 e0       	ldi	r24, 0x01	; 1
    3410:	90 e0       	ldi	r25, 0x00	; 0
    3412:	8c 0f       	add	r24, r28
    3414:	9d 1f       	adc	r25, r29
    3416:	e8 0f       	add	r30, r24
    3418:	f9 1f       	adc	r31, r25
    341a:	60 81       	ld	r22, Z
    341c:	71 81       	ldd	r23, Z+1	; 0x01
    341e:	4f ef       	ldi	r20, 0xFF	; 255
    3420:	5f ef       	ldi	r21, 0xFF	; 255
    3422:	82 e0       	ldi	r24, 0x02	; 2
    3424:	0e 94 5b 15 	call	0x2ab6	; 0x2ab6 <drawMenuButton.constprop.3>
    3428:	f8 01       	movw	r30, r16
    342a:	ec 5e       	subi	r30, 0xEC	; 236
    342c:	fb 4f       	sbci	r31, 0xFB	; 251
    342e:	80 81       	ld	r24, Z
    3430:	64 e6       	ldi	r22, 0x64	; 100
    3432:	72 e0       	ldi	r23, 0x02	; 2
    3434:	88 23       	and	r24, r24
    3436:	11 f0       	breq	.+4      	; 0x343c <updateSidebarLabels+0x114>
    3438:	6e e5       	ldi	r22, 0x5E	; 94
    343a:	72 e0       	ldi	r23, 0x02	; 2
    343c:	4f ef       	ldi	r20, 0xFF	; 255
    343e:	5f ef       	ldi	r21, 0xFF	; 255
    3440:	83 e0       	ldi	r24, 0x03	; 3
    3442:	0e 94 5b 15 	call	0x2ab6	; 0x2ab6 <drawMenuButton.constprop.3>
    3446:	80 91 13 04 	lds	r24, 0x0413	; 0x800413 <encoderMode>
    344a:	63 e7       	ldi	r22, 0x73	; 115
    344c:	72 e0       	ldi	r23, 0x02	; 2
    344e:	81 30       	cpi	r24, 0x01	; 1
    3450:	11 f4       	brne	.+4      	; 0x3456 <updateSidebarLabels+0x12e>
    3452:	6b e6       	ldi	r22, 0x6B	; 107
    3454:	72 e0       	ldi	r23, 0x02	; 2
    3456:	4f ef       	ldi	r20, 0xFF	; 255
    3458:	5f ef       	ldi	r21, 0xFF	; 255
    345a:	84 e0       	ldi	r24, 0x04	; 4
    345c:	2c 96       	adiw	r28, 0x0c	; 12
    345e:	0f b6       	in	r0, 0x3f	; 63
    3460:	f8 94       	cli
    3462:	de bf       	out	0x3e, r29	; 62
    3464:	0f be       	out	0x3f, r0	; 63
    3466:	cd bf       	out	0x3d, r28	; 61
    3468:	df 91       	pop	r29
    346a:	cf 91       	pop	r28
    346c:	1f 91       	pop	r17
    346e:	0f 91       	pop	r16
    3470:	0c 94 5b 15 	jmp	0x2ab6	; 0x2ab6 <drawMenuButton.constprop.3>
    3474:	2f ef       	ldi	r18, 0xFF	; 255
    3476:	37 e0       	ldi	r19, 0x07	; 7
    3478:	85 e2       	ldi	r24, 0x25	; 37
    347a:	92 e0       	ldi	r25, 0x02	; 2
    347c:	74 cf       	rjmp	.-280    	; 0x3366 <updateSidebarLabels+0x3e>
    347e:	67 e4       	ldi	r22, 0x47	; 71
    3480:	72 e0       	ldi	r23, 0x02	; 2
    3482:	81 30       	cpi	r24, 0x01	; 1
    3484:	09 f0       	breq	.+2      	; 0x3488 <updateSidebarLabels+0x160>
    3486:	91 cf       	rjmp	.-222    	; 0x33aa <updateSidebarLabels+0x82>
    3488:	6f e4       	ldi	r22, 0x4F	; 79
    348a:	72 e0       	ldi	r23, 0x02	; 2
    348c:	8e cf       	rjmp	.-228    	; 0x33aa <updateSidebarLabels+0x82>
    348e:	83 30       	cpi	r24, 0x03	; 3
    3490:	c9 f5       	brne	.+114    	; 0x3504 <updateSidebarLabels+0x1dc>
    3492:	80 91 67 01 	lds	r24, 0x0167	; 0x800167 <trigger_source>
    3496:	6e ea       	ldi	r22, 0xAE	; 174
    3498:	72 e0       	ldi	r23, 0x02	; 2
    349a:	81 30       	cpi	r24, 0x01	; 1
    349c:	11 f4       	brne	.+4      	; 0x34a2 <updateSidebarLabels+0x17a>
    349e:	65 ea       	ldi	r22, 0xA5	; 165
    34a0:	72 e0       	ldi	r23, 0x02	; 2
    34a2:	4f ef       	ldi	r20, 0xFF	; 255
    34a4:	5f ef       	ldi	r21, 0xFF	; 255
    34a6:	80 e0       	ldi	r24, 0x00	; 0
    34a8:	0e 94 5b 15 	call	0x2ab6	; 0x2ab6 <drawMenuButton.constprop.3>
    34ac:	80 91 20 04 	lds	r24, 0x0420	; 0x800420 <trigger_slope>
    34b0:	61 ec       	ldi	r22, 0xC1	; 193
    34b2:	72 e0       	ldi	r23, 0x02	; 2
    34b4:	88 23       	and	r24, r24
    34b6:	11 f0       	breq	.+4      	; 0x34bc <updateSidebarLabels+0x194>
    34b8:	67 eb       	ldi	r22, 0xB7	; 183
    34ba:	72 e0       	ldi	r23, 0x02	; 2
    34bc:	4f ef       	ldi	r20, 0xFF	; 255
    34be:	5f ef       	ldi	r21, 0xFF	; 255
    34c0:	81 e0       	ldi	r24, 0x01	; 1
    34c2:	0e 94 5b 15 	call	0x2ab6	; 0x2ab6 <drawMenuButton.constprop.3>
    34c6:	80 91 21 04 	lds	r24, 0x0421	; 0x800421 <trigger_mode>
    34ca:	66 ed       	ldi	r22, 0xD6	; 214
    34cc:	72 e0       	ldi	r23, 0x02	; 2
    34ce:	81 11       	cpse	r24, r1
    34d0:	02 c0       	rjmp	.+4      	; 0x34d6 <updateSidebarLabels+0x1ae>
    34d2:	6b ec       	ldi	r22, 0xCB	; 203
    34d4:	72 e0       	ldi	r23, 0x02	; 2
    34d6:	4f ef       	ldi	r20, 0xFF	; 255
    34d8:	5f ef       	ldi	r21, 0xFF	; 255
    34da:	82 e0       	ldi	r24, 0x02	; 2
    34dc:	0e 94 5b 15 	call	0x2ab6	; 0x2ab6 <drawMenuButton.constprop.3>
    34e0:	80 91 13 04 	lds	r24, 0x0413	; 0x800413 <encoderMode>
    34e4:	6b e8       	ldi	r22, 0x8B	; 139
    34e6:	72 e0       	ldi	r23, 0x02	; 2
    34e8:	82 30       	cpi	r24, 0x02	; 2
    34ea:	11 f4       	brne	.+4      	; 0x34f0 <updateSidebarLabels+0x1c8>
    34ec:	63 e8       	ldi	r22, 0x83	; 131
    34ee:	72 e0       	ldi	r23, 0x02	; 2
    34f0:	4f ef       	ldi	r20, 0xFF	; 255
    34f2:	5f ef       	ldi	r21, 0xFF	; 255
    34f4:	83 e0       	ldi	r24, 0x03	; 3
    34f6:	0e 94 5b 15 	call	0x2ab6	; 0x2ab6 <drawMenuButton.constprop.3>
    34fa:	4f ef       	ldi	r20, 0xFF	; 255
    34fc:	5f ef       	ldi	r21, 0xFF	; 255
    34fe:	60 ea       	ldi	r22, 0xA0	; 160
    3500:	72 e0       	ldi	r23, 0x02	; 2
    3502:	ab cf       	rjmp	.-170    	; 0x345a <updateSidebarLabels+0x132>
    3504:	84 50       	subi	r24, 0x04	; 4
    3506:	82 30       	cpi	r24, 0x02	; 2
    3508:	08 f5       	brcc	.+66     	; 0x354c <updateSidebarLabels+0x224>
    350a:	4f ef       	ldi	r20, 0xFF	; 255
    350c:	5f ef       	ldi	r21, 0xFF	; 255
    350e:	61 ee       	ldi	r22, 0xE1	; 225
    3510:	72 e0       	ldi	r23, 0x02	; 2
    3512:	80 e0       	ldi	r24, 0x00	; 0
    3514:	0e 94 5b 15 	call	0x2ab6	; 0x2ab6 <drawMenuButton.constprop.3>
    3518:	4f ef       	ldi	r20, 0xFF	; 255
    351a:	5f ef       	ldi	r21, 0xFF	; 255
    351c:	61 ee       	ldi	r22, 0xE1	; 225
    351e:	72 e0       	ldi	r23, 0x02	; 2
    3520:	81 e0       	ldi	r24, 0x01	; 1
    3522:	0e 94 5b 15 	call	0x2ab6	; 0x2ab6 <drawMenuButton.constprop.3>
    3526:	4f ef       	ldi	r20, 0xFF	; 255
    3528:	5f ef       	ldi	r21, 0xFF	; 255
    352a:	61 ee       	ldi	r22, 0xE1	; 225
    352c:	72 e0       	ldi	r23, 0x02	; 2
    352e:	82 e0       	ldi	r24, 0x02	; 2
    3530:	0e 94 5b 15 	call	0x2ab6	; 0x2ab6 <drawMenuButton.constprop.3>
    3534:	4f ef       	ldi	r20, 0xFF	; 255
    3536:	5f ef       	ldi	r21, 0xFF	; 255
    3538:	61 ee       	ldi	r22, 0xE1	; 225
    353a:	72 e0       	ldi	r23, 0x02	; 2
    353c:	83 e0       	ldi	r24, 0x03	; 3
    353e:	0e 94 5b 15 	call	0x2ab6	; 0x2ab6 <drawMenuButton.constprop.3>
    3542:	4f ef       	ldi	r20, 0xFF	; 255
    3544:	5f ef       	ldi	r21, 0xFF	; 255
    3546:	61 ee       	ldi	r22, 0xE1	; 225
    3548:	72 e0       	ldi	r23, 0x02	; 2
    354a:	87 cf       	rjmp	.-242    	; 0x345a <updateSidebarLabels+0x132>
    354c:	2c 96       	adiw	r28, 0x0c	; 12
    354e:	0f b6       	in	r0, 0x3f	; 63
    3550:	f8 94       	cli
    3552:	de bf       	out	0x3e, r29	; 62
    3554:	0f be       	out	0x3f, r0	; 63
    3556:	cd bf       	out	0x3d, r28	; 61
    3558:	df 91       	pop	r29
    355a:	cf 91       	pop	r28
    355c:	1f 91       	pop	r17
    355e:	0f 91       	pop	r16
    3560:	08 95       	ret

00003562 <toggleCH>:
    3562:	0f 93       	push	r16
    3564:	1f 93       	push	r17
    3566:	cf 93       	push	r28
    3568:	df 93       	push	r29
    356a:	81 50       	subi	r24, 0x01	; 1
    356c:	90 e0       	ldi	r25, 0x00	; 0
    356e:	fc 01       	movw	r30, r24
    3570:	e0 5a       	subi	r30, 0xA0	; 160
    3572:	fe 4f       	sbci	r31, 0xFE	; 254
    3574:	20 81       	ld	r18, Z
    3576:	31 e0       	ldi	r19, 0x01	; 1
    3578:	23 27       	eor	r18, r19
    357a:	20 83       	st	Z, r18
    357c:	21 11       	cpse	r18, r1
    357e:	19 c0       	rjmp	.+50     	; 0x35b2 <toggleCH+0x50>
    3580:	10 e0       	ldi	r17, 0x00	; 0
    3582:	00 e0       	ldi	r16, 0x00	; 0
    3584:	88 0f       	add	r24, r24
    3586:	99 1f       	adc	r25, r25
    3588:	ec 01       	movw	r28, r24
    358a:	c4 5a       	subi	r28, 0xA4	; 164
    358c:	de 4f       	sbci	r29, 0xFE	; 254
    358e:	e8 81       	ld	r30, Y
    3590:	f9 81       	ldd	r31, Y+1	; 0x01
    3592:	e0 0f       	add	r30, r16
    3594:	f1 1f       	adc	r31, r17
    3596:	60 81       	ld	r22, Z
    3598:	70 e0       	ldi	r23, 0x00	; 0
    359a:	50 e0       	ldi	r21, 0x00	; 0
    359c:	40 e0       	ldi	r20, 0x00	; 0
    359e:	c8 01       	movw	r24, r16
    35a0:	05 96       	adiw	r24, 0x05	; 5
    35a2:	0e 94 50 08 	call	0x10a0	; 0x10a0 <tft_drawPixel>
    35a6:	0f 5f       	subi	r16, 0xFF	; 255
    35a8:	1f 4f       	sbci	r17, 0xFF	; 255
    35aa:	00 39       	cpi	r16, 0x90	; 144
    35ac:	81 e0       	ldi	r24, 0x01	; 1
    35ae:	18 07       	cpc	r17, r24
    35b0:	71 f7       	brne	.-36     	; 0x358e <toggleCH+0x2c>
    35b2:	df 91       	pop	r29
    35b4:	cf 91       	pop	r28
    35b6:	1f 91       	pop	r17
    35b8:	0f 91       	pop	r16
    35ba:	0c 94 94 19 	jmp	0x3328	; 0x3328 <updateSidebarLabels>

000035be <toggleInvert>:
    35be:	81 50       	subi	r24, 0x01	; 1
    35c0:	e8 2f       	mov	r30, r24
    35c2:	f0 e0       	ldi	r31, 0x00	; 0
    35c4:	ec 5e       	subi	r30, 0xEC	; 236
    35c6:	fb 4f       	sbci	r31, 0xFB	; 251
    35c8:	80 81       	ld	r24, Z
    35ca:	91 e0       	ldi	r25, 0x01	; 1
    35cc:	89 27       	eor	r24, r25
    35ce:	80 83       	st	Z, r24
    35d0:	64 e6       	ldi	r22, 0x64	; 100
    35d2:	72 e0       	ldi	r23, 0x02	; 2
    35d4:	88 23       	and	r24, r24
    35d6:	11 f0       	breq	.+4      	; 0x35dc <toggleInvert+0x1e>
    35d8:	6e e5       	ldi	r22, 0x5E	; 94
    35da:	72 e0       	ldi	r23, 0x02	; 2
    35dc:	4f ef       	ldi	r20, 0xFF	; 255
    35de:	5f ef       	ldi	r21, 0xFF	; 255
    35e0:	83 e0       	ldi	r24, 0x03	; 3
    35e2:	0c 94 5b 15 	jmp	0x2ab6	; 0x2ab6 <drawMenuButton.constprop.3>

000035e6 <toggleYPosMode>:
    35e6:	80 91 13 04 	lds	r24, 0x0413	; 0x800413 <encoderMode>
    35ea:	81 30       	cpi	r24, 0x01	; 1
    35ec:	79 f4       	brne	.+30     	; 0x360c <toggleYPosMode+0x26>
    35ee:	10 92 13 04 	sts	0x0413, r1	; 0x800413 <encoderMode>
    35f2:	80 91 13 04 	lds	r24, 0x0413	; 0x800413 <encoderMode>
    35f6:	6b e6       	ldi	r22, 0x6B	; 107
    35f8:	72 e0       	ldi	r23, 0x02	; 2
    35fa:	81 30       	cpi	r24, 0x01	; 1
    35fc:	11 f0       	breq	.+4      	; 0x3602 <toggleYPosMode+0x1c>
    35fe:	69 ee       	ldi	r22, 0xE9	; 233
    3600:	72 e0       	ldi	r23, 0x02	; 2
    3602:	4f ef       	ldi	r20, 0xFF	; 255
    3604:	5f ef       	ldi	r21, 0xFF	; 255
    3606:	84 e0       	ldi	r24, 0x04	; 4
    3608:	0c 94 5b 15 	jmp	0x2ab6	; 0x2ab6 <drawMenuButton.constprop.3>
    360c:	81 e0       	ldi	r24, 0x01	; 1
    360e:	80 93 13 04 	sts	0x0413, r24	; 0x800413 <encoderMode>
    3612:	ef cf       	rjmp	.-34     	; 0x35f2 <toggleYPosMode+0xc>

00003614 <toggleTrigLevelMode>:
    3614:	80 91 13 04 	lds	r24, 0x0413	; 0x800413 <encoderMode>
    3618:	82 30       	cpi	r24, 0x02	; 2
    361a:	79 f4       	brne	.+30     	; 0x363a <toggleTrigLevelMode+0x26>
    361c:	10 92 13 04 	sts	0x0413, r1	; 0x800413 <encoderMode>
    3620:	80 91 13 04 	lds	r24, 0x0413	; 0x800413 <encoderMode>
    3624:	6f ee       	ldi	r22, 0xEF	; 239
    3626:	72 e0       	ldi	r23, 0x02	; 2
    3628:	82 30       	cpi	r24, 0x02	; 2
    362a:	11 f0       	breq	.+4      	; 0x3630 <toggleTrigLevelMode+0x1c>
    362c:	6b e8       	ldi	r22, 0x8B	; 139
    362e:	72 e0       	ldi	r23, 0x02	; 2
    3630:	4f ef       	ldi	r20, 0xFF	; 255
    3632:	5f ef       	ldi	r21, 0xFF	; 255
    3634:	84 e0       	ldi	r24, 0x04	; 4
    3636:	0c 94 5b 15 	jmp	0x2ab6	; 0x2ab6 <drawMenuButton.constprop.3>
    363a:	82 e0       	ldi	r24, 0x02	; 2
    363c:	80 93 13 04 	sts	0x0413, r24	; 0x800413 <encoderMode>
    3640:	ef cf       	rjmp	.-34     	; 0x3620 <toggleTrigLevelMode+0xc>

00003642 <scale_8bit_to_pixel>:
    3642:	cf 92       	push	r12
    3644:	df 92       	push	r13
    3646:	ef 92       	push	r14
    3648:	ff 92       	push	r15
    364a:	cf 93       	push	r28
    364c:	df 93       	push	r29
    364e:	80 58       	subi	r24, 0x80	; 128
    3650:	99 0b       	sbc	r25, r25
    3652:	c1 2c       	mov	r12, r1
    3654:	d1 2c       	mov	r13, r1
    3656:	30 e8       	ldi	r19, 0x80	; 128
    3658:	e3 2e       	mov	r14, r19
    365a:	3f e3       	ldi	r19, 0x3F	; 63
    365c:	f3 2e       	mov	r15, r19
    365e:	6a 30       	cpi	r22, 0x0A	; 10
    3660:	50 f4       	brcc	.+20     	; 0x3676 <scale_8bit_to_pixel+0x34>
    3662:	24 e0       	ldi	r18, 0x04	; 4
    3664:	62 9f       	mul	r22, r18
    3666:	f0 01       	movw	r30, r0
    3668:	11 24       	eor	r1, r1
    366a:	e7 57       	subi	r30, 0x77	; 119
    366c:	fe 4f       	sbci	r31, 0xFE	; 254
    366e:	c0 80       	ld	r12, Z
    3670:	d1 80       	ldd	r13, Z+1	; 0x01
    3672:	e2 80       	ldd	r14, Z+2	; 0x02
    3674:	f3 80       	ldd	r15, Z+3	; 0x03
    3676:	c0 91 67 01 	lds	r28, 0x0167	; 0x800167 <trigger_source>
    367a:	c1 50       	subi	r28, 0x01	; 1
    367c:	dd 0b       	sbc	r29, r29
    367e:	cc 0f       	add	r28, r28
    3680:	dd 1f       	adc	r29, r29
    3682:	ca 5a       	subi	r28, 0xAA	; 170
    3684:	de 4f       	sbci	r29, 0xFE	; 254
    3686:	bc 01       	movw	r22, r24
    3688:	99 0f       	add	r25, r25
    368a:	88 0b       	sbc	r24, r24
    368c:	99 0b       	sbc	r25, r25
    368e:	0e 94 09 22 	call	0x4412	; 0x4412 <__floatsisf>
    3692:	a7 01       	movw	r20, r14
    3694:	96 01       	movw	r18, r12
    3696:	0e 94 be 22 	call	0x457c	; 0x457c <__mulsf3>
    369a:	0e 94 d1 21 	call	0x43a2	; 0x43a2 <__fixsfsi>
    369e:	28 81       	ld	r18, Y
    36a0:	39 81       	ldd	r19, Y+1	; 0x01
    36a2:	c9 01       	movw	r24, r18
    36a4:	86 1b       	sub	r24, r22
    36a6:	97 0b       	sbc	r25, r23
    36a8:	8a 30       	cpi	r24, 0x0A	; 10
    36aa:	21 e0       	ldi	r18, 0x01	; 1
    36ac:	92 07       	cpc	r25, r18
    36ae:	14 f0       	brlt	.+4      	; 0x36b4 <scale_8bit_to_pixel+0x72>
    36b0:	89 e0       	ldi	r24, 0x09	; 9
    36b2:	91 e0       	ldi	r25, 0x01	; 1
    36b4:	89 31       	cpi	r24, 0x19	; 25
    36b6:	91 05       	cpc	r25, r1
    36b8:	14 f4       	brge	.+4      	; 0x36be <scale_8bit_to_pixel+0x7c>
    36ba:	89 e1       	ldi	r24, 0x19	; 25
    36bc:	90 e0       	ldi	r25, 0x00	; 0
    36be:	df 91       	pop	r29
    36c0:	cf 91       	pop	r28
    36c2:	ff 90       	pop	r15
    36c4:	ef 90       	pop	r14
    36c6:	df 90       	pop	r13
    36c8:	cf 90       	pop	r12
    36ca:	08 95       	ret

000036cc <read_fpga_frequency>:
    36cc:	30 b1       	in	r19, 0x00	; 0
    36ce:	21 b1       	in	r18, 0x01	; 1
    36d0:	62 b1       	in	r22, 0x02	; 2
    36d2:	43 b1       	in	r20, 0x03	; 3
    36d4:	70 e0       	ldi	r23, 0x00	; 0
    36d6:	90 e0       	ldi	r25, 0x00	; 0
    36d8:	80 e0       	ldi	r24, 0x00	; 0
    36da:	cb 01       	movw	r24, r22
    36dc:	77 27       	eor	r23, r23
    36de:	66 27       	eor	r22, r22
    36e0:	94 2b       	or	r25, r20
    36e2:	63 2b       	or	r22, r19
    36e4:	72 2b       	or	r23, r18
    36e6:	61 15       	cp	r22, r1
    36e8:	71 05       	cpc	r23, r1
    36ea:	81 05       	cpc	r24, r1
    36ec:	91 05       	cpc	r25, r1
    36ee:	59 f0       	breq	.+22     	; 0x3706 <read_fpga_frequency+0x3a>
    36f0:	0e 94 07 22 	call	0x440e	; 0x440e <__floatunsisf>
    36f4:	9b 01       	movw	r18, r22
    36f6:	ac 01       	movw	r20, r24
    36f8:	60 e8       	ldi	r22, 0x80	; 128
    36fa:	76 e9       	ldi	r23, 0x96	; 150
    36fc:	88 e1       	ldi	r24, 0x18	; 24
    36fe:	9f e4       	ldi	r25, 0x4F	; 79
    3700:	0e 94 5f 21 	call	0x42be	; 0x42be <__divsf3>
    3704:	08 95       	ret
    3706:	60 e0       	ldi	r22, 0x00	; 0
    3708:	70 e0       	ldi	r23, 0x00	; 0
    370a:	cb 01       	movw	r24, r22
    370c:	08 95       	ret

0000370e <draw_trigger_line>:
    370e:	df 92       	push	r13
    3710:	ef 92       	push	r14
    3712:	ff 92       	push	r15
    3714:	0f 93       	push	r16
    3716:	1f 93       	push	r17
    3718:	cf 93       	push	r28
    371a:	df 93       	push	r29
    371c:	8c 01       	movw	r16, r24
    371e:	7b 01       	movw	r14, r22
    3720:	d4 2e       	mov	r13, r20
    3722:	e0 91 67 01 	lds	r30, 0x0167	; 0x800167 <trigger_source>
    3726:	e1 50       	subi	r30, 0x01	; 1
    3728:	ff 0b       	sbc	r31, r31
    372a:	ee 0f       	add	r30, r30
    372c:	ff 1f       	adc	r31, r31
    372e:	ea 5a       	subi	r30, 0xAA	; 170
    3730:	fe 4f       	sbci	r31, 0xFE	; 254
    3732:	c0 81       	ld	r28, Z
    3734:	d1 81       	ldd	r29, Z+1	; 0x01
    3736:	60 91 4c 01 	lds	r22, 0x014C	; 0x80014c <last_trig_y>
    373a:	70 91 4d 01 	lds	r23, 0x014D	; 0x80014d <last_trig_y+0x1>
    373e:	cb 01       	movw	r24, r22
    3740:	49 97       	sbiw	r24, 0x19	; 25
    3742:	81 3f       	cpi	r24, 0xF1	; 241
    3744:	91 05       	cpc	r25, r1
    3746:	40 f4       	brcc	.+16     	; 0x3758 <draw_trigger_line+0x4a>
    3748:	30 e0       	ldi	r19, 0x00	; 0
    374a:	20 e0       	ldi	r18, 0x00	; 0
    374c:	40 e9       	ldi	r20, 0x90	; 144
    374e:	51 e0       	ldi	r21, 0x01	; 1
    3750:	85 e0       	ldi	r24, 0x05	; 5
    3752:	90 e0       	ldi	r25, 0x00	; 0
    3754:	0e 94 73 08 	call	0x10e6	; 0x10e6 <tft_drawFastHLine>
    3758:	d1 10       	cpse	r13, r1
    375a:	21 c0       	rjmp	.+66     	; 0x379e <draw_trigger_line+0x90>
    375c:	84 e0       	ldi	r24, 0x04	; 4
    375e:	16 95       	lsr	r17
    3760:	07 95       	ror	r16
    3762:	8a 95       	dec	r24
    3764:	e1 f7       	brne	.-8      	; 0x375e <draw_trigger_line+0x50>
    3766:	00 95       	com	r16
    3768:	06 95       	lsr	r16
    376a:	c0 0f       	add	r28, r16
    376c:	d1 1d       	adc	r29, r1
    376e:	ce 01       	movw	r24, r28
    3770:	4a 97       	sbiw	r24, 0x1a	; 26
    3772:	8f 3e       	cpi	r24, 0xEF	; 239
    3774:	91 05       	cpc	r25, r1
    3776:	d8 f4       	brcc	.+54     	; 0x37ae <draw_trigger_line+0xa0>
    3778:	05 e0       	ldi	r16, 0x05	; 5
    377a:	10 e0       	ldi	r17, 0x00	; 0
    377c:	97 01       	movw	r18, r14
    377e:	45 e0       	ldi	r20, 0x05	; 5
    3780:	50 e0       	ldi	r21, 0x00	; 0
    3782:	be 01       	movw	r22, r28
    3784:	c8 01       	movw	r24, r16
    3786:	0e 94 73 08 	call	0x10e6	; 0x10e6 <tft_drawFastHLine>
    378a:	06 5f       	subi	r16, 0xF6	; 246
    378c:	1f 4f       	sbci	r17, 0xFF	; 255
    378e:	05 39       	cpi	r16, 0x95	; 149
    3790:	81 e0       	ldi	r24, 0x01	; 1
    3792:	18 07       	cpc	r17, r24
    3794:	99 f7       	brne	.-26     	; 0x377c <draw_trigger_line+0x6e>
    3796:	d0 93 4d 01 	sts	0x014D, r29	; 0x80014d <last_trig_y+0x1>
    379a:	c0 93 4c 01 	sts	0x014C, r28	; 0x80014c <last_trig_y>
    379e:	df 91       	pop	r29
    37a0:	cf 91       	pop	r28
    37a2:	1f 91       	pop	r17
    37a4:	0f 91       	pop	r16
    37a6:	ff 90       	pop	r15
    37a8:	ef 90       	pop	r14
    37aa:	df 90       	pop	r13
    37ac:	08 95       	ret
    37ae:	10 92 4d 01 	sts	0x014D, r1	; 0x80014d <last_trig_y+0x1>
    37b2:	10 92 4c 01 	sts	0x014C, r1	; 0x80014c <last_trig_y>
    37b6:	f3 cf       	rjmp	.-26     	; 0x379e <draw_trigger_line+0x90>

000037b8 <acquire_and_draw>:
    37b8:	cf 92       	push	r12
    37ba:	ef 92       	push	r14
    37bc:	0f 93       	push	r16
    37be:	1f 93       	push	r17
    37c0:	80 91 4b 01 	lds	r24, 0x014B	; 0x80014b <is_running>
    37c4:	81 11       	cpse	r24, r1
    37c6:	09 c0       	rjmp	.+18     	; 0x37da <acquire_and_draw+0x22>
    37c8:	80 91 21 04 	lds	r24, 0x0421	; 0x800421 <trigger_mode>
    37cc:	82 30       	cpi	r24, 0x02	; 2
    37ce:	09 f0       	breq	.+2      	; 0x37d2 <acquire_and_draw+0x1a>
    37d0:	49 c0       	rjmp	.+146    	; 0x3864 <acquire_and_draw+0xac>
    37d2:	80 91 1b 04 	lds	r24, 0x041B	; 0x80041b <freeze>
    37d6:	81 11       	cpse	r24, r1
    37d8:	45 c0       	rjmp	.+138    	; 0x3864 <acquire_and_draw+0xac>
    37da:	88 e1       	ldi	r24, 0x18	; 24
    37dc:	96 ec       	ldi	r25, 0xC6	; 198
    37de:	0e 94 3b 16 	call	0x2c76	; 0x2c76 <tft_drawGrid>
    37e2:	60 e8       	ldi	r22, 0x80	; 128
    37e4:	7a e0       	ldi	r23, 0x0A	; 10
    37e6:	80 e1       	ldi	r24, 0x10	; 16
    37e8:	9c e0       	ldi	r25, 0x0C	; 12
    37ea:	0e 94 97 16 	call	0x2d2e	; 0x2d2e <osc_read_triggered>
    37ee:	20 91 56 01 	lds	r18, 0x0156	; 0x800156 <y_offset_ch>
    37f2:	30 91 57 01 	lds	r19, 0x0157	; 0x800157 <y_offset_ch+0x1>
    37f6:	c0 90 60 01 	lds	r12, 0x0160	; 0x800160 <ch_visible>
    37fa:	e0 90 14 04 	lds	r14, 0x0414	; 0x800414 <ch_inverted>
    37fe:	00 ee       	ldi	r16, 0xE0	; 224
    3800:	17 e0       	ldi	r17, 0x07	; 7
    3802:	40 e9       	ldi	r20, 0x90	; 144
    3804:	51 e0       	ldi	r21, 0x01	; 1
    3806:	6a e3       	ldi	r22, 0x3A	; 58
    3808:	74 e0       	ldi	r23, 0x04	; 4
    380a:	80 e1       	ldi	r24, 0x10	; 16
    380c:	9c e0       	ldi	r25, 0x0C	; 12
    380e:	0e 94 ae 15 	call	0x2b5c	; 0x2b5c <draw_trace>
    3812:	20 91 58 01 	lds	r18, 0x0158	; 0x800158 <y_offset_ch+0x2>
    3816:	30 91 59 01 	lds	r19, 0x0159	; 0x800159 <y_offset_ch+0x3>
    381a:	c0 90 61 01 	lds	r12, 0x0161	; 0x800161 <ch_visible+0x1>
    381e:	e0 90 15 04 	lds	r14, 0x0415	; 0x800415 <ch_inverted+0x1>
    3822:	00 e0       	ldi	r16, 0x00	; 0
    3824:	18 ef       	ldi	r17, 0xF8	; 248
    3826:	40 e9       	ldi	r20, 0x90	; 144
    3828:	51 e0       	ldi	r21, 0x01	; 1
    382a:	6a e5       	ldi	r22, 0x5A	; 90
    382c:	77 e0       	ldi	r23, 0x07	; 7
    382e:	80 e8       	ldi	r24, 0x80	; 128
    3830:	9a e0       	ldi	r25, 0x0A	; 10
    3832:	0e 94 ae 15 	call	0x2b5c	; 0x2b5c <draw_trace>
    3836:	40 e0       	ldi	r20, 0x00	; 0
    3838:	60 ee       	ldi	r22, 0xE0	; 224
    383a:	7f ef       	ldi	r23, 0xFF	; 255
    383c:	80 91 5a 01 	lds	r24, 0x015A	; 0x80015a <trigger_level_12bit>
    3840:	90 91 5b 01 	lds	r25, 0x015B	; 0x80015b <trigger_level_12bit+0x1>
    3844:	0e 94 87 1b 	call	0x370e	; 0x370e <draw_trigger_line>
    3848:	60 ee       	ldi	r22, 0xE0	; 224
    384a:	77 e0       	ldi	r23, 0x07	; 7
    384c:	80 e0       	ldi	r24, 0x00	; 0
    384e:	0e 94 42 17 	call	0x2e84	; 0x2e84 <draw_ground_marker>
    3852:	60 e0       	ldi	r22, 0x00	; 0
    3854:	78 ef       	ldi	r23, 0xF8	; 248
    3856:	81 e0       	ldi	r24, 0x01	; 1
    3858:	1f 91       	pop	r17
    385a:	0f 91       	pop	r16
    385c:	ef 90       	pop	r14
    385e:	cf 90       	pop	r12
    3860:	0c 94 42 17 	jmp	0x2e84	; 0x2e84 <draw_ground_marker>
    3864:	1f 91       	pop	r17
    3866:	0f 91       	pop	r16
    3868:	ef 90       	pop	r14
    386a:	cf 90       	pop	r12
    386c:	08 95       	ret

0000386e <get_system_status_code>:
    386e:	80 91 4b 01 	lds	r24, 0x014B	; 0x80014b <is_running>
    3872:	88 23       	and	r24, r24
    3874:	79 f0       	breq	.+30     	; 0x3894 <get_system_status_code+0x26>
    3876:	95 b7       	in	r25, 0x35	; 53
    3878:	80 91 21 04 	lds	r24, 0x0421	; 0x800421 <trigger_mode>
    387c:	82 30       	cpi	r24, 0x02	; 2
    387e:	29 f4       	brne	.+10     	; 0x388a <get_system_status_code+0x1c>
    3880:	80 91 1b 04 	lds	r24, 0x041B	; 0x80041b <freeze>
    3884:	91 e0       	ldi	r25, 0x01	; 1
    3886:	89 27       	eor	r24, r25
    3888:	08 95       	ret
    388a:	81 30       	cpi	r24, 0x01	; 1
    388c:	29 f4       	brne	.+10     	; 0x3898 <get_system_status_code+0x2a>
    388e:	91 fd       	sbrc	r25, 1
    3890:	05 c0       	rjmp	.+10     	; 0x389c <get_system_status_code+0x2e>
    3892:	08 95       	ret
    3894:	80 e0       	ldi	r24, 0x00	; 0
    3896:	08 95       	ret
    3898:	83 e0       	ldi	r24, 0x03	; 3
    389a:	08 95       	ret
    389c:	82 e0       	ldi	r24, 0x02	; 2
    389e:	08 95       	ret

000038a0 <update_status_bar>:
    38a0:	cf 92       	push	r12
    38a2:	df 92       	push	r13
    38a4:	ef 92       	push	r14
    38a6:	ff 92       	push	r15
    38a8:	0f 93       	push	r16
    38aa:	1f 93       	push	r17
    38ac:	cf 93       	push	r28
    38ae:	df 93       	push	r29
    38b0:	c8 2f       	mov	r28, r24
    38b2:	81 e0       	ldi	r24, 0x01	; 1
    38b4:	0e 94 d9 09 	call	0x13b2	; 0x13b2 <setTextSize>
    38b8:	0e 94 37 1c 	call	0x386e	; 0x386e <get_system_status_code>
    38bc:	d8 2f       	mov	r29, r24
    38be:	c1 11       	cpse	r28, r1
    38c0:	04 c0       	rjmp	.+8      	; 0x38ca <update_status_bar+0x2a>
    38c2:	80 91 05 01 	lds	r24, 0x0105	; 0x800105 <last_ui_state.2291>
    38c6:	8d 17       	cp	r24, r29
    38c8:	f1 f0       	breq	.+60     	; 0x3906 <update_status_bar+0x66>
    38ca:	2f ef       	ldi	r18, 0xFF	; 255
    38cc:	3f ef       	ldi	r19, 0xFF	; 255
    38ce:	89 ef       	ldi	r24, 0xF9	; 249
    38d0:	92 e0       	ldi	r25, 0x02	; 2
    38d2:	d4 30       	cpi	r29, 0x04	; 4
    38d4:	70 f4       	brcc	.+28     	; 0x38f2 <update_status_bar+0x52>
    38d6:	2d 2f       	mov	r18, r29
    38d8:	30 e0       	ldi	r19, 0x00	; 0
    38da:	22 0f       	add	r18, r18
    38dc:	33 1f       	adc	r19, r19
    38de:	f9 01       	movw	r30, r18
    38e0:	ef 57       	subi	r30, 0x7F	; 127
    38e2:	fe 4f       	sbci	r31, 0xFE	; 254
    38e4:	80 81       	ld	r24, Z
    38e6:	91 81       	ldd	r25, Z+1	; 0x01
    38e8:	27 58       	subi	r18, 0x87	; 135
    38ea:	3e 4f       	sbci	r19, 0xFE	; 254
    38ec:	f9 01       	movw	r30, r18
    38ee:	20 81       	ld	r18, Z
    38f0:	31 81       	ldd	r19, Z+1	; 0x01
    38f2:	06 e8       	ldi	r16, 0x86	; 134
    38f4:	11 e3       	ldi	r17, 0x31	; 49
    38f6:	45 e0       	ldi	r20, 0x05	; 5
    38f8:	50 e0       	ldi	r21, 0x00	; 0
    38fa:	6a e0       	ldi	r22, 0x0A	; 10
    38fc:	70 e0       	ldi	r23, 0x00	; 0
    38fe:	0e 94 61 11 	call	0x22c2	; 0x22c2 <tft_printAt>
    3902:	d0 93 05 01 	sts	0x0105, r29	; 0x800105 <last_ui_state.2291>
    3906:	90 91 7f 0a 	lds	r25, 0x0A7F	; 0x800a7f <old_ch1_vdiv_idx>
    390a:	80 91 36 01 	lds	r24, 0x0136	; 0x800136 <ch1_vdiv_idx>
    390e:	98 13       	cpse	r25, r24
    3910:	08 c0       	rjmp	.+16     	; 0x3922 <update_status_bar+0x82>
    3912:	90 91 32 01 	lds	r25, 0x0132	; 0x800132 <old_ch_coupling>
    3916:	80 91 18 04 	lds	r24, 0x0418	; 0x800418 <ch_coupling>
    391a:	98 13       	cpse	r25, r24
    391c:	02 c0       	rjmp	.+4      	; 0x3922 <update_status_bar+0x82>
    391e:	cc 23       	and	r28, r28
    3920:	d9 f1       	breq	.+118    	; 0x3998 <update_status_bar+0xf8>
    3922:	10 e0       	ldi	r17, 0x00	; 0
    3924:	00 e0       	ldi	r16, 0x00	; 0
    3926:	20 e1       	ldi	r18, 0x10	; 16
    3928:	30 e0       	ldi	r19, 0x00	; 0
    392a:	44 e6       	ldi	r20, 0x64	; 100
    392c:	50 e0       	ldi	r21, 0x00	; 0
    392e:	63 e1       	ldi	r22, 0x13	; 19
    3930:	71 e0       	ldi	r23, 0x01	; 1
    3932:	85 e0       	ldi	r24, 0x05	; 5
    3934:	90 e0       	ldi	r25, 0x00	; 0
    3936:	0e 94 0a 08 	call	0x1014	; 0x1014 <tft_fillRect>
    393a:	70 e0       	ldi	r23, 0x00	; 0
    393c:	60 e0       	ldi	r22, 0x00	; 0
    393e:	8f ef       	ldi	r24, 0xFF	; 255
    3940:	97 e0       	ldi	r25, 0x07	; 7
    3942:	0e 94 d0 09 	call	0x13a0	; 0x13a0 <setTextColor>
    3946:	63 e1       	ldi	r22, 0x13	; 19
    3948:	71 e0       	ldi	r23, 0x01	; 1
    394a:	85 e0       	ldi	r24, 0x05	; 5
    394c:	90 e0       	ldi	r25, 0x00	; 0
    394e:	0e 94 47 08 	call	0x108e	; 0x108e <tft_set_cursor>
    3952:	8d ef       	ldi	r24, 0xFD	; 253
    3954:	92 e0       	ldi	r25, 0x02	; 2
    3956:	0e 94 1b 11 	call	0x2236	; 0x2236 <tft_Print>
    395a:	e0 91 36 01 	lds	r30, 0x0136	; 0x800136 <ch1_vdiv_idx>
    395e:	f0 e0       	ldi	r31, 0x00	; 0
    3960:	ee 0f       	add	r30, r30
    3962:	ff 1f       	adc	r31, r31
    3964:	e9 5c       	subi	r30, 0xC9	; 201
    3966:	fe 4f       	sbci	r31, 0xFE	; 254
    3968:	80 81       	ld	r24, Z
    396a:	91 81       	ldd	r25, Z+1	; 0x01
    396c:	0e 94 1b 11 	call	0x2236	; 0x2236 <tft_Print>
    3970:	87 ee       	ldi	r24, 0xE7	; 231
    3972:	92 e0       	ldi	r25, 0x02	; 2
    3974:	0e 94 1b 11 	call	0x2236	; 0x2236 <tft_Print>
    3978:	80 91 18 04 	lds	r24, 0x0418	; 0x800418 <ch_coupling>
    397c:	81 11       	cpse	r24, r1
    397e:	22 c1       	rjmp	.+580    	; 0x3bc4 <update_status_bar+0x324>
    3980:	8e e2       	ldi	r24, 0x2E	; 46
    3982:	92 e0       	ldi	r25, 0x02	; 2
    3984:	0e 94 1b 11 	call	0x2236	; 0x2236 <tft_Print>
    3988:	80 91 36 01 	lds	r24, 0x0136	; 0x800136 <ch1_vdiv_idx>
    398c:	80 93 7f 0a 	sts	0x0A7F, r24	; 0x800a7f <old_ch1_vdiv_idx>
    3990:	80 91 18 04 	lds	r24, 0x0418	; 0x800418 <ch_coupling>
    3994:	80 93 32 01 	sts	0x0132, r24	; 0x800132 <old_ch_coupling>
    3998:	90 91 7a 0a 	lds	r25, 0x0A7A	; 0x800a7a <old_ch2_vdiv_idx>
    399c:	80 91 35 01 	lds	r24, 0x0135	; 0x800135 <ch2_vdiv_idx>
    39a0:	98 13       	cpse	r25, r24
    39a2:	08 c0       	rjmp	.+16     	; 0x39b4 <update_status_bar+0x114>
    39a4:	90 91 33 01 	lds	r25, 0x0133	; 0x800133 <old_ch_coupling+0x1>
    39a8:	80 91 19 04 	lds	r24, 0x0419	; 0x800419 <ch_coupling+0x1>
    39ac:	98 13       	cpse	r25, r24
    39ae:	02 c0       	rjmp	.+4      	; 0x39b4 <update_status_bar+0x114>
    39b0:	cc 23       	and	r28, r28
    39b2:	d9 f1       	breq	.+118    	; 0x3a2a <update_status_bar+0x18a>
    39b4:	10 e0       	ldi	r17, 0x00	; 0
    39b6:	00 e0       	ldi	r16, 0x00	; 0
    39b8:	20 e1       	ldi	r18, 0x10	; 16
    39ba:	30 e0       	ldi	r19, 0x00	; 0
    39bc:	44 e6       	ldi	r20, 0x64	; 100
    39be:	50 e0       	ldi	r21, 0x00	; 0
    39c0:	63 e1       	ldi	r22, 0x13	; 19
    39c2:	71 e0       	ldi	r23, 0x01	; 1
    39c4:	89 e6       	ldi	r24, 0x69	; 105
    39c6:	90 e0       	ldi	r25, 0x00	; 0
    39c8:	0e 94 0a 08 	call	0x1014	; 0x1014 <tft_fillRect>
    39cc:	70 e0       	ldi	r23, 0x00	; 0
    39ce:	60 e0       	ldi	r22, 0x00	; 0
    39d0:	80 ee       	ldi	r24, 0xE0	; 224
    39d2:	9f ef       	ldi	r25, 0xFF	; 255
    39d4:	0e 94 d0 09 	call	0x13a0	; 0x13a0 <setTextColor>
    39d8:	63 e1       	ldi	r22, 0x13	; 19
    39da:	71 e0       	ldi	r23, 0x01	; 1
    39dc:	89 e6       	ldi	r24, 0x69	; 105
    39de:	90 e0       	ldi	r25, 0x00	; 0
    39e0:	0e 94 47 08 	call	0x108e	; 0x108e <tft_set_cursor>
    39e4:	83 e0       	ldi	r24, 0x03	; 3
    39e6:	93 e0       	ldi	r25, 0x03	; 3
    39e8:	0e 94 1b 11 	call	0x2236	; 0x2236 <tft_Print>
    39ec:	e0 91 35 01 	lds	r30, 0x0135	; 0x800135 <ch2_vdiv_idx>
    39f0:	f0 e0       	ldi	r31, 0x00	; 0
    39f2:	ee 0f       	add	r30, r30
    39f4:	ff 1f       	adc	r31, r31
    39f6:	e9 5c       	subi	r30, 0xC9	; 201
    39f8:	fe 4f       	sbci	r31, 0xFE	; 254
    39fa:	80 81       	ld	r24, Z
    39fc:	91 81       	ldd	r25, Z+1	; 0x01
    39fe:	0e 94 1b 11 	call	0x2236	; 0x2236 <tft_Print>
    3a02:	87 ee       	ldi	r24, 0xE7	; 231
    3a04:	92 e0       	ldi	r25, 0x02	; 2
    3a06:	0e 94 1b 11 	call	0x2236	; 0x2236 <tft_Print>
    3a0a:	80 91 19 04 	lds	r24, 0x0419	; 0x800419 <ch_coupling+0x1>
    3a0e:	81 11       	cpse	r24, r1
    3a10:	dc c0       	rjmp	.+440    	; 0x3bca <update_status_bar+0x32a>
    3a12:	8e e2       	ldi	r24, 0x2E	; 46
    3a14:	92 e0       	ldi	r25, 0x02	; 2
    3a16:	0e 94 1b 11 	call	0x2236	; 0x2236 <tft_Print>
    3a1a:	80 91 35 01 	lds	r24, 0x0135	; 0x800135 <ch2_vdiv_idx>
    3a1e:	80 93 7a 0a 	sts	0x0A7A, r24	; 0x800a7a <old_ch2_vdiv_idx>
    3a22:	80 91 19 04 	lds	r24, 0x0419	; 0x800419 <ch_coupling+0x1>
    3a26:	80 93 33 01 	sts	0x0133, r24	; 0x800133 <old_ch_coupling+0x1>
    3a2a:	90 91 34 01 	lds	r25, 0x0134	; 0x800134 <old_current_time_base_idx>
    3a2e:	80 91 12 04 	lds	r24, 0x0412	; 0x800412 <current_time_base_idx>
    3a32:	98 13       	cpse	r25, r24
    3a34:	02 c0       	rjmp	.+4      	; 0x3a3a <update_status_bar+0x19a>
    3a36:	cc 23       	and	r28, r28
    3a38:	79 f1       	breq	.+94     	; 0x3a98 <update_status_bar+0x1f8>
    3a3a:	10 e0       	ldi	r17, 0x00	; 0
    3a3c:	00 e0       	ldi	r16, 0x00	; 0
    3a3e:	20 e1       	ldi	r18, 0x10	; 16
    3a40:	30 e0       	ldi	r19, 0x00	; 0
    3a42:	44 e6       	ldi	r20, 0x64	; 100
    3a44:	50 e0       	ldi	r21, 0x00	; 0
    3a46:	63 e1       	ldi	r22, 0x13	; 19
    3a48:	71 e0       	ldi	r23, 0x01	; 1
    3a4a:	87 ed       	ldi	r24, 0xD7	; 215
    3a4c:	90 e0       	ldi	r25, 0x00	; 0
    3a4e:	0e 94 0a 08 	call	0x1014	; 0x1014 <tft_fillRect>
    3a52:	70 e0       	ldi	r23, 0x00	; 0
    3a54:	60 e0       	ldi	r22, 0x00	; 0
    3a56:	8f ef       	ldi	r24, 0xFF	; 255
    3a58:	9f ef       	ldi	r25, 0xFF	; 255
    3a5a:	0e 94 d0 09 	call	0x13a0	; 0x13a0 <setTextColor>
    3a5e:	63 e1       	ldi	r22, 0x13	; 19
    3a60:	71 e0       	ldi	r23, 0x01	; 1
    3a62:	87 ed       	ldi	r24, 0xD7	; 215
    3a64:	90 e0       	ldi	r25, 0x00	; 0
    3a66:	0e 94 47 08 	call	0x108e	; 0x108e <tft_set_cursor>
    3a6a:	89 e0       	ldi	r24, 0x09	; 9
    3a6c:	93 e0       	ldi	r25, 0x03	; 3
    3a6e:	0e 94 1b 11 	call	0x2236	; 0x2236 <tft_Print>
    3a72:	e0 91 12 04 	lds	r30, 0x0412	; 0x800412 <current_time_base_idx>
    3a76:	f0 e0       	ldi	r31, 0x00	; 0
    3a78:	ee 0f       	add	r30, r30
    3a7a:	ff 1f       	adc	r31, r31
    3a7c:	ea 5f       	subi	r30, 0xFA	; 250
    3a7e:	fe 4f       	sbci	r31, 0xFE	; 254
    3a80:	80 81       	ld	r24, Z
    3a82:	91 81       	ldd	r25, Z+1	; 0x01
    3a84:	0e 94 1b 11 	call	0x2236	; 0x2236 <tft_Print>
    3a88:	80 91 12 04 	lds	r24, 0x0412	; 0x800412 <current_time_base_idx>
    3a8c:	80 93 34 01 	sts	0x0134, r24	; 0x800134 <old_current_time_base_idx>
    3a90:	8d e0       	ldi	r24, 0x0D	; 13
    3a92:	93 e0       	ldi	r25, 0x03	; 3
    3a94:	0e 94 1b 11 	call	0x2236	; 0x2236 <tft_Print>
    3a98:	20 91 30 01 	lds	r18, 0x0130	; 0x800130 <old_trigger_level_12bit>
    3a9c:	30 91 31 01 	lds	r19, 0x0131	; 0x800131 <old_trigger_level_12bit+0x1>
    3aa0:	80 91 5a 01 	lds	r24, 0x015A	; 0x80015a <trigger_level_12bit>
    3aa4:	90 91 5b 01 	lds	r25, 0x015B	; 0x80015b <trigger_level_12bit+0x1>
    3aa8:	28 17       	cp	r18, r24
    3aaa:	39 07       	cpc	r19, r25
    3aac:	19 f4       	brne	.+6      	; 0x3ab4 <update_status_bar+0x214>
    3aae:	cc 23       	and	r28, r28
    3ab0:	09 f4       	brne	.+2      	; 0x3ab4 <update_status_bar+0x214>
    3ab2:	42 c0       	rjmp	.+132    	; 0x3b38 <update_status_bar+0x298>
    3ab4:	10 e0       	ldi	r17, 0x00	; 0
    3ab6:	00 e0       	ldi	r16, 0x00	; 0
    3ab8:	20 e1       	ldi	r18, 0x10	; 16
    3aba:	30 e0       	ldi	r19, 0x00	; 0
    3abc:	44 e6       	ldi	r20, 0x64	; 100
    3abe:	50 e0       	ldi	r21, 0x00	; 0
    3ac0:	63 e1       	ldi	r22, 0x13	; 19
    3ac2:	71 e0       	ldi	r23, 0x01	; 1
    3ac4:	8b e3       	ldi	r24, 0x3B	; 59
    3ac6:	91 e0       	ldi	r25, 0x01	; 1
    3ac8:	0e 94 0a 08 	call	0x1014	; 0x1014 <tft_fillRect>
    3acc:	70 e0       	ldi	r23, 0x00	; 0
    3ace:	60 e0       	ldi	r22, 0x00	; 0
    3ad0:	80 ee       	ldi	r24, 0xE0	; 224
    3ad2:	97 e0       	ldi	r25, 0x07	; 7
    3ad4:	0e 94 d0 09 	call	0x13a0	; 0x13a0 <setTextColor>
    3ad8:	63 e1       	ldi	r22, 0x13	; 19
    3ada:	71 e0       	ldi	r23, 0x01	; 1
    3adc:	8b e3       	ldi	r24, 0x3B	; 59
    3ade:	91 e0       	ldi	r25, 0x01	; 1
    3ae0:	0e 94 47 08 	call	0x108e	; 0x108e <tft_set_cursor>
    3ae4:	82 e1       	ldi	r24, 0x12	; 18
    3ae6:	93 e0       	ldi	r25, 0x03	; 3
    3ae8:	0e 94 1b 11 	call	0x2236	; 0x2236 <tft_Print>
    3aec:	20 91 5a 01 	lds	r18, 0x015A	; 0x80015a <trigger_level_12bit>
    3af0:	30 91 5b 01 	lds	r19, 0x015B	; 0x80015b <trigger_level_12bit+0x1>
    3af4:	a4 ee       	ldi	r26, 0xE4	; 228
    3af6:	bc e0       	ldi	r27, 0x0C	; 12
    3af8:	0e 94 c4 20 	call	0x4188	; 0x4188 <__umulhisi3>
    3afc:	2c e0       	ldi	r18, 0x0C	; 12
    3afe:	96 95       	lsr	r25
    3b00:	87 95       	ror	r24
    3b02:	77 95       	ror	r23
    3b04:	67 95       	ror	r22
    3b06:	2a 95       	dec	r18
    3b08:	d1 f7       	brne	.-12     	; 0x3afe <update_status_bar+0x25e>
    3b0a:	0e 94 07 22 	call	0x440e	; 0x440e <__floatunsisf>
    3b0e:	20 e0       	ldi	r18, 0x00	; 0
    3b10:	30 e0       	ldi	r19, 0x00	; 0
    3b12:	4a e7       	ldi	r20, 0x7A	; 122
    3b14:	54 e4       	ldi	r21, 0x44	; 68
    3b16:	0e 94 5f 21 	call	0x42be	; 0x42be <__divsf3>
    3b1a:	42 e0       	ldi	r20, 0x02	; 2
    3b1c:	0e 94 06 12 	call	0x240c	; 0x240c <tft_print_float>
    3b20:	86 ee       	ldi	r24, 0xE6	; 230
    3b22:	93 e0       	ldi	r25, 0x03	; 3
    3b24:	0e 94 1b 11 	call	0x2236	; 0x2236 <tft_Print>
    3b28:	80 91 5a 01 	lds	r24, 0x015A	; 0x80015a <trigger_level_12bit>
    3b2c:	90 91 5b 01 	lds	r25, 0x015B	; 0x80015b <trigger_level_12bit+0x1>
    3b30:	90 93 31 01 	sts	0x0131, r25	; 0x800131 <old_trigger_level_12bit+0x1>
    3b34:	80 93 30 01 	sts	0x0130, r24	; 0x800130 <old_trigger_level_12bit>
    3b38:	0e 94 66 1b 	call	0x36cc	; 0x36cc <read_fpga_frequency>
    3b3c:	6b 01       	movw	r12, r22
    3b3e:	7c 01       	movw	r14, r24
    3b40:	60 91 2c 01 	lds	r22, 0x012C	; 0x80012c <old_freq>
    3b44:	70 91 2d 01 	lds	r23, 0x012D	; 0x80012d <old_freq+0x1>
    3b48:	80 91 2e 01 	lds	r24, 0x012E	; 0x80012e <old_freq+0x2>
    3b4c:	90 91 2f 01 	lds	r25, 0x012F	; 0x80012f <old_freq+0x3>
    3b50:	0e 94 07 22 	call	0x440e	; 0x440e <__floatunsisf>
    3b54:	a7 01       	movw	r20, r14
    3b56:	96 01       	movw	r18, r12
    3b58:	0e 94 5a 21 	call	0x42b4	; 0x42b4 <__cmpsf2>
    3b5c:	88 23       	and	r24, r24
    3b5e:	09 f4       	brne	.+2      	; 0x3b62 <update_status_bar+0x2c2>
    3b60:	57 c0       	rjmp	.+174    	; 0x3c10 <update_status_bar+0x370>
    3b62:	67 e2       	ldi	r22, 0x27	; 39
    3b64:	71 e0       	ldi	r23, 0x01	; 1
    3b66:	87 ed       	ldi	r24, 0xD7	; 215
    3b68:	90 e0       	ldi	r25, 0x00	; 0
    3b6a:	0e 94 47 08 	call	0x108e	; 0x108e <tft_set_cursor>
    3b6e:	70 e0       	ldi	r23, 0x00	; 0
    3b70:	60 e0       	ldi	r22, 0x00	; 0
    3b72:	8f ef       	ldi	r24, 0xFF	; 255
    3b74:	9f ef       	ldi	r25, 0xFF	; 255
    3b76:	0e 94 d0 09 	call	0x13a0	; 0x13a0 <setTextColor>
    3b7a:	89 e1       	ldi	r24, 0x19	; 25
    3b7c:	93 e0       	ldi	r25, 0x03	; 3
    3b7e:	0e 94 1b 11 	call	0x2236	; 0x2236 <tft_Print>
    3b82:	20 e0       	ldi	r18, 0x00	; 0
    3b84:	34 e2       	ldi	r19, 0x24	; 36
    3b86:	44 e7       	ldi	r20, 0x74	; 116
    3b88:	59 e4       	ldi	r21, 0x49	; 73
    3b8a:	c7 01       	movw	r24, r14
    3b8c:	b6 01       	movw	r22, r12
    3b8e:	0e 94 b9 22 	call	0x4572	; 0x4572 <__gesf2>
    3b92:	18 16       	cp	r1, r24
    3b94:	ec f4       	brge	.+58     	; 0x3bd0 <update_status_bar+0x330>
    3b96:	20 e0       	ldi	r18, 0x00	; 0
    3b98:	34 e2       	ldi	r19, 0x24	; 36
    3b9a:	44 e7       	ldi	r20, 0x74	; 116
    3b9c:	59 e4       	ldi	r21, 0x49	; 73
    3b9e:	c7 01       	movw	r24, r14
    3ba0:	b6 01       	movw	r22, r12
    3ba2:	0e 94 5f 21 	call	0x42be	; 0x42be <__divsf3>
    3ba6:	42 e0       	ldi	r20, 0x02	; 2
    3ba8:	0e 94 06 12 	call	0x240c	; 0x240c <tft_print_float>
    3bac:	8c e1       	ldi	r24, 0x1C	; 28
    3bae:	93 e0       	ldi	r25, 0x03	; 3
    3bb0:	df 91       	pop	r29
    3bb2:	cf 91       	pop	r28
    3bb4:	1f 91       	pop	r17
    3bb6:	0f 91       	pop	r16
    3bb8:	ff 90       	pop	r15
    3bba:	ef 90       	pop	r14
    3bbc:	df 90       	pop	r13
    3bbe:	cf 90       	pop	r12
    3bc0:	0c 94 1b 11 	jmp	0x2236	; 0x2236 <tft_Print>
    3bc4:	81 e3       	ldi	r24, 0x31	; 49
    3bc6:	92 e0       	ldi	r25, 0x02	; 2
    3bc8:	dd ce       	rjmp	.-582    	; 0x3984 <update_status_bar+0xe4>
    3bca:	81 e3       	ldi	r24, 0x31	; 49
    3bcc:	92 e0       	ldi	r25, 0x02	; 2
    3bce:	23 cf       	rjmp	.-442    	; 0x3a16 <update_status_bar+0x176>
    3bd0:	20 e0       	ldi	r18, 0x00	; 0
    3bd2:	30 e0       	ldi	r19, 0x00	; 0
    3bd4:	4a e7       	ldi	r20, 0x7A	; 122
    3bd6:	54 e4       	ldi	r21, 0x44	; 68
    3bd8:	c7 01       	movw	r24, r14
    3bda:	b6 01       	movw	r22, r12
    3bdc:	0e 94 b9 22 	call	0x4572	; 0x4572 <__gesf2>
    3be0:	18 16       	cp	r1, r24
    3be2:	74 f4       	brge	.+28     	; 0x3c00 <update_status_bar+0x360>
    3be4:	20 e0       	ldi	r18, 0x00	; 0
    3be6:	30 e0       	ldi	r19, 0x00	; 0
    3be8:	4a e7       	ldi	r20, 0x7A	; 122
    3bea:	54 e4       	ldi	r21, 0x44	; 68
    3bec:	c7 01       	movw	r24, r14
    3bee:	b6 01       	movw	r22, r12
    3bf0:	0e 94 5f 21 	call	0x42be	; 0x42be <__divsf3>
    3bf4:	41 e0       	ldi	r20, 0x01	; 1
    3bf6:	0e 94 06 12 	call	0x240c	; 0x240c <tft_print_float>
    3bfa:	80 e2       	ldi	r24, 0x20	; 32
    3bfc:	93 e0       	ldi	r25, 0x03	; 3
    3bfe:	d8 cf       	rjmp	.-80     	; 0x3bb0 <update_status_bar+0x310>
    3c00:	41 e0       	ldi	r20, 0x01	; 1
    3c02:	c7 01       	movw	r24, r14
    3c04:	b6 01       	movw	r22, r12
    3c06:	0e 94 06 12 	call	0x240c	; 0x240c <tft_print_float>
    3c0a:	8d e1       	ldi	r24, 0x1D	; 29
    3c0c:	93 e0       	ldi	r25, 0x03	; 3
    3c0e:	d0 cf       	rjmp	.-96     	; 0x3bb0 <update_status_bar+0x310>
    3c10:	df 91       	pop	r29
    3c12:	cf 91       	pop	r28
    3c14:	1f 91       	pop	r17
    3c16:	0f 91       	pop	r16
    3c18:	ff 90       	pop	r15
    3c1a:	ef 90       	pop	r14
    3c1c:	df 90       	pop	r13
    3c1e:	cf 90       	pop	r12
    3c20:	08 95       	ret

00003c22 <update_view_offset>:
    3c22:	8f 92       	push	r8
    3c24:	9f 92       	push	r9
    3c26:	af 92       	push	r10
    3c28:	bf 92       	push	r11
    3c2a:	ef 92       	push	r14
    3c2c:	ff 92       	push	r15
    3c2e:	0f 93       	push	r16
    3c30:	1f 93       	push	r17
    3c32:	4c 01       	movw	r8, r24
    3c34:	8b 01       	movw	r16, r22
    3c36:	7a 01       	movw	r14, r20
    3c38:	59 01       	movw	r10, r18
    3c3a:	0e 94 3a 14 	call	0x2874	; 0x2874 <encoder_read>
    3c3e:	20 91 1c 04 	lds	r18, 0x041C	; 0x80041c <prev_det_sig>
    3c42:	30 91 1d 04 	lds	r19, 0x041D	; 0x80041d <prev_det_sig+0x1>
    3c46:	ac 01       	movw	r20, r24
    3c48:	42 1b       	sub	r20, r18
    3c4a:	53 0b       	sbc	r21, r19
    3c4c:	9a 01       	movw	r18, r20
    3c4e:	90 93 1d 04 	sts	0x041D, r25	; 0x80041d <prev_det_sig+0x1>
    3c52:	80 93 1c 04 	sts	0x041C, r24	; 0x80041c <prev_det_sig>
    3c56:	41 15       	cp	r20, r1
    3c58:	51 05       	cpc	r21, r1
    3c5a:	21 f1       	breq	.+72     	; 0x3ca4 <update_view_offset+0x82>
    3c5c:	ca 01       	movw	r24, r20
    3c5e:	44 96       	adiw	r24, 0x14	; 20
    3c60:	89 97       	sbiw	r24, 0x29	; 41
    3c62:	00 f5       	brcc	.+64     	; 0x3ca4 <update_view_offset+0x82>
    3c64:	d5 01       	movw	r26, r10
    3c66:	0e 94 bc 20 	call	0x4178	; 0x4178 <__mulhisi3>
    3c6a:	09 2c       	mov	r0, r9
    3c6c:	00 0c       	add	r0, r0
    3c6e:	aa 08       	sbc	r10, r10
    3c70:	bb 08       	sbc	r11, r11
    3c72:	86 0e       	add	r8, r22
    3c74:	97 1e       	adc	r9, r23
    3c76:	a8 1e       	adc	r10, r24
    3c78:	b9 1e       	adc	r11, r25
    3c7a:	01 2e       	mov	r0, r17
    3c7c:	00 0c       	add	r0, r0
    3c7e:	22 0b       	sbc	r18, r18
    3c80:	33 0b       	sbc	r19, r19
    3c82:	08 15       	cp	r16, r8
    3c84:	19 05       	cpc	r17, r9
    3c86:	2a 05       	cpc	r18, r10
    3c88:	3b 05       	cpc	r19, r11
    3c8a:	14 f4       	brge	.+4      	; 0x3c90 <update_view_offset+0x6e>
    3c8c:	95 01       	movw	r18, r10
    3c8e:	84 01       	movw	r16, r8
    3c90:	47 01       	movw	r8, r14
    3c92:	ff 0c       	add	r15, r15
    3c94:	aa 08       	sbc	r10, r10
    3c96:	bb 08       	sbc	r11, r11
    3c98:	08 15       	cp	r16, r8
    3c9a:	19 05       	cpc	r17, r9
    3c9c:	2a 05       	cpc	r18, r10
    3c9e:	3b 05       	cpc	r19, r11
    3ca0:	0c f4       	brge	.+2      	; 0x3ca4 <update_view_offset+0x82>
    3ca2:	48 01       	movw	r8, r16
    3ca4:	c4 01       	movw	r24, r8
    3ca6:	1f 91       	pop	r17
    3ca8:	0f 91       	pop	r16
    3caa:	ff 90       	pop	r15
    3cac:	ef 90       	pop	r14
    3cae:	bf 90       	pop	r11
    3cb0:	af 90       	pop	r10
    3cb2:	9f 90       	pop	r9
    3cb4:	8f 90       	pop	r8
    3cb6:	08 95       	ret

00003cb8 <scope_main>:
    3cb8:	cf 93       	push	r28
    3cba:	df 93       	push	r29
    3cbc:	00 d0       	rcall	.+0      	; 0x3cbe <scope_main+0x6>
    3cbe:	cd b7       	in	r28, 0x3d	; 61
    3cc0:	de b7       	in	r29, 0x3e	; 62
    3cc2:	0e 94 ed 17 	call	0x2fda	; 0x2fda <drawStaticInterface>
    3cc6:	81 e0       	ldi	r24, 0x01	; 1
    3cc8:	0e 94 50 1c 	call	0x38a0	; 0x38a0 <update_status_bar>
    3ccc:	8b e0       	ldi	r24, 0x0B	; 11
    3cce:	80 93 12 04 	sts	0x0412, r24	; 0x800412 <current_time_base_idx>
    3cd2:	84 bb       	out	0x14, r24	; 20
    3cd4:	80 91 5a 01 	lds	r24, 0x015A	; 0x80015a <trigger_level_12bit>
    3cd8:	90 91 5b 01 	lds	r25, 0x015B	; 0x80015b <trigger_level_12bit+0x1>
    3cdc:	0e 94 90 15 	call	0x2b20	; 0x2b20 <set_trigger_level>
    3ce0:	40 91 67 01 	lds	r20, 0x0167	; 0x800167 <trigger_source>
    3ce4:	60 e0       	ldi	r22, 0x00	; 0
    3ce6:	80 e0       	ldi	r24, 0x00	; 0
    3ce8:	0e 94 95 15 	call	0x2b2a	; 0x2b2a <set_trigger_mode>
    3cec:	01 e0       	ldi	r16, 0x01	; 1
    3cee:	34 e0       	ldi	r19, 0x04	; 4
    3cf0:	d3 2e       	mov	r13, r19
    3cf2:	43 e0       	ldi	r20, 0x03	; 3
    3cf4:	c4 2e       	mov	r12, r20
    3cf6:	55 e0       	ldi	r21, 0x05	; 5
    3cf8:	a5 2e       	mov	r10, r21
    3cfa:	bb 24       	eor	r11, r11
    3cfc:	ba 94       	dec	r11
    3cfe:	10 92 1a 04 	sts	0x041A, r1	; 0x80041a <pan_flag>
    3d02:	be 01       	movw	r22, r28
    3d04:	6f 5f       	subi	r22, 0xFF	; 255
    3d06:	7f 4f       	sbci	r23, 0xFF	; 255
    3d08:	ce 01       	movw	r24, r28
    3d0a:	02 96       	adiw	r24, 0x02	; 2
    3d0c:	0e 94 24 14 	call	0x2848	; 0x2848 <keypad_poll>
    3d10:	88 23       	and	r24, r24
    3d12:	09 f4       	brne	.+2      	; 0x3d16 <scope_main+0x5e>
    3d14:	35 c0       	rjmp	.+106    	; 0x3d80 <scope_main+0xc8>
    3d16:	1a 81       	ldd	r17, Y+2	; 0x02
    3d18:	1f 3f       	cpi	r17, 0xFF	; 255
    3d1a:	91 f1       	breq	.+100    	; 0x3d80 <scope_main+0xc8>
    3d1c:	eb ef       	ldi	r30, 0xFB	; 251
    3d1e:	e1 0f       	add	r30, r17
    3d20:	ea 30       	cpi	r30, 0x0A	; 10
    3d22:	c0 f4       	brcc	.+48     	; 0x3d54 <scope_main+0x9c>
    3d24:	f0 e0       	ldi	r31, 0x00	; 0
    3d26:	e9 56       	subi	r30, 0x69	; 105
    3d28:	f1 4e       	sbci	r31, 0xE1	; 225
    3d2a:	0c 94 b3 20 	jmp	0x4166	; 0x4166 <__tablejump2__>
    3d2e:	0e 1f       	adc	r16, r30
    3d30:	aa 1e       	adc	r10, r26
    3d32:	a1 1e       	adc	r10, r17
    3d34:	ee 1e       	adc	r14, r30
    3d36:	aa 1e       	adc	r10, r26
    3d38:	1c 1f       	adc	r17, r28
    3d3a:	1f 1f       	adc	r17, r31
    3d3c:	aa 1e       	adc	r10, r26
    3d3e:	24 1f       	adc	r18, r20
    3d40:	27 1f       	adc	r18, r23
    3d42:	80 91 66 01 	lds	r24, 0x0166	; 0x800166 <currentMenu>
    3d46:	85 30       	cpi	r24, 0x05	; 5
    3d48:	09 f0       	breq	.+2      	; 0x3d4c <scope_main+0x94>
    3d4a:	41 c0       	rjmp	.+130    	; 0x3dce <scope_main+0x116>
    3d4c:	10 92 1f 04 	sts	0x041F, r1	; 0x80041f <view_offset+0x1>
    3d50:	10 92 1e 04 	sts	0x041E, r1	; 0x80041e <view_offset>
    3d54:	80 91 66 01 	lds	r24, 0x0166	; 0x800166 <currentMenu>
    3d58:	82 30       	cpi	r24, 0x02	; 2
    3d5a:	09 f4       	brne	.+2      	; 0x3d5e <scope_main+0xa6>
    3d5c:	91 c0       	rjmp	.+290    	; 0x3e80 <scope_main+0x1c8>
    3d5e:	83 30       	cpi	r24, 0x03	; 3
    3d60:	09 f4       	brne	.+2      	; 0x3d64 <scope_main+0xac>
    3d62:	a7 c0       	rjmp	.+334    	; 0x3eb2 <scope_main+0x1fa>
    3d64:	81 30       	cpi	r24, 0x01	; 1
    3d66:	61 f4       	brne	.+24     	; 0x3d80 <scope_main+0xc8>
    3d68:	16 30       	cpi	r17, 0x06	; 6
    3d6a:	09 f4       	brne	.+2      	; 0x3d6e <scope_main+0xb6>
    3d6c:	81 c0       	rjmp	.+258    	; 0x3e70 <scope_main+0x1b8>
    3d6e:	08 f0       	brcs	.+2      	; 0x3d72 <scope_main+0xba>
    3d70:	72 c0       	rjmp	.+228    	; 0x3e56 <scope_main+0x19e>
    3d72:	11 23       	and	r17, r17
    3d74:	09 f4       	brne	.+2      	; 0x3d78 <scope_main+0xc0>
    3d76:	80 c0       	rjmp	.+256    	; 0x3e78 <scope_main+0x1c0>
    3d78:	81 e0       	ldi	r24, 0x01	; 1
    3d7a:	13 30       	cpi	r17, 0x03	; 3
    3d7c:	09 f4       	brne	.+2      	; 0x3d80 <scope_main+0xc8>
    3d7e:	89 c0       	rjmp	.+274    	; 0x3e92 <scope_main+0x1da>
    3d80:	80 91 13 04 	lds	r24, 0x0413	; 0x800413 <encoderMode>
    3d84:	81 30       	cpi	r24, 0x01	; 1
    3d86:	09 f0       	breq	.+2      	; 0x3d8a <scope_main+0xd2>
    3d88:	d1 c0       	rjmp	.+418    	; 0x3f2c <scope_main+0x274>
    3d8a:	81 e0       	ldi	r24, 0x01	; 1
    3d8c:	90 e0       	ldi	r25, 0x00	; 0
    3d8e:	20 91 66 01 	lds	r18, 0x0166	; 0x800166 <currentMenu>
    3d92:	21 30       	cpi	r18, 0x01	; 1
    3d94:	11 f4       	brne	.+4      	; 0x3d9a <scope_main+0xe2>
    3d96:	90 e0       	ldi	r25, 0x00	; 0
    3d98:	80 e0       	ldi	r24, 0x00	; 0
    3d9a:	88 0f       	add	r24, r24
    3d9c:	99 1f       	adc	r25, r25
    3d9e:	9c 01       	movw	r18, r24
    3da0:	2a 5a       	subi	r18, 0xAA	; 170
    3da2:	3e 4f       	sbci	r19, 0xFE	; 254
    3da4:	79 01       	movw	r14, r18
    3da6:	22 e0       	ldi	r18, 0x02	; 2
    3da8:	30 e0       	ldi	r19, 0x00	; 0
    3daa:	4a ef       	ldi	r20, 0xFA	; 250
    3dac:	50 e0       	ldi	r21, 0x00	; 0
    3dae:	6e ec       	ldi	r22, 0xCE	; 206
    3db0:	7f ef       	ldi	r23, 0xFF	; 255
    3db2:	f7 01       	movw	r30, r14
    3db4:	80 81       	ld	r24, Z
    3db6:	91 81       	ldd	r25, Z+1	; 0x01
    3db8:	0e 94 d8 14 	call	0x29b0	; 0x29b0 <update_param_16_signed>
    3dbc:	f7 01       	movw	r30, r14
    3dbe:	91 83       	std	Z+1, r25	; 0x01
    3dc0:	80 83       	st	Z, r24
    3dc2:	0e 94 dc 1b 	call	0x37b8	; 0x37b8 <acquire_and_draw>
    3dc6:	80 e0       	ldi	r24, 0x00	; 0
    3dc8:	0e 94 50 1c 	call	0x38a0	; 0x38a0 <update_status_bar>
    3dcc:	98 cf       	rjmp	.-208    	; 0x3cfe <scope_main+0x46>
    3dce:	a0 92 66 01 	sts	0x0166, r10	; 0x800166 <currentMenu>
    3dd2:	d0 92 13 04 	sts	0x0413, r13	; 0x800413 <encoderMode>
    3dd6:	0e 94 94 19 	call	0x3328	; 0x3328 <updateSidebarLabels>
    3dda:	bc cf       	rjmp	.-136    	; 0x3d54 <scope_main+0x9c>
    3ddc:	80 91 21 04 	lds	r24, 0x0421	; 0x800421 <trigger_mode>
    3de0:	82 30       	cpi	r24, 0x02	; 2
    3de2:	b1 f4       	brne	.+44     	; 0x3e10 <scope_main+0x158>
    3de4:	00 93 4b 01 	sts	0x014B, r16	; 0x80014b <is_running>
    3de8:	80 91 4b 01 	lds	r24, 0x014B	; 0x80014b <is_running>
    3dec:	88 23       	and	r24, r24
    3dee:	61 f0       	breq	.+24     	; 0x3e08 <scope_main+0x150>
    3df0:	10 92 21 04 	sts	0x0421, r1	; 0x800421 <trigger_mode>
    3df4:	40 91 67 01 	lds	r20, 0x0167	; 0x800167 <trigger_source>
    3df8:	60 91 20 04 	lds	r22, 0x0420	; 0x800420 <trigger_slope>
    3dfc:	80 e0       	ldi	r24, 0x00	; 0
    3dfe:	0e 94 95 15 	call	0x2b2a	; 0x2b2a <set_trigger_mode>
    3e02:	10 92 1b 04 	sts	0x041B, r1	; 0x80041b <freeze>
    3e06:	05 bf       	out	0x35, r16	; 53
    3e08:	81 e0       	ldi	r24, 0x01	; 1
    3e0a:	0e 94 50 1c 	call	0x38a0	; 0x38a0 <update_status_bar>
    3e0e:	a2 cf       	rjmp	.-188    	; 0x3d54 <scope_main+0x9c>
    3e10:	80 91 4b 01 	lds	r24, 0x014B	; 0x80014b <is_running>
    3e14:	80 27       	eor	r24, r16
    3e16:	80 93 4b 01 	sts	0x014B, r24	; 0x80014b <is_running>
    3e1a:	e6 cf       	rjmp	.-52     	; 0x3de8 <scope_main+0x130>
    3e1c:	82 e0       	ldi	r24, 0x02	; 2
    3e1e:	80 93 21 04 	sts	0x0421, r24	; 0x800421 <trigger_mode>
    3e22:	40 91 67 01 	lds	r20, 0x0167	; 0x800167 <trigger_source>
    3e26:	60 91 20 04 	lds	r22, 0x0420	; 0x800420 <trigger_slope>
    3e2a:	0e 94 95 15 	call	0x2b2a	; 0x2b2a <set_trigger_mode>
    3e2e:	10 92 1b 04 	sts	0x041B, r1	; 0x80041b <freeze>
    3e32:	00 93 4b 01 	sts	0x014B, r16	; 0x80014b <is_running>
    3e36:	e7 cf       	rjmp	.-50     	; 0x3e06 <scope_main+0x14e>
    3e38:	c0 92 66 01 	sts	0x0166, r12	; 0x800166 <currentMenu>
    3e3c:	cc cf       	rjmp	.-104    	; 0x3dd6 <scope_main+0x11e>
    3e3e:	d0 92 66 01 	sts	0x0166, r13	; 0x800166 <currentMenu>
    3e42:	c0 92 13 04 	sts	0x0413, r12	; 0x800413 <encoderMode>
    3e46:	c7 cf       	rjmp	.-114    	; 0x3dd6 <scope_main+0x11e>
    3e48:	00 93 66 01 	sts	0x0166, r16	; 0x800166 <currentMenu>
    3e4c:	c4 cf       	rjmp	.-120    	; 0x3dd6 <scope_main+0x11e>
    3e4e:	82 e0       	ldi	r24, 0x02	; 2
    3e50:	80 93 66 01 	sts	0x0166, r24	; 0x800166 <currentMenu>
    3e54:	c0 cf       	rjmp	.-128    	; 0x3dd6 <scope_main+0x11e>
    3e56:	19 30       	cpi	r17, 0x09	; 9
    3e58:	39 f0       	breq	.+14     	; 0x3e68 <scope_main+0x1b0>
    3e5a:	81 e0       	ldi	r24, 0x01	; 1
    3e5c:	1c 30       	cpi	r17, 0x0C	; 12
    3e5e:	09 f0       	breq	.+2      	; 0x3e62 <scope_main+0x1aa>
    3e60:	8f cf       	rjmp	.-226    	; 0x3d80 <scope_main+0xc8>
    3e62:	0e 94 b1 1a 	call	0x3562	; 0x3562 <toggleCH>
    3e66:	8c cf       	rjmp	.-232    	; 0x3d80 <scope_main+0xc8>
    3e68:	81 e0       	ldi	r24, 0x01	; 1
    3e6a:	0e 94 04 19 	call	0x3208	; 0x3208 <cycleCoupling>
    3e6e:	88 cf       	rjmp	.-240    	; 0x3d80 <scope_main+0xc8>
    3e70:	81 e0       	ldi	r24, 0x01	; 1
    3e72:	0e 94 4d 19 	call	0x329a	; 0x329a <cycleProbe>
    3e76:	84 cf       	rjmp	.-248    	; 0x3d80 <scope_main+0xc8>
    3e78:	81 e0       	ldi	r24, 0x01	; 1
    3e7a:	0e 94 f3 1a 	call	0x35e6	; 0x35e6 <toggleYPosMode>
    3e7e:	80 cf       	rjmp	.-256    	; 0x3d80 <scope_main+0xc8>
    3e80:	16 30       	cpi	r17, 0x06	; 6
    3e82:	99 f0       	breq	.+38     	; 0x3eaa <scope_main+0x1f2>
    3e84:	48 f4       	brcc	.+18     	; 0x3e98 <scope_main+0x1e0>
    3e86:	11 23       	and	r17, r17
    3e88:	91 f0       	breq	.+36     	; 0x3eae <scope_main+0x1f6>
    3e8a:	82 e0       	ldi	r24, 0x02	; 2
    3e8c:	13 30       	cpi	r17, 0x03	; 3
    3e8e:	09 f0       	breq	.+2      	; 0x3e92 <scope_main+0x1da>
    3e90:	77 cf       	rjmp	.-274    	; 0x3d80 <scope_main+0xc8>
    3e92:	0e 94 df 1a 	call	0x35be	; 0x35be <toggleInvert>
    3e96:	74 cf       	rjmp	.-280    	; 0x3d80 <scope_main+0xc8>
    3e98:	19 30       	cpi	r17, 0x09	; 9
    3e9a:	29 f0       	breq	.+10     	; 0x3ea6 <scope_main+0x1ee>
    3e9c:	1c 30       	cpi	r17, 0x0C	; 12
    3e9e:	09 f0       	breq	.+2      	; 0x3ea2 <scope_main+0x1ea>
    3ea0:	6f cf       	rjmp	.-290    	; 0x3d80 <scope_main+0xc8>
    3ea2:	82 e0       	ldi	r24, 0x02	; 2
    3ea4:	de cf       	rjmp	.-68     	; 0x3e62 <scope_main+0x1aa>
    3ea6:	82 e0       	ldi	r24, 0x02	; 2
    3ea8:	e0 cf       	rjmp	.-64     	; 0x3e6a <scope_main+0x1b2>
    3eaa:	82 e0       	ldi	r24, 0x02	; 2
    3eac:	e2 cf       	rjmp	.-60     	; 0x3e72 <scope_main+0x1ba>
    3eae:	82 e0       	ldi	r24, 0x02	; 2
    3eb0:	e4 cf       	rjmp	.-56     	; 0x3e7a <scope_main+0x1c2>
    3eb2:	16 30       	cpi	r17, 0x06	; 6
    3eb4:	69 f1       	breq	.+90     	; 0x3f10 <scope_main+0x258>
    3eb6:	40 f4       	brcc	.+16     	; 0x3ec8 <scope_main+0x210>
    3eb8:	11 23       	and	r17, r17
    3eba:	a9 f1       	breq	.+106    	; 0x3f26 <scope_main+0x26e>
    3ebc:	13 30       	cpi	r17, 0x03	; 3
    3ebe:	09 f0       	breq	.+2      	; 0x3ec2 <scope_main+0x20a>
    3ec0:	5f cf       	rjmp	.-322    	; 0x3d80 <scope_main+0xc8>
    3ec2:	0e 94 0a 1b 	call	0x3614	; 0x3614 <toggleTrigLevelMode>
    3ec6:	21 c0       	rjmp	.+66     	; 0x3f0a <scope_main+0x252>
    3ec8:	19 30       	cpi	r17, 0x09	; 9
    3eca:	91 f0       	breq	.+36     	; 0x3ef0 <scope_main+0x238>
    3ecc:	1c 30       	cpi	r17, 0x0C	; 12
    3ece:	09 f0       	breq	.+2      	; 0x3ed2 <scope_main+0x21a>
    3ed0:	57 cf       	rjmp	.-338    	; 0x3d80 <scope_main+0xc8>
    3ed2:	80 91 67 01 	lds	r24, 0x0167	; 0x800167 <trigger_source>
    3ed6:	8f 5f       	subi	r24, 0xFF	; 255
    3ed8:	83 30       	cpi	r24, 0x03	; 3
    3eda:	38 f4       	brcc	.+14     	; 0x3eea <scope_main+0x232>
    3edc:	80 93 67 01 	sts	0x0167, r24	; 0x800167 <trigger_source>
    3ee0:	40 91 67 01 	lds	r20, 0x0167	; 0x800167 <trigger_source>
    3ee4:	60 91 20 04 	lds	r22, 0x0420	; 0x800420 <trigger_slope>
    3ee8:	0c c0       	rjmp	.+24     	; 0x3f02 <scope_main+0x24a>
    3eea:	00 93 67 01 	sts	0x0167, r16	; 0x800167 <trigger_source>
    3eee:	f8 cf       	rjmp	.-16     	; 0x3ee0 <scope_main+0x228>
    3ef0:	61 e0       	ldi	r22, 0x01	; 1
    3ef2:	80 91 20 04 	lds	r24, 0x0420	; 0x800420 <trigger_slope>
    3ef6:	81 11       	cpse	r24, r1
    3ef8:	60 e0       	ldi	r22, 0x00	; 0
    3efa:	60 93 20 04 	sts	0x0420, r22	; 0x800420 <trigger_slope>
    3efe:	40 91 67 01 	lds	r20, 0x0167	; 0x800167 <trigger_source>
    3f02:	80 91 21 04 	lds	r24, 0x0421	; 0x800421 <trigger_mode>
    3f06:	0e 94 95 15 	call	0x2b2a	; 0x2b2a <set_trigger_mode>
    3f0a:	0e 94 94 19 	call	0x3328	; 0x3328 <updateSidebarLabels>
    3f0e:	38 cf       	rjmp	.-400    	; 0x3d80 <scope_main+0xc8>
    3f10:	80 91 21 04 	lds	r24, 0x0421	; 0x800421 <trigger_mode>
    3f14:	8f 5f       	subi	r24, 0xFF	; 255
    3f16:	82 30       	cpi	r24, 0x02	; 2
    3f18:	18 f4       	brcc	.+6      	; 0x3f20 <scope_main+0x268>
    3f1a:	80 93 21 04 	sts	0x0421, r24	; 0x800421 <trigger_mode>
    3f1e:	e0 cf       	rjmp	.-64     	; 0x3ee0 <scope_main+0x228>
    3f20:	10 92 21 04 	sts	0x0421, r1	; 0x800421 <trigger_mode>
    3f24:	dd cf       	rjmp	.-70     	; 0x3ee0 <scope_main+0x228>
    3f26:	10 92 13 04 	sts	0x0413, r1	; 0x800413 <encoderMode>
    3f2a:	ef cf       	rjmp	.-34     	; 0x3f0a <scope_main+0x252>
    3f2c:	82 30       	cpi	r24, 0x02	; 2
    3f2e:	d1 f4       	brne	.+52     	; 0x3f64 <scope_main+0x2ac>
    3f30:	e0 90 5a 01 	lds	r14, 0x015A	; 0x80015a <trigger_level_12bit>
    3f34:	f0 90 5b 01 	lds	r15, 0x015B	; 0x80015b <trigger_level_12bit+0x1>
    3f38:	2a e0       	ldi	r18, 0x0A	; 10
    3f3a:	30 e0       	ldi	r19, 0x00	; 0
    3f3c:	4f ef       	ldi	r20, 0xFF	; 255
    3f3e:	5f e0       	ldi	r21, 0x0F	; 15
    3f40:	70 e0       	ldi	r23, 0x00	; 0
    3f42:	60 e0       	ldi	r22, 0x00	; 0
    3f44:	c7 01       	movw	r24, r14
    3f46:	0e 94 a1 14 	call	0x2942	; 0x2942 <update_param_16>
    3f4a:	90 93 5b 01 	sts	0x015B, r25	; 0x80015b <trigger_level_12bit+0x1>
    3f4e:	80 93 5a 01 	sts	0x015A, r24	; 0x80015a <trigger_level_12bit>
    3f52:	8e 15       	cp	r24, r14
    3f54:	9f 05       	cpc	r25, r15
    3f56:	09 f4       	brne	.+2      	; 0x3f5a <scope_main+0x2a2>
    3f58:	34 cf       	rjmp	.-408    	; 0x3dc2 <scope_main+0x10a>
    3f5a:	0e 94 90 15 	call	0x2b20	; 0x2b20 <set_trigger_level>
    3f5e:	0e 94 94 19 	call	0x3328	; 0x3328 <updateSidebarLabels>
    3f62:	2f cf       	rjmp	.-418    	; 0x3dc2 <scope_main+0x10a>
    3f64:	83 30       	cpi	r24, 0x03	; 3
    3f66:	b1 f4       	brne	.+44     	; 0x3f94 <scope_main+0x2dc>
    3f68:	21 e0       	ldi	r18, 0x01	; 1
    3f6a:	40 e1       	ldi	r20, 0x10	; 16
    3f6c:	60 e0       	ldi	r22, 0x00	; 0
    3f6e:	80 91 6c 01 	lds	r24, 0x016C	; 0x80016c <time_div_sel>
    3f72:	0e 94 23 15 	call	0x2a46	; 0x2a46 <update_param_8>
    3f76:	90 91 6b 01 	lds	r25, 0x016B	; 0x80016b <prev_time_div_sel>
    3f7a:	98 17       	cp	r25, r24
    3f7c:	09 f4       	brne	.+2      	; 0x3f80 <scope_main+0x2c8>
    3f7e:	21 cf       	rjmp	.-446    	; 0x3dc2 <scope_main+0x10a>
    3f80:	84 bb       	out	0x14, r24	; 20
    3f82:	80 93 6b 01 	sts	0x016B, r24	; 0x80016b <prev_time_div_sel>
    3f86:	80 93 6c 01 	sts	0x016C, r24	; 0x80016c <time_div_sel>
    3f8a:	00 93 68 01 	sts	0x0168, r16	; 0x800168 <time_div_sel_changed>
    3f8e:	80 93 12 04 	sts	0x0412, r24	; 0x800412 <current_time_base_idx>
    3f92:	e5 cf       	rjmp	.-54     	; 0x3f5e <scope_main+0x2a6>
    3f94:	84 30       	cpi	r24, 0x04	; 4
    3f96:	09 f0       	breq	.+2      	; 0x3f9a <scope_main+0x2e2>
    3f98:	14 cf       	rjmp	.-472    	; 0x3dc2 <scope_main+0x10a>
    3f9a:	24 e0       	ldi	r18, 0x04	; 4
    3f9c:	30 e0       	ldi	r19, 0x00	; 0
    3f9e:	48 ec       	ldi	r20, 0xC8	; 200
    3fa0:	50 e0       	ldi	r21, 0x00	; 0
    3fa2:	68 e3       	ldi	r22, 0x38	; 56
    3fa4:	7f ef       	ldi	r23, 0xFF	; 255
    3fa6:	80 91 1e 04 	lds	r24, 0x041E	; 0x80041e <view_offset>
    3faa:	90 91 1f 04 	lds	r25, 0x041F	; 0x80041f <view_offset+0x1>
    3fae:	0e 94 11 1e 	call	0x3c22	; 0x3c22 <update_view_offset>
    3fb2:	20 91 69 01 	lds	r18, 0x0169	; 0x800169 <prev_view_offset>
    3fb6:	30 91 6a 01 	lds	r19, 0x016A	; 0x80016a <prev_view_offset+0x1>
    3fba:	28 17       	cp	r18, r24
    3fbc:	39 07       	cpc	r19, r25
    3fbe:	09 f4       	brne	.+2      	; 0x3fc2 <scope_main+0x30a>
    3fc0:	00 cf       	rjmp	.-512    	; 0x3dc2 <scope_main+0x10a>
    3fc2:	b4 ba       	out	0x14, r11	; 20
    3fc4:	04 bb       	out	0x14, r16	; 20
    3fc6:	84 bb       	out	0x14, r24	; 20
    3fc8:	94 bb       	out	0x14, r25	; 20
    3fca:	b4 ba       	out	0x14, r11	; 20
    3fcc:	1c be       	out	0x3c, r1	; 60
    3fce:	90 93 6a 01 	sts	0x016A, r25	; 0x80016a <prev_view_offset+0x1>
    3fd2:	80 93 69 01 	sts	0x0169, r24	; 0x800169 <prev_view_offset>
    3fd6:	90 93 1f 04 	sts	0x041F, r25	; 0x80041f <view_offset+0x1>
    3fda:	80 93 1e 04 	sts	0x041E, r24	; 0x80041e <view_offset>
    3fde:	00 93 1a 04 	sts	0x041A, r16	; 0x80041a <pan_flag>
    3fe2:	ef ce       	rjmp	.-546    	; 0x3dc2 <scope_main+0x10a>

00003fe4 <main>:
    3fe4:	0f 93       	push	r16
    3fe6:	1f 93       	push	r17
    3fe8:	60 e0       	ldi	r22, 0x00	; 0
    3fea:	7b e4       	ldi	r23, 0x4B	; 75
    3fec:	80 e0       	ldi	r24, 0x00	; 0
    3fee:	90 e0       	ldi	r25, 0x00	; 0
    3ff0:	0e 94 65 12 	call	0x24ca	; 0x24ca <uart_init>
    3ff4:	81 ed       	ldi	r24, 0xD1	; 209
    3ff6:	91 e0       	ldi	r25, 0x01	; 1
    3ff8:	0e 94 83 12 	call	0x2506	; 0x2506 <uart_print>
    3ffc:	88 ee       	ldi	r24, 0xE8	; 232
    3ffe:	91 e0       	ldi	r25, 0x01	; 1
    4000:	0e 94 83 12 	call	0x2506	; 0x2506 <uart_print>
    4004:	0e 94 22 14 	call	0x2844	; 0x2844 <keypad_init>
    4008:	0e 94 0c 14 	call	0x2818	; 0x2818 <leds_init>
    400c:	0e 94 6f 09 	call	0x12de	; 0x12de <tft_init>
    4010:	81 e0       	ldi	r24, 0x01	; 1
    4012:	0e 94 71 09 	call	0x12e2	; 0x12e2 <tft_setRotation>
    4016:	90 e0       	ldi	r25, 0x00	; 0
    4018:	80 e0       	ldi	r24, 0x00	; 0
    401a:	0e 94 bc 09 	call	0x1378	; 0x1378 <tft_fillScreen>
    401e:	82 e0       	ldi	r24, 0x02	; 2
    4020:	0e 94 27 11 	call	0x224e	; 0x224e <setTextFont>
    4024:	81 e0       	ldi	r24, 0x01	; 1
    4026:	0e 94 d9 09 	call	0x13b2	; 0x13b2 <setTextSize>
    402a:	70 e0       	ldi	r23, 0x00	; 0
    402c:	60 e0       	ldi	r22, 0x00	; 0
    402e:	8f ef       	ldi	r24, 0xFF	; 255
    4030:	9f ef       	ldi	r25, 0xFF	; 255
    4032:	0e 94 d0 09 	call	0x13a0	; 0x13a0 <setTextColor>
    4036:	20 ee       	ldi	r18, 0xE0	; 224
    4038:	37 e0       	ldi	r19, 0x07	; 7
    403a:	42 e3       	ldi	r20, 0x32	; 50
    403c:	50 e0       	ldi	r21, 0x00	; 0
    403e:	62 e3       	ldi	r22, 0x32	; 50
    4040:	70 e0       	ldi	r23, 0x00	; 0
    4042:	82 e3       	ldi	r24, 0x32	; 50
    4044:	90 e0       	ldi	r25, 0x00	; 0
    4046:	0e 94 8f 08 	call	0x111e	; 0x111e <tft_drawFastVLine>
    404a:	20 e0       	ldi	r18, 0x00	; 0
    404c:	38 ef       	ldi	r19, 0xF8	; 248
    404e:	44 e6       	ldi	r20, 0x64	; 100
    4050:	50 e0       	ldi	r21, 0x00	; 0
    4052:	62 e3       	ldi	r22, 0x32	; 50
    4054:	70 e0       	ldi	r23, 0x00	; 0
    4056:	84 e6       	ldi	r24, 0x64	; 100
    4058:	90 e0       	ldi	r25, 0x00	; 0
    405a:	0e 94 73 08 	call	0x10e6	; 0x10e6 <tft_drawFastHLine>
    405e:	0f ef       	ldi	r16, 0xFF	; 255
    4060:	17 e0       	ldi	r17, 0x07	; 7
    4062:	2b e4       	ldi	r18, 0x4B	; 75
    4064:	30 e0       	ldi	r19, 0x00	; 0
    4066:	4e e1       	ldi	r20, 0x1E	; 30
    4068:	51 e0       	ldi	r21, 0x01	; 1
    406a:	6f e5       	ldi	r22, 0x5F	; 95
    406c:	70 e0       	ldi	r23, 0x00	; 0
    406e:	84 e1       	ldi	r24, 0x14	; 20
    4070:	91 e0       	ldi	r25, 0x01	; 1
    4072:	0e 94 34 0d 	call	0x1a68	; 0x1a68 <tft_drawLine>
    4076:	4f ef       	ldi	r20, 0xFF	; 255
    4078:	5f ef       	ldi	r21, 0xFF	; 255
    407a:	68 ec       	ldi	r22, 0xC8	; 200
    407c:	70 e0       	ldi	r23, 0x00	; 0
    407e:	88 e7       	ldi	r24, 0x78	; 120
    4080:	90 e0       	ldi	r25, 0x00	; 0
    4082:	0e 94 50 08 	call	0x10a0	; 0x10a0 <tft_drawPixel>
    4086:	0e 94 5c 1e 	call	0x3cb8	; 0x3cb8 <scope_main>
    408a:	90 e0       	ldi	r25, 0x00	; 0
    408c:	80 e0       	ldi	r24, 0x00	; 0
    408e:	1f 91       	pop	r17
    4090:	0f 91       	pop	r16
    4092:	08 95       	ret

00004094 <__udivmodhi4>:
    4094:	aa 1b       	sub	r26, r26
    4096:	bb 1b       	sub	r27, r27
    4098:	51 e1       	ldi	r21, 0x11	; 17
    409a:	07 c0       	rjmp	.+14     	; 0x40aa <__udivmodhi4_ep>

0000409c <__udivmodhi4_loop>:
    409c:	aa 1f       	adc	r26, r26
    409e:	bb 1f       	adc	r27, r27
    40a0:	a6 17       	cp	r26, r22
    40a2:	b7 07       	cpc	r27, r23
    40a4:	10 f0       	brcs	.+4      	; 0x40aa <__udivmodhi4_ep>
    40a6:	a6 1b       	sub	r26, r22
    40a8:	b7 0b       	sbc	r27, r23

000040aa <__udivmodhi4_ep>:
    40aa:	88 1f       	adc	r24, r24
    40ac:	99 1f       	adc	r25, r25
    40ae:	5a 95       	dec	r21
    40b0:	a9 f7       	brne	.-22     	; 0x409c <__udivmodhi4_loop>
    40b2:	80 95       	com	r24
    40b4:	90 95       	com	r25
    40b6:	bc 01       	movw	r22, r24
    40b8:	cd 01       	movw	r24, r26
    40ba:	08 95       	ret

000040bc <__divmodhi4>:
    40bc:	97 fb       	bst	r25, 7
    40be:	07 2e       	mov	r0, r23
    40c0:	16 f4       	brtc	.+4      	; 0x40c6 <__divmodhi4+0xa>
    40c2:	00 94       	com	r0
    40c4:	07 d0       	rcall	.+14     	; 0x40d4 <__divmodhi4_neg1>
    40c6:	77 fd       	sbrc	r23, 7
    40c8:	09 d0       	rcall	.+18     	; 0x40dc <__divmodhi4_neg2>
    40ca:	0e 94 4a 20 	call	0x4094	; 0x4094 <__udivmodhi4>
    40ce:	07 fc       	sbrc	r0, 7
    40d0:	05 d0       	rcall	.+10     	; 0x40dc <__divmodhi4_neg2>
    40d2:	3e f4       	brtc	.+14     	; 0x40e2 <__divmodhi4_exit>

000040d4 <__divmodhi4_neg1>:
    40d4:	90 95       	com	r25
    40d6:	81 95       	neg	r24
    40d8:	9f 4f       	sbci	r25, 0xFF	; 255
    40da:	08 95       	ret

000040dc <__divmodhi4_neg2>:
    40dc:	70 95       	com	r23
    40de:	61 95       	neg	r22
    40e0:	7f 4f       	sbci	r23, 0xFF	; 255

000040e2 <__divmodhi4_exit>:
    40e2:	08 95       	ret

000040e4 <__udivmodsi4>:
    40e4:	a1 e2       	ldi	r26, 0x21	; 33
    40e6:	1a 2e       	mov	r1, r26
    40e8:	aa 1b       	sub	r26, r26
    40ea:	bb 1b       	sub	r27, r27
    40ec:	fd 01       	movw	r30, r26
    40ee:	0d c0       	rjmp	.+26     	; 0x410a <__udivmodsi4_ep>

000040f0 <__udivmodsi4_loop>:
    40f0:	aa 1f       	adc	r26, r26
    40f2:	bb 1f       	adc	r27, r27
    40f4:	ee 1f       	adc	r30, r30
    40f6:	ff 1f       	adc	r31, r31
    40f8:	a2 17       	cp	r26, r18
    40fa:	b3 07       	cpc	r27, r19
    40fc:	e4 07       	cpc	r30, r20
    40fe:	f5 07       	cpc	r31, r21
    4100:	20 f0       	brcs	.+8      	; 0x410a <__udivmodsi4_ep>
    4102:	a2 1b       	sub	r26, r18
    4104:	b3 0b       	sbc	r27, r19
    4106:	e4 0b       	sbc	r30, r20
    4108:	f5 0b       	sbc	r31, r21

0000410a <__udivmodsi4_ep>:
    410a:	66 1f       	adc	r22, r22
    410c:	77 1f       	adc	r23, r23
    410e:	88 1f       	adc	r24, r24
    4110:	99 1f       	adc	r25, r25
    4112:	1a 94       	dec	r1
    4114:	69 f7       	brne	.-38     	; 0x40f0 <__udivmodsi4_loop>
    4116:	60 95       	com	r22
    4118:	70 95       	com	r23
    411a:	80 95       	com	r24
    411c:	90 95       	com	r25
    411e:	9b 01       	movw	r18, r22
    4120:	ac 01       	movw	r20, r24
    4122:	bd 01       	movw	r22, r26
    4124:	cf 01       	movw	r24, r30
    4126:	08 95       	ret

00004128 <__divmodsi4>:
    4128:	05 2e       	mov	r0, r21
    412a:	97 fb       	bst	r25, 7
    412c:	1e f4       	brtc	.+6      	; 0x4134 <__divmodsi4+0xc>
    412e:	00 94       	com	r0
    4130:	0e 94 ab 20 	call	0x4156	; 0x4156 <__negsi2>
    4134:	57 fd       	sbrc	r21, 7
    4136:	07 d0       	rcall	.+14     	; 0x4146 <__divmodsi4_neg2>
    4138:	0e 94 72 20 	call	0x40e4	; 0x40e4 <__udivmodsi4>
    413c:	07 fc       	sbrc	r0, 7
    413e:	03 d0       	rcall	.+6      	; 0x4146 <__divmodsi4_neg2>
    4140:	4e f4       	brtc	.+18     	; 0x4154 <__divmodsi4_exit>
    4142:	0c 94 ab 20 	jmp	0x4156	; 0x4156 <__negsi2>

00004146 <__divmodsi4_neg2>:
    4146:	50 95       	com	r21
    4148:	40 95       	com	r20
    414a:	30 95       	com	r19
    414c:	21 95       	neg	r18
    414e:	3f 4f       	sbci	r19, 0xFF	; 255
    4150:	4f 4f       	sbci	r20, 0xFF	; 255
    4152:	5f 4f       	sbci	r21, 0xFF	; 255

00004154 <__divmodsi4_exit>:
    4154:	08 95       	ret

00004156 <__negsi2>:
    4156:	90 95       	com	r25
    4158:	80 95       	com	r24
    415a:	70 95       	com	r23
    415c:	61 95       	neg	r22
    415e:	7f 4f       	sbci	r23, 0xFF	; 255
    4160:	8f 4f       	sbci	r24, 0xFF	; 255
    4162:	9f 4f       	sbci	r25, 0xFF	; 255
    4164:	08 95       	ret

00004166 <__tablejump2__>:
    4166:	ee 0f       	add	r30, r30
    4168:	ff 1f       	adc	r31, r31
    416a:	00 24       	eor	r0, r0
    416c:	00 1c       	adc	r0, r0
    416e:	0b be       	out	0x3b, r0	; 59
    4170:	07 90       	elpm	r0, Z+
    4172:	f6 91       	elpm	r31, Z
    4174:	e0 2d       	mov	r30, r0
    4176:	09 94       	ijmp

00004178 <__mulhisi3>:
    4178:	0e 94 c4 20 	call	0x4188	; 0x4188 <__umulhisi3>
    417c:	33 23       	and	r19, r19
    417e:	12 f4       	brpl	.+4      	; 0x4184 <__mulhisi3+0xc>
    4180:	8a 1b       	sub	r24, r26
    4182:	9b 0b       	sbc	r25, r27
    4184:	0c 94 d5 20 	jmp	0x41aa	; 0x41aa <__usmulhisi3_tail>

00004188 <__umulhisi3>:
    4188:	a2 9f       	mul	r26, r18
    418a:	b0 01       	movw	r22, r0
    418c:	b3 9f       	mul	r27, r19
    418e:	c0 01       	movw	r24, r0
    4190:	a3 9f       	mul	r26, r19
    4192:	70 0d       	add	r23, r0
    4194:	81 1d       	adc	r24, r1
    4196:	11 24       	eor	r1, r1
    4198:	91 1d       	adc	r25, r1
    419a:	b2 9f       	mul	r27, r18
    419c:	70 0d       	add	r23, r0
    419e:	81 1d       	adc	r24, r1
    41a0:	11 24       	eor	r1, r1
    41a2:	91 1d       	adc	r25, r1
    41a4:	08 95       	ret

000041a6 <__usmulhisi3>:
    41a6:	0e 94 c4 20 	call	0x4188	; 0x4188 <__umulhisi3>

000041aa <__usmulhisi3_tail>:
    41aa:	b7 ff       	sbrs	r27, 7
    41ac:	08 95       	ret
    41ae:	82 1b       	sub	r24, r18
    41b0:	93 0b       	sbc	r25, r19
    41b2:	08 95       	ret

000041b4 <__mulshisi3>:
    41b4:	b7 ff       	sbrs	r27, 7
    41b6:	0c 94 e2 20 	jmp	0x41c4	; 0x41c4 <__muluhisi3>

000041ba <__mulohisi3>:
    41ba:	0e 94 e2 20 	call	0x41c4	; 0x41c4 <__muluhisi3>
    41be:	82 1b       	sub	r24, r18
    41c0:	93 0b       	sbc	r25, r19
    41c2:	08 95       	ret

000041c4 <__muluhisi3>:
    41c4:	0e 94 c4 20 	call	0x4188	; 0x4188 <__umulhisi3>
    41c8:	a5 9f       	mul	r26, r21
    41ca:	90 0d       	add	r25, r0
    41cc:	b4 9f       	mul	r27, r20
    41ce:	90 0d       	add	r25, r0
    41d0:	a4 9f       	mul	r26, r20
    41d2:	80 0d       	add	r24, r0
    41d4:	91 1d       	adc	r25, r1
    41d6:	11 24       	eor	r1, r1
    41d8:	08 95       	ret

000041da <__subsf3>:
    41da:	50 58       	subi	r21, 0x80	; 128

000041dc <__addsf3>:
    41dc:	bb 27       	eor	r27, r27
    41de:	aa 27       	eor	r26, r26
    41e0:	0e 94 05 21 	call	0x420a	; 0x420a <__addsf3x>
    41e4:	0c 94 7f 22 	jmp	0x44fe	; 0x44fe <__fp_round>
    41e8:	0e 94 71 22 	call	0x44e2	; 0x44e2 <__fp_pscA>
    41ec:	38 f0       	brcs	.+14     	; 0x41fc <__addsf3+0x20>
    41ee:	0e 94 78 22 	call	0x44f0	; 0x44f0 <__fp_pscB>
    41f2:	20 f0       	brcs	.+8      	; 0x41fc <__addsf3+0x20>
    41f4:	39 f4       	brne	.+14     	; 0x4204 <__addsf3+0x28>
    41f6:	9f 3f       	cpi	r25, 0xFF	; 255
    41f8:	19 f4       	brne	.+6      	; 0x4200 <__addsf3+0x24>
    41fa:	26 f4       	brtc	.+8      	; 0x4204 <__addsf3+0x28>
    41fc:	0c 94 6e 22 	jmp	0x44dc	; 0x44dc <__fp_nan>
    4200:	0e f4       	brtc	.+2      	; 0x4204 <__addsf3+0x28>
    4202:	e0 95       	com	r30
    4204:	e7 fb       	bst	r30, 7
    4206:	0c 94 68 22 	jmp	0x44d0	; 0x44d0 <__fp_inf>

0000420a <__addsf3x>:
    420a:	e9 2f       	mov	r30, r25
    420c:	0e 94 90 22 	call	0x4520	; 0x4520 <__fp_split3>
    4210:	58 f3       	brcs	.-42     	; 0x41e8 <__addsf3+0xc>
    4212:	ba 17       	cp	r27, r26
    4214:	62 07       	cpc	r22, r18
    4216:	73 07       	cpc	r23, r19
    4218:	84 07       	cpc	r24, r20
    421a:	95 07       	cpc	r25, r21
    421c:	20 f0       	brcs	.+8      	; 0x4226 <__addsf3x+0x1c>
    421e:	79 f4       	brne	.+30     	; 0x423e <__addsf3x+0x34>
    4220:	a6 f5       	brtc	.+104    	; 0x428a <__addsf3x+0x80>
    4222:	0c 94 b2 22 	jmp	0x4564	; 0x4564 <__fp_zero>
    4226:	0e f4       	brtc	.+2      	; 0x422a <__addsf3x+0x20>
    4228:	e0 95       	com	r30
    422a:	0b 2e       	mov	r0, r27
    422c:	ba 2f       	mov	r27, r26
    422e:	a0 2d       	mov	r26, r0
    4230:	0b 01       	movw	r0, r22
    4232:	b9 01       	movw	r22, r18
    4234:	90 01       	movw	r18, r0
    4236:	0c 01       	movw	r0, r24
    4238:	ca 01       	movw	r24, r20
    423a:	a0 01       	movw	r20, r0
    423c:	11 24       	eor	r1, r1
    423e:	ff 27       	eor	r31, r31
    4240:	59 1b       	sub	r21, r25
    4242:	99 f0       	breq	.+38     	; 0x426a <__addsf3x+0x60>
    4244:	59 3f       	cpi	r21, 0xF9	; 249
    4246:	50 f4       	brcc	.+20     	; 0x425c <__addsf3x+0x52>
    4248:	50 3e       	cpi	r21, 0xE0	; 224
    424a:	68 f1       	brcs	.+90     	; 0x42a6 <__addsf3x+0x9c>
    424c:	1a 16       	cp	r1, r26
    424e:	f0 40       	sbci	r31, 0x00	; 0
    4250:	a2 2f       	mov	r26, r18
    4252:	23 2f       	mov	r18, r19
    4254:	34 2f       	mov	r19, r20
    4256:	44 27       	eor	r20, r20
    4258:	58 5f       	subi	r21, 0xF8	; 248
    425a:	f3 cf       	rjmp	.-26     	; 0x4242 <__addsf3x+0x38>
    425c:	46 95       	lsr	r20
    425e:	37 95       	ror	r19
    4260:	27 95       	ror	r18
    4262:	a7 95       	ror	r26
    4264:	f0 40       	sbci	r31, 0x00	; 0
    4266:	53 95       	inc	r21
    4268:	c9 f7       	brne	.-14     	; 0x425c <__addsf3x+0x52>
    426a:	7e f4       	brtc	.+30     	; 0x428a <__addsf3x+0x80>
    426c:	1f 16       	cp	r1, r31
    426e:	ba 0b       	sbc	r27, r26
    4270:	62 0b       	sbc	r22, r18
    4272:	73 0b       	sbc	r23, r19
    4274:	84 0b       	sbc	r24, r20
    4276:	ba f0       	brmi	.+46     	; 0x42a6 <__addsf3x+0x9c>
    4278:	91 50       	subi	r25, 0x01	; 1
    427a:	a1 f0       	breq	.+40     	; 0x42a4 <__addsf3x+0x9a>
    427c:	ff 0f       	add	r31, r31
    427e:	bb 1f       	adc	r27, r27
    4280:	66 1f       	adc	r22, r22
    4282:	77 1f       	adc	r23, r23
    4284:	88 1f       	adc	r24, r24
    4286:	c2 f7       	brpl	.-16     	; 0x4278 <__addsf3x+0x6e>
    4288:	0e c0       	rjmp	.+28     	; 0x42a6 <__addsf3x+0x9c>
    428a:	ba 0f       	add	r27, r26
    428c:	62 1f       	adc	r22, r18
    428e:	73 1f       	adc	r23, r19
    4290:	84 1f       	adc	r24, r20
    4292:	48 f4       	brcc	.+18     	; 0x42a6 <__addsf3x+0x9c>
    4294:	87 95       	ror	r24
    4296:	77 95       	ror	r23
    4298:	67 95       	ror	r22
    429a:	b7 95       	ror	r27
    429c:	f7 95       	ror	r31
    429e:	9e 3f       	cpi	r25, 0xFE	; 254
    42a0:	08 f0       	brcs	.+2      	; 0x42a4 <__addsf3x+0x9a>
    42a2:	b0 cf       	rjmp	.-160    	; 0x4204 <__addsf3+0x28>
    42a4:	93 95       	inc	r25
    42a6:	88 0f       	add	r24, r24
    42a8:	08 f0       	brcs	.+2      	; 0x42ac <__addsf3x+0xa2>
    42aa:	99 27       	eor	r25, r25
    42ac:	ee 0f       	add	r30, r30
    42ae:	97 95       	ror	r25
    42b0:	87 95       	ror	r24
    42b2:	08 95       	ret

000042b4 <__cmpsf2>:
    42b4:	0e 94 44 22 	call	0x4488	; 0x4488 <__fp_cmp>
    42b8:	08 f4       	brcc	.+2      	; 0x42bc <__cmpsf2+0x8>
    42ba:	81 e0       	ldi	r24, 0x01	; 1
    42bc:	08 95       	ret

000042be <__divsf3>:
    42be:	0e 94 73 21 	call	0x42e6	; 0x42e6 <__divsf3x>
    42c2:	0c 94 7f 22 	jmp	0x44fe	; 0x44fe <__fp_round>
    42c6:	0e 94 78 22 	call	0x44f0	; 0x44f0 <__fp_pscB>
    42ca:	58 f0       	brcs	.+22     	; 0x42e2 <__divsf3+0x24>
    42cc:	0e 94 71 22 	call	0x44e2	; 0x44e2 <__fp_pscA>
    42d0:	40 f0       	brcs	.+16     	; 0x42e2 <__divsf3+0x24>
    42d2:	29 f4       	brne	.+10     	; 0x42de <__divsf3+0x20>
    42d4:	5f 3f       	cpi	r21, 0xFF	; 255
    42d6:	29 f0       	breq	.+10     	; 0x42e2 <__divsf3+0x24>
    42d8:	0c 94 68 22 	jmp	0x44d0	; 0x44d0 <__fp_inf>
    42dc:	51 11       	cpse	r21, r1
    42de:	0c 94 b3 22 	jmp	0x4566	; 0x4566 <__fp_szero>
    42e2:	0c 94 6e 22 	jmp	0x44dc	; 0x44dc <__fp_nan>

000042e6 <__divsf3x>:
    42e6:	0e 94 90 22 	call	0x4520	; 0x4520 <__fp_split3>
    42ea:	68 f3       	brcs	.-38     	; 0x42c6 <__divsf3+0x8>

000042ec <__divsf3_pse>:
    42ec:	99 23       	and	r25, r25
    42ee:	b1 f3       	breq	.-20     	; 0x42dc <__divsf3+0x1e>
    42f0:	55 23       	and	r21, r21
    42f2:	91 f3       	breq	.-28     	; 0x42d8 <__divsf3+0x1a>
    42f4:	95 1b       	sub	r25, r21
    42f6:	55 0b       	sbc	r21, r21
    42f8:	bb 27       	eor	r27, r27
    42fa:	aa 27       	eor	r26, r26
    42fc:	62 17       	cp	r22, r18
    42fe:	73 07       	cpc	r23, r19
    4300:	84 07       	cpc	r24, r20
    4302:	38 f0       	brcs	.+14     	; 0x4312 <__divsf3_pse+0x26>
    4304:	9f 5f       	subi	r25, 0xFF	; 255
    4306:	5f 4f       	sbci	r21, 0xFF	; 255
    4308:	22 0f       	add	r18, r18
    430a:	33 1f       	adc	r19, r19
    430c:	44 1f       	adc	r20, r20
    430e:	aa 1f       	adc	r26, r26
    4310:	a9 f3       	breq	.-22     	; 0x42fc <__divsf3_pse+0x10>
    4312:	35 d0       	rcall	.+106    	; 0x437e <__divsf3_pse+0x92>
    4314:	0e 2e       	mov	r0, r30
    4316:	3a f0       	brmi	.+14     	; 0x4326 <__divsf3_pse+0x3a>
    4318:	e0 e8       	ldi	r30, 0x80	; 128
    431a:	32 d0       	rcall	.+100    	; 0x4380 <__divsf3_pse+0x94>
    431c:	91 50       	subi	r25, 0x01	; 1
    431e:	50 40       	sbci	r21, 0x00	; 0
    4320:	e6 95       	lsr	r30
    4322:	00 1c       	adc	r0, r0
    4324:	ca f7       	brpl	.-14     	; 0x4318 <__divsf3_pse+0x2c>
    4326:	2b d0       	rcall	.+86     	; 0x437e <__divsf3_pse+0x92>
    4328:	fe 2f       	mov	r31, r30
    432a:	29 d0       	rcall	.+82     	; 0x437e <__divsf3_pse+0x92>
    432c:	66 0f       	add	r22, r22
    432e:	77 1f       	adc	r23, r23
    4330:	88 1f       	adc	r24, r24
    4332:	bb 1f       	adc	r27, r27
    4334:	26 17       	cp	r18, r22
    4336:	37 07       	cpc	r19, r23
    4338:	48 07       	cpc	r20, r24
    433a:	ab 07       	cpc	r26, r27
    433c:	b0 e8       	ldi	r27, 0x80	; 128
    433e:	09 f0       	breq	.+2      	; 0x4342 <__divsf3_pse+0x56>
    4340:	bb 0b       	sbc	r27, r27
    4342:	80 2d       	mov	r24, r0
    4344:	bf 01       	movw	r22, r30
    4346:	ff 27       	eor	r31, r31
    4348:	93 58       	subi	r25, 0x83	; 131
    434a:	5f 4f       	sbci	r21, 0xFF	; 255
    434c:	3a f0       	brmi	.+14     	; 0x435c <__divsf3_pse+0x70>
    434e:	9e 3f       	cpi	r25, 0xFE	; 254
    4350:	51 05       	cpc	r21, r1
    4352:	78 f0       	brcs	.+30     	; 0x4372 <__divsf3_pse+0x86>
    4354:	0c 94 68 22 	jmp	0x44d0	; 0x44d0 <__fp_inf>
    4358:	0c 94 b3 22 	jmp	0x4566	; 0x4566 <__fp_szero>
    435c:	5f 3f       	cpi	r21, 0xFF	; 255
    435e:	e4 f3       	brlt	.-8      	; 0x4358 <__divsf3_pse+0x6c>
    4360:	98 3e       	cpi	r25, 0xE8	; 232
    4362:	d4 f3       	brlt	.-12     	; 0x4358 <__divsf3_pse+0x6c>
    4364:	86 95       	lsr	r24
    4366:	77 95       	ror	r23
    4368:	67 95       	ror	r22
    436a:	b7 95       	ror	r27
    436c:	f7 95       	ror	r31
    436e:	9f 5f       	subi	r25, 0xFF	; 255
    4370:	c9 f7       	brne	.-14     	; 0x4364 <__divsf3_pse+0x78>
    4372:	88 0f       	add	r24, r24
    4374:	91 1d       	adc	r25, r1
    4376:	96 95       	lsr	r25
    4378:	87 95       	ror	r24
    437a:	97 f9       	bld	r25, 7
    437c:	08 95       	ret
    437e:	e1 e0       	ldi	r30, 0x01	; 1
    4380:	66 0f       	add	r22, r22
    4382:	77 1f       	adc	r23, r23
    4384:	88 1f       	adc	r24, r24
    4386:	bb 1f       	adc	r27, r27
    4388:	62 17       	cp	r22, r18
    438a:	73 07       	cpc	r23, r19
    438c:	84 07       	cpc	r24, r20
    438e:	ba 07       	cpc	r27, r26
    4390:	20 f0       	brcs	.+8      	; 0x439a <__divsf3_pse+0xae>
    4392:	62 1b       	sub	r22, r18
    4394:	73 0b       	sbc	r23, r19
    4396:	84 0b       	sbc	r24, r20
    4398:	ba 0b       	sbc	r27, r26
    439a:	ee 1f       	adc	r30, r30
    439c:	88 f7       	brcc	.-30     	; 0x4380 <__divsf3_pse+0x94>
    439e:	e0 95       	com	r30
    43a0:	08 95       	ret

000043a2 <__fixsfsi>:
    43a2:	0e 94 d8 21 	call	0x43b0	; 0x43b0 <__fixunssfsi>
    43a6:	68 94       	set
    43a8:	b1 11       	cpse	r27, r1
    43aa:	0c 94 b3 22 	jmp	0x4566	; 0x4566 <__fp_szero>
    43ae:	08 95       	ret

000043b0 <__fixunssfsi>:
    43b0:	0e 94 98 22 	call	0x4530	; 0x4530 <__fp_splitA>
    43b4:	88 f0       	brcs	.+34     	; 0x43d8 <__fixunssfsi+0x28>
    43b6:	9f 57       	subi	r25, 0x7F	; 127
    43b8:	98 f0       	brcs	.+38     	; 0x43e0 <__fixunssfsi+0x30>
    43ba:	b9 2f       	mov	r27, r25
    43bc:	99 27       	eor	r25, r25
    43be:	b7 51       	subi	r27, 0x17	; 23
    43c0:	b0 f0       	brcs	.+44     	; 0x43ee <__fixunssfsi+0x3e>
    43c2:	e1 f0       	breq	.+56     	; 0x43fc <__fixunssfsi+0x4c>
    43c4:	66 0f       	add	r22, r22
    43c6:	77 1f       	adc	r23, r23
    43c8:	88 1f       	adc	r24, r24
    43ca:	99 1f       	adc	r25, r25
    43cc:	1a f0       	brmi	.+6      	; 0x43d4 <__fixunssfsi+0x24>
    43ce:	ba 95       	dec	r27
    43d0:	c9 f7       	brne	.-14     	; 0x43c4 <__fixunssfsi+0x14>
    43d2:	14 c0       	rjmp	.+40     	; 0x43fc <__fixunssfsi+0x4c>
    43d4:	b1 30       	cpi	r27, 0x01	; 1
    43d6:	91 f0       	breq	.+36     	; 0x43fc <__fixunssfsi+0x4c>
    43d8:	0e 94 b2 22 	call	0x4564	; 0x4564 <__fp_zero>
    43dc:	b1 e0       	ldi	r27, 0x01	; 1
    43de:	08 95       	ret
    43e0:	0c 94 b2 22 	jmp	0x4564	; 0x4564 <__fp_zero>
    43e4:	67 2f       	mov	r22, r23
    43e6:	78 2f       	mov	r23, r24
    43e8:	88 27       	eor	r24, r24
    43ea:	b8 5f       	subi	r27, 0xF8	; 248
    43ec:	39 f0       	breq	.+14     	; 0x43fc <__fixunssfsi+0x4c>
    43ee:	b9 3f       	cpi	r27, 0xF9	; 249
    43f0:	cc f3       	brlt	.-14     	; 0x43e4 <__fixunssfsi+0x34>
    43f2:	86 95       	lsr	r24
    43f4:	77 95       	ror	r23
    43f6:	67 95       	ror	r22
    43f8:	b3 95       	inc	r27
    43fa:	d9 f7       	brne	.-10     	; 0x43f2 <__fixunssfsi+0x42>
    43fc:	3e f4       	brtc	.+14     	; 0x440c <__fixunssfsi+0x5c>
    43fe:	90 95       	com	r25
    4400:	80 95       	com	r24
    4402:	70 95       	com	r23
    4404:	61 95       	neg	r22
    4406:	7f 4f       	sbci	r23, 0xFF	; 255
    4408:	8f 4f       	sbci	r24, 0xFF	; 255
    440a:	9f 4f       	sbci	r25, 0xFF	; 255
    440c:	08 95       	ret

0000440e <__floatunsisf>:
    440e:	e8 94       	clt
    4410:	09 c0       	rjmp	.+18     	; 0x4424 <__floatsisf+0x12>

00004412 <__floatsisf>:
    4412:	97 fb       	bst	r25, 7
    4414:	3e f4       	brtc	.+14     	; 0x4424 <__floatsisf+0x12>
    4416:	90 95       	com	r25
    4418:	80 95       	com	r24
    441a:	70 95       	com	r23
    441c:	61 95       	neg	r22
    441e:	7f 4f       	sbci	r23, 0xFF	; 255
    4420:	8f 4f       	sbci	r24, 0xFF	; 255
    4422:	9f 4f       	sbci	r25, 0xFF	; 255
    4424:	99 23       	and	r25, r25
    4426:	a9 f0       	breq	.+42     	; 0x4452 <__floatsisf+0x40>
    4428:	f9 2f       	mov	r31, r25
    442a:	96 e9       	ldi	r25, 0x96	; 150
    442c:	bb 27       	eor	r27, r27
    442e:	93 95       	inc	r25
    4430:	f6 95       	lsr	r31
    4432:	87 95       	ror	r24
    4434:	77 95       	ror	r23
    4436:	67 95       	ror	r22
    4438:	b7 95       	ror	r27
    443a:	f1 11       	cpse	r31, r1
    443c:	f8 cf       	rjmp	.-16     	; 0x442e <__floatsisf+0x1c>
    443e:	fa f4       	brpl	.+62     	; 0x447e <__floatsisf+0x6c>
    4440:	bb 0f       	add	r27, r27
    4442:	11 f4       	brne	.+4      	; 0x4448 <__floatsisf+0x36>
    4444:	60 ff       	sbrs	r22, 0
    4446:	1b c0       	rjmp	.+54     	; 0x447e <__floatsisf+0x6c>
    4448:	6f 5f       	subi	r22, 0xFF	; 255
    444a:	7f 4f       	sbci	r23, 0xFF	; 255
    444c:	8f 4f       	sbci	r24, 0xFF	; 255
    444e:	9f 4f       	sbci	r25, 0xFF	; 255
    4450:	16 c0       	rjmp	.+44     	; 0x447e <__floatsisf+0x6c>
    4452:	88 23       	and	r24, r24
    4454:	11 f0       	breq	.+4      	; 0x445a <__floatsisf+0x48>
    4456:	96 e9       	ldi	r25, 0x96	; 150
    4458:	11 c0       	rjmp	.+34     	; 0x447c <__floatsisf+0x6a>
    445a:	77 23       	and	r23, r23
    445c:	21 f0       	breq	.+8      	; 0x4466 <__floatsisf+0x54>
    445e:	9e e8       	ldi	r25, 0x8E	; 142
    4460:	87 2f       	mov	r24, r23
    4462:	76 2f       	mov	r23, r22
    4464:	05 c0       	rjmp	.+10     	; 0x4470 <__floatsisf+0x5e>
    4466:	66 23       	and	r22, r22
    4468:	71 f0       	breq	.+28     	; 0x4486 <__floatsisf+0x74>
    446a:	96 e8       	ldi	r25, 0x86	; 134
    446c:	86 2f       	mov	r24, r22
    446e:	70 e0       	ldi	r23, 0x00	; 0
    4470:	60 e0       	ldi	r22, 0x00	; 0
    4472:	2a f0       	brmi	.+10     	; 0x447e <__floatsisf+0x6c>
    4474:	9a 95       	dec	r25
    4476:	66 0f       	add	r22, r22
    4478:	77 1f       	adc	r23, r23
    447a:	88 1f       	adc	r24, r24
    447c:	da f7       	brpl	.-10     	; 0x4474 <__floatsisf+0x62>
    447e:	88 0f       	add	r24, r24
    4480:	96 95       	lsr	r25
    4482:	87 95       	ror	r24
    4484:	97 f9       	bld	r25, 7
    4486:	08 95       	ret

00004488 <__fp_cmp>:
    4488:	99 0f       	add	r25, r25
    448a:	00 08       	sbc	r0, r0
    448c:	55 0f       	add	r21, r21
    448e:	aa 0b       	sbc	r26, r26
    4490:	e0 e8       	ldi	r30, 0x80	; 128
    4492:	fe ef       	ldi	r31, 0xFE	; 254
    4494:	16 16       	cp	r1, r22
    4496:	17 06       	cpc	r1, r23
    4498:	e8 07       	cpc	r30, r24
    449a:	f9 07       	cpc	r31, r25
    449c:	c0 f0       	brcs	.+48     	; 0x44ce <__fp_cmp+0x46>
    449e:	12 16       	cp	r1, r18
    44a0:	13 06       	cpc	r1, r19
    44a2:	e4 07       	cpc	r30, r20
    44a4:	f5 07       	cpc	r31, r21
    44a6:	98 f0       	brcs	.+38     	; 0x44ce <__fp_cmp+0x46>
    44a8:	62 1b       	sub	r22, r18
    44aa:	73 0b       	sbc	r23, r19
    44ac:	84 0b       	sbc	r24, r20
    44ae:	95 0b       	sbc	r25, r21
    44b0:	39 f4       	brne	.+14     	; 0x44c0 <__fp_cmp+0x38>
    44b2:	0a 26       	eor	r0, r26
    44b4:	61 f0       	breq	.+24     	; 0x44ce <__fp_cmp+0x46>
    44b6:	23 2b       	or	r18, r19
    44b8:	24 2b       	or	r18, r20
    44ba:	25 2b       	or	r18, r21
    44bc:	21 f4       	brne	.+8      	; 0x44c6 <__fp_cmp+0x3e>
    44be:	08 95       	ret
    44c0:	0a 26       	eor	r0, r26
    44c2:	09 f4       	brne	.+2      	; 0x44c6 <__fp_cmp+0x3e>
    44c4:	a1 40       	sbci	r26, 0x01	; 1
    44c6:	a6 95       	lsr	r26
    44c8:	8f ef       	ldi	r24, 0xFF	; 255
    44ca:	81 1d       	adc	r24, r1
    44cc:	81 1d       	adc	r24, r1
    44ce:	08 95       	ret

000044d0 <__fp_inf>:
    44d0:	97 f9       	bld	r25, 7
    44d2:	9f 67       	ori	r25, 0x7F	; 127
    44d4:	80 e8       	ldi	r24, 0x80	; 128
    44d6:	70 e0       	ldi	r23, 0x00	; 0
    44d8:	60 e0       	ldi	r22, 0x00	; 0
    44da:	08 95       	ret

000044dc <__fp_nan>:
    44dc:	9f ef       	ldi	r25, 0xFF	; 255
    44de:	80 ec       	ldi	r24, 0xC0	; 192
    44e0:	08 95       	ret

000044e2 <__fp_pscA>:
    44e2:	00 24       	eor	r0, r0
    44e4:	0a 94       	dec	r0
    44e6:	16 16       	cp	r1, r22
    44e8:	17 06       	cpc	r1, r23
    44ea:	18 06       	cpc	r1, r24
    44ec:	09 06       	cpc	r0, r25
    44ee:	08 95       	ret

000044f0 <__fp_pscB>:
    44f0:	00 24       	eor	r0, r0
    44f2:	0a 94       	dec	r0
    44f4:	12 16       	cp	r1, r18
    44f6:	13 06       	cpc	r1, r19
    44f8:	14 06       	cpc	r1, r20
    44fa:	05 06       	cpc	r0, r21
    44fc:	08 95       	ret

000044fe <__fp_round>:
    44fe:	09 2e       	mov	r0, r25
    4500:	03 94       	inc	r0
    4502:	00 0c       	add	r0, r0
    4504:	11 f4       	brne	.+4      	; 0x450a <__fp_round+0xc>
    4506:	88 23       	and	r24, r24
    4508:	52 f0       	brmi	.+20     	; 0x451e <__fp_round+0x20>
    450a:	bb 0f       	add	r27, r27
    450c:	40 f4       	brcc	.+16     	; 0x451e <__fp_round+0x20>
    450e:	bf 2b       	or	r27, r31
    4510:	11 f4       	brne	.+4      	; 0x4516 <__fp_round+0x18>
    4512:	60 ff       	sbrs	r22, 0
    4514:	04 c0       	rjmp	.+8      	; 0x451e <__fp_round+0x20>
    4516:	6f 5f       	subi	r22, 0xFF	; 255
    4518:	7f 4f       	sbci	r23, 0xFF	; 255
    451a:	8f 4f       	sbci	r24, 0xFF	; 255
    451c:	9f 4f       	sbci	r25, 0xFF	; 255
    451e:	08 95       	ret

00004520 <__fp_split3>:
    4520:	57 fd       	sbrc	r21, 7
    4522:	90 58       	subi	r25, 0x80	; 128
    4524:	44 0f       	add	r20, r20
    4526:	55 1f       	adc	r21, r21
    4528:	59 f0       	breq	.+22     	; 0x4540 <__fp_splitA+0x10>
    452a:	5f 3f       	cpi	r21, 0xFF	; 255
    452c:	71 f0       	breq	.+28     	; 0x454a <__fp_splitA+0x1a>
    452e:	47 95       	ror	r20

00004530 <__fp_splitA>:
    4530:	88 0f       	add	r24, r24
    4532:	97 fb       	bst	r25, 7
    4534:	99 1f       	adc	r25, r25
    4536:	61 f0       	breq	.+24     	; 0x4550 <__fp_splitA+0x20>
    4538:	9f 3f       	cpi	r25, 0xFF	; 255
    453a:	79 f0       	breq	.+30     	; 0x455a <__fp_splitA+0x2a>
    453c:	87 95       	ror	r24
    453e:	08 95       	ret
    4540:	12 16       	cp	r1, r18
    4542:	13 06       	cpc	r1, r19
    4544:	14 06       	cpc	r1, r20
    4546:	55 1f       	adc	r21, r21
    4548:	f2 cf       	rjmp	.-28     	; 0x452e <__fp_split3+0xe>
    454a:	46 95       	lsr	r20
    454c:	f1 df       	rcall	.-30     	; 0x4530 <__fp_splitA>
    454e:	08 c0       	rjmp	.+16     	; 0x4560 <__fp_splitA+0x30>
    4550:	16 16       	cp	r1, r22
    4552:	17 06       	cpc	r1, r23
    4554:	18 06       	cpc	r1, r24
    4556:	99 1f       	adc	r25, r25
    4558:	f1 cf       	rjmp	.-30     	; 0x453c <__fp_splitA+0xc>
    455a:	86 95       	lsr	r24
    455c:	71 05       	cpc	r23, r1
    455e:	61 05       	cpc	r22, r1
    4560:	08 94       	sec
    4562:	08 95       	ret

00004564 <__fp_zero>:
    4564:	e8 94       	clt

00004566 <__fp_szero>:
    4566:	bb 27       	eor	r27, r27
    4568:	66 27       	eor	r22, r22
    456a:	77 27       	eor	r23, r23
    456c:	cb 01       	movw	r24, r22
    456e:	97 f9       	bld	r25, 7
    4570:	08 95       	ret

00004572 <__gesf2>:
    4572:	0e 94 44 22 	call	0x4488	; 0x4488 <__fp_cmp>
    4576:	08 f4       	brcc	.+2      	; 0x457a <__gesf2+0x8>
    4578:	8f ef       	ldi	r24, 0xFF	; 255
    457a:	08 95       	ret

0000457c <__mulsf3>:
    457c:	0e 94 d1 22 	call	0x45a2	; 0x45a2 <__mulsf3x>
    4580:	0c 94 7f 22 	jmp	0x44fe	; 0x44fe <__fp_round>
    4584:	0e 94 71 22 	call	0x44e2	; 0x44e2 <__fp_pscA>
    4588:	38 f0       	brcs	.+14     	; 0x4598 <__mulsf3+0x1c>
    458a:	0e 94 78 22 	call	0x44f0	; 0x44f0 <__fp_pscB>
    458e:	20 f0       	brcs	.+8      	; 0x4598 <__mulsf3+0x1c>
    4590:	95 23       	and	r25, r21
    4592:	11 f0       	breq	.+4      	; 0x4598 <__mulsf3+0x1c>
    4594:	0c 94 68 22 	jmp	0x44d0	; 0x44d0 <__fp_inf>
    4598:	0c 94 6e 22 	jmp	0x44dc	; 0x44dc <__fp_nan>
    459c:	11 24       	eor	r1, r1
    459e:	0c 94 b3 22 	jmp	0x4566	; 0x4566 <__fp_szero>

000045a2 <__mulsf3x>:
    45a2:	0e 94 90 22 	call	0x4520	; 0x4520 <__fp_split3>
    45a6:	70 f3       	brcs	.-36     	; 0x4584 <__mulsf3+0x8>

000045a8 <__mulsf3_pse>:
    45a8:	95 9f       	mul	r25, r21
    45aa:	c1 f3       	breq	.-16     	; 0x459c <__mulsf3+0x20>
    45ac:	95 0f       	add	r25, r21
    45ae:	50 e0       	ldi	r21, 0x00	; 0
    45b0:	55 1f       	adc	r21, r21
    45b2:	62 9f       	mul	r22, r18
    45b4:	f0 01       	movw	r30, r0
    45b6:	72 9f       	mul	r23, r18
    45b8:	bb 27       	eor	r27, r27
    45ba:	f0 0d       	add	r31, r0
    45bc:	b1 1d       	adc	r27, r1
    45be:	63 9f       	mul	r22, r19
    45c0:	aa 27       	eor	r26, r26
    45c2:	f0 0d       	add	r31, r0
    45c4:	b1 1d       	adc	r27, r1
    45c6:	aa 1f       	adc	r26, r26
    45c8:	64 9f       	mul	r22, r20
    45ca:	66 27       	eor	r22, r22
    45cc:	b0 0d       	add	r27, r0
    45ce:	a1 1d       	adc	r26, r1
    45d0:	66 1f       	adc	r22, r22
    45d2:	82 9f       	mul	r24, r18
    45d4:	22 27       	eor	r18, r18
    45d6:	b0 0d       	add	r27, r0
    45d8:	a1 1d       	adc	r26, r1
    45da:	62 1f       	adc	r22, r18
    45dc:	73 9f       	mul	r23, r19
    45de:	b0 0d       	add	r27, r0
    45e0:	a1 1d       	adc	r26, r1
    45e2:	62 1f       	adc	r22, r18
    45e4:	83 9f       	mul	r24, r19
    45e6:	a0 0d       	add	r26, r0
    45e8:	61 1d       	adc	r22, r1
    45ea:	22 1f       	adc	r18, r18
    45ec:	74 9f       	mul	r23, r20
    45ee:	33 27       	eor	r19, r19
    45f0:	a0 0d       	add	r26, r0
    45f2:	61 1d       	adc	r22, r1
    45f4:	23 1f       	adc	r18, r19
    45f6:	84 9f       	mul	r24, r20
    45f8:	60 0d       	add	r22, r0
    45fa:	21 1d       	adc	r18, r1
    45fc:	82 2f       	mov	r24, r18
    45fe:	76 2f       	mov	r23, r22
    4600:	6a 2f       	mov	r22, r26
    4602:	11 24       	eor	r1, r1
    4604:	9f 57       	subi	r25, 0x7F	; 127
    4606:	50 40       	sbci	r21, 0x00	; 0
    4608:	9a f0       	brmi	.+38     	; 0x4630 <__mulsf3_pse+0x88>
    460a:	f1 f0       	breq	.+60     	; 0x4648 <__mulsf3_pse+0xa0>
    460c:	88 23       	and	r24, r24
    460e:	4a f0       	brmi	.+18     	; 0x4622 <__mulsf3_pse+0x7a>
    4610:	ee 0f       	add	r30, r30
    4612:	ff 1f       	adc	r31, r31
    4614:	bb 1f       	adc	r27, r27
    4616:	66 1f       	adc	r22, r22
    4618:	77 1f       	adc	r23, r23
    461a:	88 1f       	adc	r24, r24
    461c:	91 50       	subi	r25, 0x01	; 1
    461e:	50 40       	sbci	r21, 0x00	; 0
    4620:	a9 f7       	brne	.-22     	; 0x460c <__mulsf3_pse+0x64>
    4622:	9e 3f       	cpi	r25, 0xFE	; 254
    4624:	51 05       	cpc	r21, r1
    4626:	80 f0       	brcs	.+32     	; 0x4648 <__mulsf3_pse+0xa0>
    4628:	0c 94 68 22 	jmp	0x44d0	; 0x44d0 <__fp_inf>
    462c:	0c 94 b3 22 	jmp	0x4566	; 0x4566 <__fp_szero>
    4630:	5f 3f       	cpi	r21, 0xFF	; 255
    4632:	e4 f3       	brlt	.-8      	; 0x462c <__mulsf3_pse+0x84>
    4634:	98 3e       	cpi	r25, 0xE8	; 232
    4636:	d4 f3       	brlt	.-12     	; 0x462c <__mulsf3_pse+0x84>
    4638:	86 95       	lsr	r24
    463a:	77 95       	ror	r23
    463c:	67 95       	ror	r22
    463e:	b7 95       	ror	r27
    4640:	f7 95       	ror	r31
    4642:	e7 95       	ror	r30
    4644:	9f 5f       	subi	r25, 0xFF	; 255
    4646:	c1 f7       	brne	.-16     	; 0x4638 <__mulsf3_pse+0x90>
    4648:	fe 2b       	or	r31, r30
    464a:	88 0f       	add	r24, r24
    464c:	91 1d       	adc	r25, r1
    464e:	96 95       	lsr	r25
    4650:	87 95       	ror	r24
    4652:	97 f9       	bld	r25, 7
    4654:	08 95       	ret

00004656 <_exit>:
    4656:	f8 94       	cli

00004658 <__stop_program>:
    4658:	ff cf       	rjmp	.-2      	; 0x4658 <__stop_program>
