
firmware.elf:     file format elf32-avr


Disassembly of section .text:

00000000 <__vectors>:
       0:	0c 94 8a 06 	jmp	0xd14	; 0xd14 <__ctors_end>
       4:	0c 94 a9 06 	jmp	0xd52	; 0xd52 <__bad_interrupt>
       8:	0c 94 a9 06 	jmp	0xd52	; 0xd52 <__bad_interrupt>
       c:	0c 94 a9 06 	jmp	0xd52	; 0xd52 <__bad_interrupt>
      10:	0c 94 a9 06 	jmp	0xd52	; 0xd52 <__bad_interrupt>
      14:	0c 94 a9 06 	jmp	0xd52	; 0xd52 <__bad_interrupt>
      18:	0c 94 a9 06 	jmp	0xd52	; 0xd52 <__bad_interrupt>
      1c:	0c 94 a9 06 	jmp	0xd52	; 0xd52 <__bad_interrupt>
      20:	0c 94 a9 06 	jmp	0xd52	; 0xd52 <__bad_interrupt>
      24:	0c 94 a9 06 	jmp	0xd52	; 0xd52 <__bad_interrupt>
      28:	0c 94 a9 06 	jmp	0xd52	; 0xd52 <__bad_interrupt>
      2c:	0c 94 a9 06 	jmp	0xd52	; 0xd52 <__bad_interrupt>
      30:	0c 94 a9 06 	jmp	0xd52	; 0xd52 <__bad_interrupt>
      34:	0c 94 a9 06 	jmp	0xd52	; 0xd52 <__bad_interrupt>
      38:	0c 94 a9 06 	jmp	0xd52	; 0xd52 <__bad_interrupt>
      3c:	0c 94 a9 06 	jmp	0xd52	; 0xd52 <__bad_interrupt>
      40:	0c 94 a9 06 	jmp	0xd52	; 0xd52 <__bad_interrupt>
      44:	0c 94 a9 06 	jmp	0xd52	; 0xd52 <__bad_interrupt>
      48:	0c 94 a9 06 	jmp	0xd52	; 0xd52 <__bad_interrupt>
      4c:	0c 94 a9 06 	jmp	0xd52	; 0xd52 <__bad_interrupt>
      50:	0c 94 a9 06 	jmp	0xd52	; 0xd52 <__bad_interrupt>
      54:	0c 94 a9 06 	jmp	0xd52	; 0xd52 <__bad_interrupt>
      58:	0c 94 a9 06 	jmp	0xd52	; 0xd52 <__bad_interrupt>
      5c:	0c 94 a9 06 	jmp	0xd52	; 0xd52 <__bad_interrupt>
      60:	0c 94 a9 06 	jmp	0xd52	; 0xd52 <__bad_interrupt>
      64:	0c 94 a9 06 	jmp	0xd52	; 0xd52 <__bad_interrupt>
      68:	0c 94 a9 06 	jmp	0xd52	; 0xd52 <__bad_interrupt>
      6c:	0c 94 a9 06 	jmp	0xd52	; 0xd52 <__bad_interrupt>
      70:	0c 94 a9 06 	jmp	0xd52	; 0xd52 <__bad_interrupt>
      74:	0c 94 a9 06 	jmp	0xd52	; 0xd52 <__bad_interrupt>
      78:	0c 94 a9 06 	jmp	0xd52	; 0xd52 <__bad_interrupt>
      7c:	0c 94 a9 06 	jmp	0xd52	; 0xd52 <__bad_interrupt>
      80:	0c 94 a9 06 	jmp	0xd52	; 0xd52 <__bad_interrupt>
      84:	0c 94 a9 06 	jmp	0xd52	; 0xd52 <__bad_interrupt>
      88:	0c 94 a9 06 	jmp	0xd52	; 0xd52 <__bad_interrupt>

0000008c <__trampolines_end>:
	...
      94:	00 08       	sbc	r0, r0
      96:	b9 00       	.word	0x00b9	; ????
      98:	b9 07       	cpc	r27, r25
      9a:	10 00       	.word	0x0010	; ????
	...

000000b9 <chrtbl_f16>:
      b9:	a9 07 99 07 89 07 79 07 69 07 59 07 49 07 39 07     ......y.i.Y.I.9.
      c9:	29 07 19 07 09 07 f9 06 e9 06 d9 06 c9 06 b9 06     )...............
      d9:	a9 06 99 06 89 06 79 06 69 06 59 06 49 06 39 06     ......y.i.Y.I.9.
      e9:	29 06 19 06 09 06 f9 05 e9 05 d9 05 c9 05 b9 05     )...............
      f9:	a9 05 99 05 89 05 79 05 69 05 59 05 49 05 39 05     ......y.i.Y.I.9.
     109:	29 05 19 05 09 05 f9 04 e9 04 c9 04 b9 04 a9 04     )...............
     119:	99 04 89 04 79 04 69 04 59 04 49 04 39 04 19 04     ....y.i.Y.I.9...
     129:	09 04 f9 03 e9 03 d9 03 c9 03 b9 03 99 03 79 03     ..............y.
     139:	69 03 59 03 49 03 39 03 29 03 19 03 09 03 f9 02     i.Y.I.9.).......
     149:	e9 02 d9 02 c9 02 b9 02 a9 02 99 02 89 02 79 02     ..............y.
     159:	69 02 59 02 49 02 39 02 29 02 19 02 09 02 f9 01     i.Y.I.9.).......
     169:	e9 01 d9 01 c9 01 b9 01 a9 01 99 01 89 01 79 01     ..............y.

00000179 <chr_f16_7F>:
     179:	00 00 30 48 48 30 00 00 00 00 00 00 00 00 00 00     ..0HH0..........

00000189 <chr_f16_7E>:
     189:	00 00 00 32 4c 00 00 00 00 00 00 00 00 00 00 00     ...2L...........

00000199 <chr_f16_7D>:
     199:	00 40 20 20 20 20 20 20 10 20 20 20 20 20 20 40     .@      .      @

000001a9 <chr_f16_7C>:
     1a9:	00 00 40 40 40 40 40 40 40 40 40 40 40 40 40 00     ..@@@@@@@@@@@@@.

000001b9 <chr_f16_7B>:
     1b9:	00 10 20 20 20 20 20 20 40 20 20 20 20 20 20 10     ..      @      .

000001c9 <chr_f16_7A>:
     1c9:	00 00 00 00 00 00 fc 04 08 30 40 80 fc 00 00 00     .........0@.....

000001d9 <chr_f16_79>:
     1d9:	00 00 00 00 00 00 84 84 84 84 84 4c 34 04 08 70     ...........L4..p

000001e9 <chr_f16_78>:
     1e9:	00 00 00 00 00 00 88 88 50 20 50 88 88 00 00 00     ........P P.....

000001f9 <chr_f16_77>:
     1f9:	00 00 00 00 00 00 82 82 82 92 92 aa 44 00 00 00     ............D...

00000209 <chr_f16_76>:
     209:	00 00 00 00 00 00 82 82 82 82 44 28 10 00 00 00     ..........D(....

00000219 <chr_f16_75>:
     219:	00 00 00 00 00 00 84 84 84 84 84 4c 34 00 00 00     ...........L4...

00000229 <chr_f16_74>:
     229:	00 00 00 00 40 40 e0 40 40 40 40 40 30 00 00 00     ....@@.@@@@@0...

00000239 <chr_f16_73>:
     239:	00 00 00 00 00 00 70 88 80 70 08 88 70 00 00 00     ......p..p..p...

00000249 <chr_f16_72>:
     249:	00 00 00 00 00 00 b0 c8 80 80 80 80 80 00 00 00     ................

00000259 <chr_f16_71>:
     259:	00 00 00 00 00 00 34 4c 84 84 84 4c 34 04 04 06     ......4L...L4...

00000269 <chr_f16_70>:
     269:	00 00 00 00 00 00 b0 c8 84 84 84 c8 b0 80 80 80     ................

00000279 <chr_f16_6F>:
     279:	00 00 00 00 00 00 38 44 82 82 82 44 38 00 00 00     ......8D...D8...

00000289 <chr_f16_6E>:
     289:	00 00 00 00 00 00 b0 c8 84 84 84 84 84 00 00 00     ................

00000299 <chr_f16_6D>:
     299:	00 00 00 00 00 00 ac d2 92 92 92 92 92 00 00 00     ................

000002a9 <chr_f16_6C>:
     2a9:	00 00 00 c0 40 40 40 40 40 40 40 40 40 00 00 00     ....@@@@@@@@@...

000002b9 <chr_f16_6B>:
     2b9:	00 00 00 80 80 80 88 90 a0 c0 a0 90 88 00 00 00     ................

000002c9 <chr_f16_6A>:
     2c9:	00 00 00 00 10 00 30 10 10 10 10 10 10 10 90 60     ......0........`

000002d9 <chr_f16_69>:
     2d9:	00 00 00 00 40 00 40 40 40 40 40 40 40 00 00 00     ....@.@@@@@@@...

000002e9 <chr_f16_68>:
     2e9:	00 00 00 80 80 80 b0 c8 84 84 84 84 84 00 00 00     ................

000002f9 <chr_f16_67>:
     2f9:	00 00 00 00 00 00 30 4c 84 84 84 4c 34 04 08 70     ......0L...L4..p

00000309 <chr_f16_66>:
     309:	00 00 00 30 48 40 40 40 e0 40 40 40 40 00 00 00     ...0H@@@.@@@@...

00000319 <chr_f16_65>:
     319:	00 00 00 00 00 00 38 44 84 f8 80 44 38 00 00 00     ......8D...D8...

00000329 <chr_f16_64>:
     329:	00 00 00 00 04 04 34 4c 84 84 84 4c 34 00 00 00     ......4L...L4...

00000339 <chr_f16_63>:
     339:	00 00 00 00 00 00 38 44 80 80 80 44 38 00 00 00     ......8D...D8...

00000349 <chr_f16_62>:
     349:	00 00 00 00 80 80 b0 c8 84 84 84 c8 b0 00 00 00     ................

00000359 <chr_f16_61>:
     359:	00 00 00 00 00 00 70 08 04 74 8c 8c 74 00 00 00     ......p..t..t...

00000369 <chr_f16_60>:
     369:	00 00 00 40 40 40 20 00 00 00 00 00 00 00 00 00     ...@@@ .........

00000379 <chr_f16_5F>:
	...
     385:	00 00 ff 00 00 00 00 00 00 00 00 00 00 00 00 00     ................
     395:	00 00 00 00                                         ....

00000399 <chr_f16_5E>:
     399:	00 10 28 44 00 00 00 00 00 00 00 00 00 00 00 00     ..(D............
	...

000003b9 <chr_f16_5D>:
     3b9:	00 00 e0 20 20 20 20 20 20 20 20 20 20 e0 00 00     ...          ...

000003c9 <chr_f16_5C>:
     3c9:	00 00 04 04 08 08 10 10 20 20 40 40 80 80 00 00     ........  @@....

000003d9 <chr_f16_5B>:
     3d9:	00 00 e0 80 80 80 80 80 80 80 80 80 80 e0 00 00     ................

000003e9 <chr_f16_5A>:
     3e9:	00 00 00 fe 02 04 08 10 10 20 40 80 fe 00 00 00     ......... @.....

000003f9 <chr_f16_59>:
     3f9:	00 00 00 82 82 82 44 28 10 10 10 10 10 00 00 00     ......D(........

00000409 <chr_f16_58>:
     409:	00 00 00 82 82 44 28 10 10 28 44 82 82 00 00 00     .....D(..(D.....

00000419 <chr_f16_57>:
     419:	00 00 00 00 00 00 80 80 80 80 80 80 88 80 88 80     ................
     429:	49 00 55 00 55 00 22 00 22 00 00 00 00 00 00 00     I.U.U.".".......

00000439 <chr_f16_56>:
     439:	00 00 00 82 82 82 82 44 44 28 28 10 10 00 00 00     .......DD((.....

00000449 <chr_f16_55>:
     449:	00 00 00 82 82 82 82 82 82 82 82 44 38 00 00 00     ...........D8...

00000459 <chr_f16_54>:
     459:	00 00 00 fe 10 10 10 10 10 10 10 10 10 00 00 00     ................

00000469 <chr_f16_53>:
     469:	00 00 00 38 44 82 80 60 1c 02 82 44 38 00 00 00     ...8D..`...D8...

00000479 <chr_f16_52>:
     479:	00 00 00 f8 84 82 82 84 f8 90 88 84 82 00 00 00     ................

00000489 <chr_f16_51>:
     489:	00 00 00 38 44 82 82 82 82 82 82 44 38 08 06 00     ...8D......D8...

00000499 <chr_f16_50>:
     499:	00 00 00 f8 84 82 82 82 84 f8 80 80 80 00 00 00     ................

000004a9 <chr_f16_4F>:
     4a9:	00 00 00 38 44 82 82 82 82 82 82 44 38 00 00 00     ...8D......D8...

000004b9 <chr_f16_4E>:
     4b9:	00 00 00 c2 c2 a2 a2 92 92 8a 8a 86 86 00 00 00     ................

000004c9 <chr_f16_4D>:
     4c9:	00 00 00 00 00 00 c1 80 c1 80 a2 80 a2 80 94 80     ................
     4d9:	94 80 88 80 88 80 80 80 80 80 00 00 00 00 00 00     ................

000004e9 <chr_f16_4C>:
     4e9:	00 00 00 80 80 80 80 80 80 80 80 80 fc 00 00 00     ................

000004f9 <chr_f16_4B>:
     4f9:	00 00 00 84 88 90 a0 c0 a0 90 88 84 82 00 00 00     ................

00000509 <chr_f16_4A>:
     509:	00 00 00 02 02 02 02 02 02 02 82 44 38 00 00 00     ...........D8...

00000519 <chr_f16_49>:
     519:	00 00 00 e0 40 40 40 40 40 40 40 40 e0 00 00 00     ....@@@@@@@@....

00000529 <chr_f16_48>:
     529:	00 00 00 84 84 84 84 fc 84 84 84 84 84 00 00 00     ................

00000539 <chr_f16_47>:
     539:	00 00 00 3c 42 80 80 80 9c 82 82 42 3c 00 00 00     ...<B......B<...

00000549 <chr_f16_46>:
     549:	00 00 00 fe 80 80 80 f8 80 80 80 80 80 00 00 00     ................

00000559 <chr_f16_45>:
     559:	00 00 00 fe 80 80 80 fc 80 80 80 80 fe 00 00 00     ................

00000569 <chr_f16_44>:
     569:	00 00 00 f8 84 82 82 82 82 82 82 84 f8 00 00 00     ................

00000579 <chr_f16_43>:
     579:	00 00 00 3c 42 80 80 80 80 80 80 42 3c 00 00 00     ...<B......B<...

00000589 <chr_f16_42>:
     589:	00 00 00 f8 84 82 84 f8 84 82 82 84 f8 00 00 00     ................

00000599 <chr_f16_41>:
     599:	00 00 00 10 10 28 28 44 44 7c 82 82 82 00 00 00     .....((DD|......

000005a9 <chr_f16_40>:
     5a9:	00 00 00 3c 42 99 a5 a5 a5 a5 9e 40 3e 00 00 00     ...<B......@>...

000005b9 <chr_f16_3F>:
     5b9:	00 00 00 38 44 82 02 04 08 10 10 00 10 00 00 00     ...8D...........

000005c9 <chr_f16_3E>:
     5c9:	00 00 00 00 80 40 20 10 08 10 20 40 80 00 00 00     .....@ ... @....

000005d9 <chr_f16_3D>:
     5d9:	00 00 00 00 00 00 00 f8 00 f8 00 00 00 00 00 00     ................

000005e9 <chr_f16_3C>:
     5e9:	00 00 00 00 08 10 20 40 80 40 20 10 08 00 00 00     ...... @.@ .....

000005f9 <chr_f16_3B>:
     5f9:	00 00 00 00 00 00 c0 c0 00 c0 c0 40 80 00 00 00     ...........@....

00000609 <chr_f16_3A>:
     609:	00 00 00 00 00 00 c0 c0 00 c0 c0 00 00 00 00 00     ................

00000619 <chr_f16_39>:
     619:	00 00 00 38 44 82 82 46 3a 02 02 04 78 00 00 00     ...8D..F:...x...

00000629 <chr_f16_38>:
     629:	00 00 00 38 44 82 44 38 44 82 82 44 38 00 00 00     ...8D.D8D..D8...

00000639 <chr_f16_37>:
     639:	00 00 00 7e 02 02 04 04 08 08 10 10 10 00 00 00     ...~............

00000649 <chr_f16_36>:
     649:	00 00 00 3c 40 80 80 b8 c4 82 82 44 38 00 00 00     ...<@......D8...

00000659 <chr_f16_35>:
     659:	00 00 00 fc 80 80 80 f8 04 02 02 84 78 00 00 00     ............x...

00000669 <chr_f16_34>:
     669:	00 00 00 04 0c 14 24 44 84 fe 04 04 04 00 00 00     ......$D........

00000679 <chr_f16_33>:
     679:	00 00 00 78 84 02 04 38 04 02 02 84 78 00 00 00     ...x...8....x...

00000689 <chr_f16_32>:
     689:	00 00 00 38 44 82 02 04 18 20 40 80 fe 00 00 00     ...8D.... @.....

00000699 <chr_f16_31>:
     699:	00 00 00 10 30 50 10 10 10 10 10 10 7c 00 00 00     ....0P......|...

000006a9 <chr_f16_30>:
     6a9:	00 00 00 38 44 44 82 82 82 82 44 44 38 00 00 00     ...8DD....DD8...

000006b9 <chr_f16_2F>:
     6b9:	00 00 04 04 08 08 10 10 20 20 40 40 80 80 00 00     ........  @@....

000006c9 <chr_f16_2E>:
	...
     6d1:	00 00 00 c0 c0 00 00 00                             ........

000006d9 <chr_f16_2D>:
	...
     6e1:	f8 00 00 00 00 00 00 00                             ........

000006e9 <chr_f16_2C>:
	...
     6f1:	00 00 00 c0 c0 40 80 00                             .....@..

000006f9 <chr_f16_2B>:
     6f9:	00 00 00 00 00 00 20 20 f8 20 20 00 00 00 00 00     ......  .  .....

00000709 <chr_f16_2A>:
     709:	00 00 00 00 10 92 54 38 54 92 10 00 00 00 00 00     ......T8T.......

00000719 <chr_f16_29>:
     719:	00 c0 20 10 08 08 04 04 04 04 04 08 08 10 20 c0     .. ........... .

00000729 <chr_f16_28>:
     729:	00 0c 10 20 40 40 80 80 80 80 80 40 40 20 10 0c     ... @@.....@@ ..

00000739 <chr_f16_27>:
     739:	00 00 40 40 40 80 00 00 00 00 00 00 00 00 00 00     ..@@@...........

00000749 <chr_f16_26>:
     749:	00 00 00 20 50 88 88 50 20 52 8c 8c 73 00 00 00     ... P..P R..s...

00000759 <chr_f16_25>:
     759:	00 00 00 61 91 92 64 08 10 26 49 89 86 00 00 00     ...a..d..&I.....

00000769 <chr_f16_24>:
     769:	00 00 00 3c 42 40 40 70 40 70 40 40 fe 00 00 00     ...<B@@p@p@@....

00000779 <chr_f16_23>:
     779:	00 00 00 24 24 24 ff 24 24 ff 24 24 24 00 00 00     ...$$$.$$.$$$...

00000789 <chr_f16_22>:
     789:	00 00 a0 a0 a0 00 00 00 00 00 00 00 00 00 00 00     ................

00000799 <chr_f16_21>:
     799:	00 00 00 40 40 40 40 40 40 40 40 00 40 00 00 00     ...@@@@@@@@.@...

000007a9 <chr_f16_20>:
	...

000007b9 <widtbl_f16>:
     7b9:	06 03 04 09 08 09 09 03 07 07 08 06 03 06 05 07     ................
     7c9:	08 08 08 08 08 08 08 08 08 08 03 03 06 06 06 08     ................
     7d9:	09 08 08 08 08 08 08 08 08 04 08 08 07 0a 08 08     ................
     7e9:	08 08 08 08 08 08 08 0a 08 08 08 04 07 04 07 09     ................
     7f9:	04 07 07 07 07 07 06 07 07 04 05 06 04 08 07 08     ................
     809:	07 08 06 06 05 07 08 08 06 07 07 05 03 05 08 06     ................

00000819 <font>:
     819:	00 00 00 00 00 3e 5b 4f 5b 3e 3e 6b 4f 6b 3e 1c     .....>[O[>>kOk>.
     829:	3e 7c 3e 1c 18 3c 7e 3c 18 1c 57 7d 57 1c 1c 5e     >|>..<~<..W}W..^
     839:	7f 5e 1c 00 18 3c 18 00 ff e7 c3 e7 ff 00 18 24     .^...<.........$
     849:	18 00 ff e7 db e7 ff 30 48 3a 06 0e 26 29 79 29     .......0H:..&)y)
     859:	26 40 7f 05 05 07 40 7f 05 25 3f 5a 3c e7 3c 5a     &@....@..%?Z<.<Z
     869:	7f 3e 1c 1c 08 08 1c 1c 3e 7f 14 22 7f 22 14 5f     .>......>.."."._
     879:	5f 00 5f 5f 06 09 7f 01 7f 00 66 89 95 6a 60 60     _.__......f..j``
     889:	60 60 60 94 a2 ff a2 94 08 04 7e 04 08 10 20 7e     ```.......~... ~
     899:	20 10 08 08 2a 1c 08 08 1c 2a 08 08 1e 10 10 10      ...*....*......
     8a9:	10 0c 1e 0c 1e 0c 30 38 3e 38 30 06 0e 3e 0e 06     ......08>80..>..
     8b9:	00 00 00 00 00 00 00 5f 00 00 00 07 00 07 00 14     ......._........
     8c9:	7f 14 7f 14 24 2a 7f 2a 12 23 13 08 64 62 36 49     ....$*.*.#..db6I
     8d9:	56 20 50 00 08 07 03 00 00 1c 22 41 00 00 41 22     V P......."A..A"
     8e9:	1c 00 2a 1c 7f 1c 2a 08 08 3e 08 08 00 80 70 30     ..*...*..>....p0
     8f9:	00 08 08 08 08 08 00 00 60 60 00 20 10 08 04 02     ........``. ....
     909:	3e 51 49 45 3e 00 42 7f 40 00 72 49 49 49 46 21     >QIE>.B.@.rIIIF!
     919:	41 49 4d 33 18 14 12 7f 10 27 45 45 45 39 3c 4a     AIM3.....'EEE9<J
     929:	49 49 31 41 21 11 09 07 36 49 49 49 36 46 49 49     II1A!...6III6FII
     939:	29 1e 00 00 14 00 00 00 40 34 00 00 00 08 14 22     ).......@4....."
     949:	41 14 14 14 14 14 00 41 22 14 08 02 01 59 09 06     A......A"....Y..
     959:	3e 41 5d 59 4e 7c 12 11 12 7c 7f 49 49 49 36 3e     >A]YN|...|.III6>
     969:	41 41 41 22 7f 41 41 41 3e 7f 49 49 49 41 7f 09     AAA".AAA>.IIIA..
     979:	09 09 01 3e 41 41 51 73 7f 08 08 08 7f 00 41 7f     ...>AAQs......A.
     989:	41 00 20 40 41 3f 01 7f 08 14 22 41 7f 40 40 40     A. @A?...."A.@@@
     999:	40 7f 02 1c 02 7f 7f 04 08 10 7f 3e 41 41 41 3e     @..........>AAA>
     9a9:	7f 09 09 09 06 3e 41 51 21 5e 7f 09 19 29 46 26     .....>AQ!^...)F&
     9b9:	49 49 49 32 03 01 7f 01 03 3f 40 40 40 3f 1f 20     III2.....?@@@?. 
     9c9:	40 20 1f 3f 40 38 40 3f 63 14 08 14 63 03 04 78     @ .?@8@?c...c..x
     9d9:	04 03 61 59 49 4d 43 00 7f 41 41 41 02 04 08 10     ..aYIMC..AAA....
     9e9:	20 00 41 41 41 7f 04 02 01 02 04 40 40 40 40 40      .AAA......@@@@@
     9f9:	00 03 07 08 00 20 54 54 78 40 7f 28 44 44 38 38     ..... TTx@.(DD88
     a09:	44 44 44 28 38 44 44 28 7f 38 54 54 54 18 00 08     DDD(8DD(.8TTT...
     a19:	7e 09 02 18 a4 a4 9c 78 7f 08 04 04 78 00 44 7d     ~......x....x.D}
     a29:	40 00 20 40 40 3d 00 7f 10 28 44 00 00 41 7f 40     @. @@=...(D..A.@
     a39:	00 7c 04 78 04 78 7c 08 04 04 78 38 44 44 44 38     .|.x.x|...x8DDD8
     a49:	fc 18 24 24 18 18 24 24 18 fc 7c 08 04 04 08 48     ..$$..$$..|....H
     a59:	54 54 54 24 04 04 3f 44 24 3c 40 40 20 7c 1c 20     TTT$..?D$<@@ |. 
     a69:	40 20 1c 3c 40 30 40 3c 44 28 10 28 44 4c 90 90     @ .<@0@<D(.(DL..
     a79:	90 7c 44 64 54 4c 44 00 08 36 41 00 00 00 77 00     .|DdTLD..6A...w.
     a89:	00 00 41 36 08 00 02 01 02 04 02 3c 26 23 26 3c     ..A6.......<&#&<
     a99:	1e a1 a1 61 12 3a 40 40 20 7a 38 54 54 55 59 21     ...a.:@@ z8TTUY!
     aa9:	55 55 79 41 21 54 54 78 41 21 55 54 78 40 20 54     UUyA!TTxA!UTx@ T
     ab9:	55 79 40 0c 1e 52 72 12 39 55 55 55 59 39 54 54     Uy@..Rr.9UUUY9TT
     ac9:	54 59 39 55 54 54 58 00 00 45 7c 41 00 02 45 7d     TY9UTTX..E|A..E}
     ad9:	42 00 01 45 7c 40 f0 29 24 29 f0 f0 28 25 28 f0     B..E|@.)$)..(%(.
     ae9:	7c 54 55 45 00 20 54 54 7c 54 7c 0a 09 7f 49 32     |TUE. TT|T|...I2
     af9:	49 49 49 32 32 48 48 48 32 32 4a 48 48 30 3a 41     III22HHH22JHH0:A
     b09:	41 21 7a 3a 42 40 20 78 00 9d a0 a0 7d 39 44 44     A!z:B@ x....}9DD
     b19:	44 39 3d 40 40 40 3d 3c 24 ff 24 24 48 7e 49 43     D9=@@@=<$.$$H~IC
     b29:	66 2b 2f fc 2f 2b ff 09 29 f6 20 c0 88 7e 09 03     f+/./+..). ..~..
     b39:	20 54 54 79 41 00 00 44 7d 41 30 48 48 4a 32 38      TTyA..D}A0HHJ28
     b49:	40 40 22 7a 00 7a 0a 0a 72 7d 0d 19 31 7d 26 29     @@"z.z..r}..1}&)
     b59:	29 2f 28 26 29 29 29 26 30 48 4d 40 20 38 08 08     )/(&)))&0HM@ 8..
     b69:	08 08 08 08 08 08 38 2f 10 c8 ac ba 2f 10 28 34     ......8/..../.(4
     b79:	fa 00 00 7b 00 00 08 14 2a 14 22 22 14 2a 14 08     ...{....*."".*..
     b89:	aa 00 55 00 aa aa 55 aa 55 aa 00 00 00 ff 00 10     ..U...U.U.......
     b99:	10 10 ff 00 14 14 14 ff 00 10 10 ff 00 ff 10 10     ................
     ba9:	f0 10 f0 14 14 14 fc 00 14 14 f7 00 ff 00 00 ff     ................
     bb9:	00 ff 14 14 f4 04 fc 14 14 17 10 1f 10 10 1f 10     ................
     bc9:	1f 14 14 14 1f 00 10 10 10 f0 00 00 00 00 1f 10     ................
     bd9:	10 10 10 1f 10 10 10 10 f0 10 00 00 00 ff 10 10     ................
     be9:	10 10 10 10 10 10 10 ff 10 00 00 00 ff 14 00 00     ................
     bf9:	ff 00 ff 00 00 1f 10 17 00 00 fc 04 f4 14 14 17     ................
     c09:	10 17 14 14 f4 04 f4 00 00 ff 00 f7 14 14 14 14     ................
     c19:	14 14 14 f7 00 f7 14 14 14 17 14 10 10 1f 10 1f     ................
     c29:	14 14 14 f4 14 10 10 f0 10 f0 00 00 1f 10 1f 00     ................
     c39:	00 00 1f 14 00 00 00 fc 14 00 00 f0 10 f0 10 10     ................
     c49:	ff 10 ff 14 14 14 ff 14 10 10 10 1f 00 00 00 00     ................
     c59:	f0 10 ff ff ff ff ff f0 f0 f0 f0 f0 ff ff ff 00     ................
     c69:	00 00 00 00 ff ff 0f 0f 0f 0f 0f 38 44 44 38 44     ...........8DD8D
     c79:	7c 2a 2a 3e 14 7e 02 02 06 06 02 7e 02 7e 02 63     |**>.~.....~.~.c
     c89:	55 49 41 63 38 44 44 3c 04 40 7e 20 1e 20 06 02     UIAc8DD<.@~ . ..
     c99:	7e 02 02 99 a5 e7 a5 99 1c 2a 49 2a 1c 4c 72 01     ~........*I*.Lr.
     ca9:	72 4c 30 4a 4d 4d 30 30 48 78 48 30 bc 62 5a 46     rL0JMM00HxH0.bZF
     cb9:	3d 3e 49 49 49 00 7e 01 01 01 7e 2a 2a 2a 2a 2a     =>III.~...~*****
     cc9:	44 44 5f 44 44 40 51 4a 44 40 40 44 4a 51 40 00     DD_DD@QJD@@DJQ@.
     cd9:	00 ff 01 03 e0 80 ff 00 00 08 08 6b 6b 08 36 12     ...........kk.6.
     ce9:	36 24 36 06 0f 09 0f 06 00 00 18 18 00 00 00 10     6$6.............
     cf9:	10 00 30 40 ff 01 01 00 1f 01 01 1e 00 19 1d 17     ..0@............
     d09:	12 00 3c 3c 3c 3c 00 00 00 00 00                    ..<<<<.....

00000d14 <__ctors_end>:
     d14:	11 24       	eor	r1, r1
     d16:	1f be       	out	0x3f, r1	; 63
     d18:	cf ef       	ldi	r28, 0xFF	; 255
     d1a:	d0 e1       	ldi	r29, 0x10	; 16
     d1c:	de bf       	out	0x3e, r29	; 62
     d1e:	cd bf       	out	0x3d, r28	; 61

00000d20 <__do_copy_data>:
     d20:	11 e0       	ldi	r17, 0x01	; 1
     d22:	a0 e0       	ldi	r26, 0x00	; 0
     d24:	b1 e0       	ldi	r27, 0x01	; 1
     d26:	ee e7       	ldi	r30, 0x7E	; 126
     d28:	f0 e4       	ldi	r31, 0x40	; 64
     d2a:	00 e0       	ldi	r16, 0x00	; 0
     d2c:	0b bf       	out	0x3b, r16	; 59
     d2e:	02 c0       	rjmp	.+4      	; 0xd34 <__do_copy_data+0x14>
     d30:	07 90       	elpm	r0, Z+
     d32:	0d 92       	st	X+, r0
     d34:	ae 3e       	cpi	r26, 0xEE	; 238
     d36:	b1 07       	cpc	r27, r17
     d38:	d9 f7       	brne	.-10     	; 0xd30 <__do_copy_data+0x10>

00000d3a <__do_clear_bss>:
     d3a:	29 e0       	ldi	r18, 0x09	; 9
     d3c:	ae ee       	ldi	r26, 0xEE	; 238
     d3e:	b1 e0       	ldi	r27, 0x01	; 1
     d40:	01 c0       	rjmp	.+2      	; 0xd44 <.do_clear_bss_start>

00000d42 <.do_clear_bss_loop>:
     d42:	1d 92       	st	X+, r1

00000d44 <.do_clear_bss_start>:
     d44:	a9 32       	cpi	r26, 0x29	; 41
     d46:	b2 07       	cpc	r27, r18
     d48:	e1 f7       	brne	.-8      	; 0xd42 <.do_clear_bss_loop>
     d4a:	0e 94 7e 1d 	call	0x3afc	; 0x3afc <main>
     d4e:	0c 94 3d 20 	jmp	0x407a	; 0x407a <_exit>

00000d52 <__bad_interrupt>:
     d52:	0c 94 00 00 	jmp	0	; 0x0 <__vectors>

00000d56 <spi_init>:
     d56:	87 b3       	in	r24, 0x17	; 23
     d58:	86 61       	ori	r24, 0x16	; 22
     d5a:	87 bb       	out	0x17, r24	; 23
     d5c:	80 e5       	ldi	r24, 0x50	; 80
     d5e:	8d b9       	out	0x0d, r24	; 13
     d60:	81 e0       	ldi	r24, 0x01	; 1
     d62:	8e b9       	out	0x0e, r24	; 14
     d64:	08 95       	ret

00000d66 <spiWrite16>:
     d66:	16 16       	cp	r1, r22
     d68:	17 06       	cpc	r1, r23
     d6a:	34 f4       	brge	.+12     	; 0xd78 <spiWrite16+0x12>
     d6c:	c2 9a       	sbi	0x18, 2	; 24
     d6e:	c0 98       	cbi	0x18, 0	; 24
     d70:	61 50       	subi	r22, 0x01	; 1
     d72:	71 09       	sbc	r23, r1
     d74:	10 f4       	brcc	.+4      	; 0xd7a <spiWrite16+0x14>
     d76:	c0 9a       	sbi	0x18, 0	; 24
     d78:	08 95       	ret
     d7a:	9f b9       	out	0x0f, r25	; 15
     d7c:	77 9b       	sbis	0x0e, 7	; 14
     d7e:	fe cf       	rjmp	.-4      	; 0xd7c <spiWrite16+0x16>
     d80:	00 00       	nop
     d82:	00 00       	nop
     d84:	00 00       	nop
     d86:	8f b9       	out	0x0f, r24	; 15
     d88:	77 9b       	sbis	0x0e, 7	; 14
     d8a:	fe cf       	rjmp	.-4      	; 0xd88 <spiWrite16+0x22>
     d8c:	00 00       	nop
     d8e:	00 00       	nop
     d90:	ef cf       	rjmp	.-34     	; 0xd70 <spiWrite16+0xa>

00000d92 <spi_write>:
     d92:	8f b9       	out	0x0f, r24	; 15
     d94:	77 9b       	sbis	0x0e, 7	; 14
     d96:	fe cf       	rjmp	.-4      	; 0xd94 <spi_write+0x2>
     d98:	08 95       	ret

00000d9a <spi_send16>:
     d9a:	cf 93       	push	r28
     d9c:	c8 2f       	mov	r28, r24
     d9e:	c2 9a       	sbi	0x18, 2	; 24
     da0:	c0 98       	cbi	0x18, 0	; 24
     da2:	89 2f       	mov	r24, r25
     da4:	0e 94 c9 06 	call	0xd92	; 0xd92 <spi_write>
     da8:	8c 2f       	mov	r24, r28
     daa:	cf 91       	pop	r28
     dac:	0c 94 c9 06 	jmp	0xd92	; 0xd92 <spi_write>

00000db0 <ili9341_sendCmd>:
     db0:	c2 98       	cbi	0x18, 2	; 24
     db2:	c0 98       	cbi	0x18, 0	; 24
     db4:	0e 94 c9 06 	call	0xd92	; 0xd92 <spi_write>
     db8:	c0 9a       	sbi	0x18, 0	; 24
     dba:	08 95       	ret

00000dbc <ILI9341_Send_Data>:
     dbc:	c2 9a       	sbi	0x18, 2	; 24
     dbe:	c0 98       	cbi	0x18, 0	; 24
     dc0:	0e 94 c9 06 	call	0xd92	; 0xd92 <spi_write>
     dc4:	c0 9a       	sbi	0x18, 0	; 24
     dc6:	08 95       	ret

00000dc8 <ILI9341_Reset>:
     dc8:	c1 98       	cbi	0x18, 1	; 24
     dca:	2f ef       	ldi	r18, 0xFF	; 255
     dcc:	80 e7       	ldi	r24, 0x70	; 112
     dce:	92 e0       	ldi	r25, 0x02	; 2
     dd0:	21 50       	subi	r18, 0x01	; 1
     dd2:	80 40       	sbci	r24, 0x00	; 0
     dd4:	90 40       	sbci	r25, 0x00	; 0
     dd6:	e1 f7       	brne	.-8      	; 0xdd0 <ILI9341_Reset+0x8>
     dd8:	00 c0       	rjmp	.+0      	; 0xdda <ILI9341_Reset+0x12>
     dda:	00 00       	nop
     ddc:	c1 9a       	sbi	0x18, 1	; 24
     dde:	2f e7       	ldi	r18, 0x7F	; 127
     de0:	8f e4       	ldi	r24, 0x4F	; 79
     de2:	92 e1       	ldi	r25, 0x12	; 18
     de4:	21 50       	subi	r18, 0x01	; 1
     de6:	80 40       	sbci	r24, 0x00	; 0
     de8:	90 40       	sbci	r25, 0x00	; 0
     dea:	e1 f7       	brne	.-8      	; 0xde4 <ILI9341_Reset+0x1c>
     dec:	00 c0       	rjmp	.+0      	; 0xdee <ILI9341_Reset+0x26>
     dee:	00 00       	nop
     df0:	08 95       	ret

00000df2 <ILI9341_Send_Burst>:
     df2:	cf 92       	push	r12
     df4:	df 92       	push	r13
     df6:	ef 92       	push	r14
     df8:	ff 92       	push	r15
     dfa:	cf 93       	push	r28
     dfc:	df 93       	push	r29
     dfe:	ec 01       	movw	r28, r24
     e00:	6a 01       	movw	r12, r20
     e02:	7b 01       	movw	r14, r22
     e04:	81 e0       	ldi	r24, 0x01	; 1
     e06:	c8 1a       	sub	r12, r24
     e08:	d1 08       	sbc	r13, r1
     e0a:	e1 08       	sbc	r14, r1
     e0c:	f1 08       	sbc	r15, r1
     e0e:	8f ef       	ldi	r24, 0xFF	; 255
     e10:	c8 16       	cp	r12, r24
     e12:	d8 06       	cpc	r13, r24
     e14:	e8 06       	cpc	r14, r24
     e16:	f8 06       	cpc	r15, r24
     e18:	41 f4       	brne	.+16     	; 0xe2a <ILI9341_Send_Burst+0x38>
     e1a:	c0 9a       	sbi	0x18, 0	; 24
     e1c:	df 91       	pop	r29
     e1e:	cf 91       	pop	r28
     e20:	ff 90       	pop	r15
     e22:	ef 90       	pop	r14
     e24:	df 90       	pop	r13
     e26:	cf 90       	pop	r12
     e28:	08 95       	ret
     e2a:	ce 01       	movw	r24, r28
     e2c:	0e 94 cd 06 	call	0xd9a	; 0xd9a <spi_send16>
     e30:	e9 cf       	rjmp	.-46     	; 0xe04 <ILI9341_Send_Burst+0x12>

00000e32 <ILI9341_Init>:
     e32:	0e 94 e4 06 	call	0xdc8	; 0xdc8 <ILI9341_Reset>
     e36:	81 e0       	ldi	r24, 0x01	; 1
     e38:	0e 94 d8 06 	call	0xdb0	; 0xdb0 <ili9341_sendCmd>
     e3c:	2f ef       	ldi	r18, 0xFF	; 255
     e3e:	88 e0       	ldi	r24, 0x08	; 8
     e40:	9d e3       	ldi	r25, 0x3D	; 61
     e42:	21 50       	subi	r18, 0x01	; 1
     e44:	80 40       	sbci	r24, 0x00	; 0
     e46:	90 40       	sbci	r25, 0x00	; 0
     e48:	e1 f7       	brne	.-8      	; 0xe42 <ILI9341_Init+0x10>
     e4a:	00 c0       	rjmp	.+0      	; 0xe4c <ILI9341_Init+0x1a>
     e4c:	00 00       	nop
     e4e:	8b ec       	ldi	r24, 0xCB	; 203
     e50:	0e 94 d8 06 	call	0xdb0	; 0xdb0 <ili9341_sendCmd>
     e54:	89 e3       	ldi	r24, 0x39	; 57
     e56:	0e 94 de 06 	call	0xdbc	; 0xdbc <ILI9341_Send_Data>
     e5a:	8c e2       	ldi	r24, 0x2C	; 44
     e5c:	0e 94 de 06 	call	0xdbc	; 0xdbc <ILI9341_Send_Data>
     e60:	80 e0       	ldi	r24, 0x00	; 0
     e62:	0e 94 de 06 	call	0xdbc	; 0xdbc <ILI9341_Send_Data>
     e66:	84 e3       	ldi	r24, 0x34	; 52
     e68:	0e 94 de 06 	call	0xdbc	; 0xdbc <ILI9341_Send_Data>
     e6c:	82 e0       	ldi	r24, 0x02	; 2
     e6e:	0e 94 de 06 	call	0xdbc	; 0xdbc <ILI9341_Send_Data>
     e72:	8f ec       	ldi	r24, 0xCF	; 207
     e74:	0e 94 d8 06 	call	0xdb0	; 0xdb0 <ili9341_sendCmd>
     e78:	80 e0       	ldi	r24, 0x00	; 0
     e7a:	0e 94 de 06 	call	0xdbc	; 0xdbc <ILI9341_Send_Data>
     e7e:	81 ec       	ldi	r24, 0xC1	; 193
     e80:	0e 94 de 06 	call	0xdbc	; 0xdbc <ILI9341_Send_Data>
     e84:	80 e3       	ldi	r24, 0x30	; 48
     e86:	0e 94 de 06 	call	0xdbc	; 0xdbc <ILI9341_Send_Data>
     e8a:	88 ee       	ldi	r24, 0xE8	; 232
     e8c:	0e 94 d8 06 	call	0xdb0	; 0xdb0 <ili9341_sendCmd>
     e90:	85 e8       	ldi	r24, 0x85	; 133
     e92:	0e 94 de 06 	call	0xdbc	; 0xdbc <ILI9341_Send_Data>
     e96:	80 e0       	ldi	r24, 0x00	; 0
     e98:	0e 94 de 06 	call	0xdbc	; 0xdbc <ILI9341_Send_Data>
     e9c:	88 e7       	ldi	r24, 0x78	; 120
     e9e:	0e 94 de 06 	call	0xdbc	; 0xdbc <ILI9341_Send_Data>
     ea2:	8a ee       	ldi	r24, 0xEA	; 234
     ea4:	0e 94 d8 06 	call	0xdb0	; 0xdb0 <ili9341_sendCmd>
     ea8:	80 e0       	ldi	r24, 0x00	; 0
     eaa:	0e 94 de 06 	call	0xdbc	; 0xdbc <ILI9341_Send_Data>
     eae:	80 e0       	ldi	r24, 0x00	; 0
     eb0:	0e 94 de 06 	call	0xdbc	; 0xdbc <ILI9341_Send_Data>
     eb4:	8d ee       	ldi	r24, 0xED	; 237
     eb6:	0e 94 d8 06 	call	0xdb0	; 0xdb0 <ili9341_sendCmd>
     eba:	84 e6       	ldi	r24, 0x64	; 100
     ebc:	0e 94 de 06 	call	0xdbc	; 0xdbc <ILI9341_Send_Data>
     ec0:	83 e0       	ldi	r24, 0x03	; 3
     ec2:	0e 94 de 06 	call	0xdbc	; 0xdbc <ILI9341_Send_Data>
     ec6:	82 e1       	ldi	r24, 0x12	; 18
     ec8:	0e 94 de 06 	call	0xdbc	; 0xdbc <ILI9341_Send_Data>
     ecc:	81 e8       	ldi	r24, 0x81	; 129
     ece:	0e 94 de 06 	call	0xdbc	; 0xdbc <ILI9341_Send_Data>
     ed2:	87 ef       	ldi	r24, 0xF7	; 247
     ed4:	0e 94 d8 06 	call	0xdb0	; 0xdb0 <ili9341_sendCmd>
     ed8:	80 e2       	ldi	r24, 0x20	; 32
     eda:	0e 94 de 06 	call	0xdbc	; 0xdbc <ILI9341_Send_Data>
     ede:	80 ec       	ldi	r24, 0xC0	; 192
     ee0:	0e 94 d8 06 	call	0xdb0	; 0xdb0 <ili9341_sendCmd>
     ee4:	83 e2       	ldi	r24, 0x23	; 35
     ee6:	0e 94 de 06 	call	0xdbc	; 0xdbc <ILI9341_Send_Data>
     eea:	81 ec       	ldi	r24, 0xC1	; 193
     eec:	0e 94 d8 06 	call	0xdb0	; 0xdb0 <ili9341_sendCmd>
     ef0:	80 e1       	ldi	r24, 0x10	; 16
     ef2:	0e 94 de 06 	call	0xdbc	; 0xdbc <ILI9341_Send_Data>
     ef6:	85 ec       	ldi	r24, 0xC5	; 197
     ef8:	0e 94 d8 06 	call	0xdb0	; 0xdb0 <ili9341_sendCmd>
     efc:	8e e3       	ldi	r24, 0x3E	; 62
     efe:	0e 94 de 06 	call	0xdbc	; 0xdbc <ILI9341_Send_Data>
     f02:	88 e2       	ldi	r24, 0x28	; 40
     f04:	0e 94 de 06 	call	0xdbc	; 0xdbc <ILI9341_Send_Data>
     f08:	87 ec       	ldi	r24, 0xC7	; 199
     f0a:	0e 94 d8 06 	call	0xdb0	; 0xdb0 <ili9341_sendCmd>
     f0e:	86 e8       	ldi	r24, 0x86	; 134
     f10:	0e 94 de 06 	call	0xdbc	; 0xdbc <ILI9341_Send_Data>
     f14:	86 e3       	ldi	r24, 0x36	; 54
     f16:	0e 94 d8 06 	call	0xdb0	; 0xdb0 <ili9341_sendCmd>
     f1a:	88 e4       	ldi	r24, 0x48	; 72
     f1c:	0e 94 de 06 	call	0xdbc	; 0xdbc <ILI9341_Send_Data>
     f20:	8a e3       	ldi	r24, 0x3A	; 58
     f22:	0e 94 d8 06 	call	0xdb0	; 0xdb0 <ili9341_sendCmd>
     f26:	85 e5       	ldi	r24, 0x55	; 85
     f28:	0e 94 de 06 	call	0xdbc	; 0xdbc <ILI9341_Send_Data>
     f2c:	81 eb       	ldi	r24, 0xB1	; 177
     f2e:	0e 94 d8 06 	call	0xdb0	; 0xdb0 <ili9341_sendCmd>
     f32:	80 e0       	ldi	r24, 0x00	; 0
     f34:	0e 94 de 06 	call	0xdbc	; 0xdbc <ILI9341_Send_Data>
     f38:	88 e1       	ldi	r24, 0x18	; 24
     f3a:	0e 94 de 06 	call	0xdbc	; 0xdbc <ILI9341_Send_Data>
     f3e:	86 eb       	ldi	r24, 0xB6	; 182
     f40:	0e 94 d8 06 	call	0xdb0	; 0xdb0 <ili9341_sendCmd>
     f44:	88 e0       	ldi	r24, 0x08	; 8
     f46:	0e 94 de 06 	call	0xdbc	; 0xdbc <ILI9341_Send_Data>
     f4a:	82 e8       	ldi	r24, 0x82	; 130
     f4c:	0e 94 de 06 	call	0xdbc	; 0xdbc <ILI9341_Send_Data>
     f50:	87 e2       	ldi	r24, 0x27	; 39
     f52:	0e 94 de 06 	call	0xdbc	; 0xdbc <ILI9341_Send_Data>
     f56:	82 ef       	ldi	r24, 0xF2	; 242
     f58:	0e 94 d8 06 	call	0xdb0	; 0xdb0 <ili9341_sendCmd>
     f5c:	80 e0       	ldi	r24, 0x00	; 0
     f5e:	0e 94 de 06 	call	0xdbc	; 0xdbc <ILI9341_Send_Data>
     f62:	86 e2       	ldi	r24, 0x26	; 38
     f64:	0e 94 d8 06 	call	0xdb0	; 0xdb0 <ili9341_sendCmd>
     f68:	81 e0       	ldi	r24, 0x01	; 1
     f6a:	0e 94 de 06 	call	0xdbc	; 0xdbc <ILI9341_Send_Data>
     f6e:	80 ee       	ldi	r24, 0xE0	; 224
     f70:	0e 94 d8 06 	call	0xdb0	; 0xdb0 <ili9341_sendCmd>
     f74:	8f e0       	ldi	r24, 0x0F	; 15
     f76:	0e 94 de 06 	call	0xdbc	; 0xdbc <ILI9341_Send_Data>
     f7a:	81 e3       	ldi	r24, 0x31	; 49
     f7c:	0e 94 de 06 	call	0xdbc	; 0xdbc <ILI9341_Send_Data>
     f80:	8b e2       	ldi	r24, 0x2B	; 43
     f82:	0e 94 de 06 	call	0xdbc	; 0xdbc <ILI9341_Send_Data>
     f86:	8c e0       	ldi	r24, 0x0C	; 12
     f88:	0e 94 de 06 	call	0xdbc	; 0xdbc <ILI9341_Send_Data>
     f8c:	8e e0       	ldi	r24, 0x0E	; 14
     f8e:	0e 94 de 06 	call	0xdbc	; 0xdbc <ILI9341_Send_Data>
     f92:	88 e0       	ldi	r24, 0x08	; 8
     f94:	0e 94 de 06 	call	0xdbc	; 0xdbc <ILI9341_Send_Data>
     f98:	8e e4       	ldi	r24, 0x4E	; 78
     f9a:	0e 94 de 06 	call	0xdbc	; 0xdbc <ILI9341_Send_Data>
     f9e:	81 ef       	ldi	r24, 0xF1	; 241
     fa0:	0e 94 de 06 	call	0xdbc	; 0xdbc <ILI9341_Send_Data>
     fa4:	87 e3       	ldi	r24, 0x37	; 55
     fa6:	0e 94 de 06 	call	0xdbc	; 0xdbc <ILI9341_Send_Data>
     faa:	87 e0       	ldi	r24, 0x07	; 7
     fac:	0e 94 de 06 	call	0xdbc	; 0xdbc <ILI9341_Send_Data>
     fb0:	80 e1       	ldi	r24, 0x10	; 16
     fb2:	0e 94 de 06 	call	0xdbc	; 0xdbc <ILI9341_Send_Data>
     fb6:	83 e0       	ldi	r24, 0x03	; 3
     fb8:	0e 94 de 06 	call	0xdbc	; 0xdbc <ILI9341_Send_Data>
     fbc:	8e e0       	ldi	r24, 0x0E	; 14
     fbe:	0e 94 de 06 	call	0xdbc	; 0xdbc <ILI9341_Send_Data>
     fc2:	89 e0       	ldi	r24, 0x09	; 9
     fc4:	0e 94 de 06 	call	0xdbc	; 0xdbc <ILI9341_Send_Data>
     fc8:	80 e0       	ldi	r24, 0x00	; 0
     fca:	0e 94 de 06 	call	0xdbc	; 0xdbc <ILI9341_Send_Data>
     fce:	81 ee       	ldi	r24, 0xE1	; 225
     fd0:	0e 94 d8 06 	call	0xdb0	; 0xdb0 <ili9341_sendCmd>
     fd4:	80 e0       	ldi	r24, 0x00	; 0
     fd6:	0e 94 de 06 	call	0xdbc	; 0xdbc <ILI9341_Send_Data>
     fda:	8e e0       	ldi	r24, 0x0E	; 14
     fdc:	0e 94 de 06 	call	0xdbc	; 0xdbc <ILI9341_Send_Data>
     fe0:	84 e1       	ldi	r24, 0x14	; 20
     fe2:	0e 94 de 06 	call	0xdbc	; 0xdbc <ILI9341_Send_Data>
     fe6:	83 e0       	ldi	r24, 0x03	; 3
     fe8:	0e 94 de 06 	call	0xdbc	; 0xdbc <ILI9341_Send_Data>
     fec:	81 e1       	ldi	r24, 0x11	; 17
     fee:	0e 94 de 06 	call	0xdbc	; 0xdbc <ILI9341_Send_Data>
     ff2:	87 e0       	ldi	r24, 0x07	; 7
     ff4:	0e 94 de 06 	call	0xdbc	; 0xdbc <ILI9341_Send_Data>
     ff8:	81 e3       	ldi	r24, 0x31	; 49
     ffa:	0e 94 de 06 	call	0xdbc	; 0xdbc <ILI9341_Send_Data>
     ffe:	81 ec       	ldi	r24, 0xC1	; 193
    1000:	0e 94 de 06 	call	0xdbc	; 0xdbc <ILI9341_Send_Data>
    1004:	88 e4       	ldi	r24, 0x48	; 72
    1006:	0e 94 de 06 	call	0xdbc	; 0xdbc <ILI9341_Send_Data>
    100a:	88 e0       	ldi	r24, 0x08	; 8
    100c:	0e 94 de 06 	call	0xdbc	; 0xdbc <ILI9341_Send_Data>
    1010:	8f e0       	ldi	r24, 0x0F	; 15
    1012:	0e 94 de 06 	call	0xdbc	; 0xdbc <ILI9341_Send_Data>
    1016:	8c e0       	ldi	r24, 0x0C	; 12
    1018:	0e 94 de 06 	call	0xdbc	; 0xdbc <ILI9341_Send_Data>
    101c:	81 e3       	ldi	r24, 0x31	; 49
    101e:	0e 94 de 06 	call	0xdbc	; 0xdbc <ILI9341_Send_Data>
    1022:	86 e3       	ldi	r24, 0x36	; 54
    1024:	0e 94 de 06 	call	0xdbc	; 0xdbc <ILI9341_Send_Data>
    1028:	8f e0       	ldi	r24, 0x0F	; 15
    102a:	0e 94 de 06 	call	0xdbc	; 0xdbc <ILI9341_Send_Data>
    102e:	81 e1       	ldi	r24, 0x11	; 17
    1030:	0e 94 d8 06 	call	0xdb0	; 0xdb0 <ili9341_sendCmd>
    1034:	2f ef       	ldi	r18, 0xFF	; 255
    1036:	85 ea       	ldi	r24, 0xA5	; 165
    1038:	9e e0       	ldi	r25, 0x0E	; 14
    103a:	21 50       	subi	r18, 0x01	; 1
    103c:	80 40       	sbci	r24, 0x00	; 0
    103e:	90 40       	sbci	r25, 0x00	; 0
    1040:	e1 f7       	brne	.-8      	; 0x103a <__DATA_REGION_LENGTH__+0x3a>
    1042:	00 c0       	rjmp	.+0      	; 0x1044 <__DATA_REGION_LENGTH__+0x44>
    1044:	00 00       	nop
    1046:	89 e2       	ldi	r24, 0x29	; 41
    1048:	0c 94 d8 06 	jmp	0xdb0	; 0xdb0 <ili9341_sendCmd>

0000104c <ILI9341_Set_Rotation>:
    104c:	cf 93       	push	r28
    104e:	c8 2f       	mov	r28, r24
    1050:	86 e3       	ldi	r24, 0x36	; 54
    1052:	0e 94 d8 06 	call	0xdb0	; 0xdb0 <ili9341_sendCmd>
    1056:	c1 30       	cpi	r28, 0x01	; 1
    1058:	b9 f0       	breq	.+46     	; 0x1088 <ILI9341_Set_Rotation+0x3c>
    105a:	30 f0       	brcs	.+12     	; 0x1068 <ILI9341_Set_Rotation+0x1c>
    105c:	c2 30       	cpi	r28, 0x02	; 2
    105e:	01 f1       	breq	.+64     	; 0x10a0 <ILI9341_Set_Rotation+0x54>
    1060:	c3 30       	cpi	r28, 0x03	; 3
    1062:	01 f1       	breq	.+64     	; 0x10a4 <ILI9341_Set_Rotation+0x58>
    1064:	cf 91       	pop	r28
    1066:	08 95       	ret
    1068:	88 e4       	ldi	r24, 0x48	; 72
    106a:	0e 94 de 06 	call	0xdbc	; 0xdbc <ILI9341_Send_Data>
    106e:	80 ef       	ldi	r24, 0xF0	; 240
    1070:	90 e0       	ldi	r25, 0x00	; 0
    1072:	90 93 04 01 	sts	0x0104, r25	; 0x800104 <X_SIZE+0x1>
    1076:	80 93 03 01 	sts	0x0103, r24	; 0x800103 <X_SIZE>
    107a:	80 e4       	ldi	r24, 0x40	; 64
    107c:	91 e0       	ldi	r25, 0x01	; 1
    107e:	90 93 02 01 	sts	0x0102, r25	; 0x800102 <Y_SIZE+0x1>
    1082:	80 93 01 01 	sts	0x0101, r24	; 0x800101 <Y_SIZE>
    1086:	ee cf       	rjmp	.-36     	; 0x1064 <ILI9341_Set_Rotation+0x18>
    1088:	88 e2       	ldi	r24, 0x28	; 40
    108a:	0e 94 de 06 	call	0xdbc	; 0xdbc <ILI9341_Send_Data>
    108e:	80 e4       	ldi	r24, 0x40	; 64
    1090:	91 e0       	ldi	r25, 0x01	; 1
    1092:	90 93 04 01 	sts	0x0104, r25	; 0x800104 <X_SIZE+0x1>
    1096:	80 93 03 01 	sts	0x0103, r24	; 0x800103 <X_SIZE>
    109a:	80 ef       	ldi	r24, 0xF0	; 240
    109c:	90 e0       	ldi	r25, 0x00	; 0
    109e:	ef cf       	rjmp	.-34     	; 0x107e <ILI9341_Set_Rotation+0x32>
    10a0:	88 e8       	ldi	r24, 0x88	; 136
    10a2:	e3 cf       	rjmp	.-58     	; 0x106a <ILI9341_Set_Rotation+0x1e>
    10a4:	88 ee       	ldi	r24, 0xE8	; 232
    10a6:	f1 cf       	rjmp	.-30     	; 0x108a <ILI9341_Set_Rotation+0x3e>

000010a8 <ILI9341_Set_Address>:
    10a8:	cf 92       	push	r12
    10aa:	df 92       	push	r13
    10ac:	ef 92       	push	r14
    10ae:	ff 92       	push	r15
    10b0:	0f 93       	push	r16
    10b2:	1f 93       	push	r17
    10b4:	cf 93       	push	r28
    10b6:	df 93       	push	r29
    10b8:	d8 2e       	mov	r13, r24
    10ba:	c9 2e       	mov	r12, r25
    10bc:	16 2f       	mov	r17, r22
    10be:	07 2f       	mov	r16, r23
    10c0:	f4 2e       	mov	r15, r20
    10c2:	e5 2e       	mov	r14, r21
    10c4:	e9 01       	movw	r28, r18
    10c6:	8a e2       	ldi	r24, 0x2A	; 42
    10c8:	0e 94 d8 06 	call	0xdb0	; 0xdb0 <ili9341_sendCmd>
    10cc:	8c 2d       	mov	r24, r12
    10ce:	0e 94 de 06 	call	0xdbc	; 0xdbc <ILI9341_Send_Data>
    10d2:	8d 2d       	mov	r24, r13
    10d4:	0e 94 de 06 	call	0xdbc	; 0xdbc <ILI9341_Send_Data>
    10d8:	8e 2d       	mov	r24, r14
    10da:	0e 94 de 06 	call	0xdbc	; 0xdbc <ILI9341_Send_Data>
    10de:	8f 2d       	mov	r24, r15
    10e0:	0e 94 de 06 	call	0xdbc	; 0xdbc <ILI9341_Send_Data>
    10e4:	8b e2       	ldi	r24, 0x2B	; 43
    10e6:	0e 94 d8 06 	call	0xdb0	; 0xdb0 <ili9341_sendCmd>
    10ea:	80 2f       	mov	r24, r16
    10ec:	0e 94 de 06 	call	0xdbc	; 0xdbc <ILI9341_Send_Data>
    10f0:	81 2f       	mov	r24, r17
    10f2:	0e 94 de 06 	call	0xdbc	; 0xdbc <ILI9341_Send_Data>
    10f6:	8d 2f       	mov	r24, r29
    10f8:	0e 94 de 06 	call	0xdbc	; 0xdbc <ILI9341_Send_Data>
    10fc:	8c 2f       	mov	r24, r28
    10fe:	0e 94 de 06 	call	0xdbc	; 0xdbc <ILI9341_Send_Data>
    1102:	8c e2       	ldi	r24, 0x2C	; 44
    1104:	df 91       	pop	r29
    1106:	cf 91       	pop	r28
    1108:	1f 91       	pop	r17
    110a:	0f 91       	pop	r16
    110c:	ff 90       	pop	r15
    110e:	ef 90       	pop	r14
    1110:	df 90       	pop	r13
    1112:	cf 90       	pop	r12
    1114:	0c 94 d8 06 	jmp	0xdb0	; 0xdb0 <ili9341_sendCmd>

00001118 <ILI9341_Draw_Filled_Rectangle>:
    1118:	af 92       	push	r10
    111a:	bf 92       	push	r11
    111c:	cf 92       	push	r12
    111e:	df 92       	push	r13
    1120:	ef 92       	push	r14
    1122:	ff 92       	push	r15
    1124:	0f 93       	push	r16
    1126:	1f 93       	push	r17
    1128:	cf 93       	push	r28
    112a:	df 93       	push	r29
    112c:	7c 01       	movw	r14, r24
    112e:	5b 01       	movw	r10, r22
    1130:	6a 01       	movw	r12, r20
    1132:	e9 01       	movw	r28, r18
    1134:	98 01       	movw	r18, r16
    1136:	ae 01       	movw	r20, r28
    1138:	b6 01       	movw	r22, r12
    113a:	c5 01       	movw	r24, r10
    113c:	0e 94 54 08 	call	0x10a8	; 0x10a8 <ILI9341_Set_Address>
    1140:	21 96       	adiw	r28, 0x01	; 1
    1142:	ca 19       	sub	r28, r10
    1144:	db 09       	sbc	r29, r11
    1146:	0f 5f       	subi	r16, 0xFF	; 255
    1148:	1f 4f       	sbci	r17, 0xFF	; 255
    114a:	0c 19       	sub	r16, r12
    114c:	1d 09       	sbc	r17, r13
    114e:	c0 9f       	mul	r28, r16
    1150:	a0 01       	movw	r20, r0
    1152:	c1 9f       	mul	r28, r17
    1154:	50 0d       	add	r21, r0
    1156:	d0 9f       	mul	r29, r16
    1158:	50 0d       	add	r21, r0
    115a:	11 24       	eor	r1, r1
    115c:	70 e0       	ldi	r23, 0x00	; 0
    115e:	60 e0       	ldi	r22, 0x00	; 0
    1160:	c7 01       	movw	r24, r14
    1162:	df 91       	pop	r29
    1164:	cf 91       	pop	r28
    1166:	1f 91       	pop	r17
    1168:	0f 91       	pop	r16
    116a:	ff 90       	pop	r15
    116c:	ef 90       	pop	r14
    116e:	df 90       	pop	r13
    1170:	cf 90       	pop	r12
    1172:	bf 90       	pop	r11
    1174:	af 90       	pop	r10
    1176:	0c 94 f9 06 	jmp	0xdf2	; 0xdf2 <ILI9341_Send_Burst>

0000117a <ILI9341_Fill_Screen>:
    117a:	ef 92       	push	r14
    117c:	ff 92       	push	r15
    117e:	0f 93       	push	r16
    1180:	1f 93       	push	r17
    1182:	cf 93       	push	r28
    1184:	df 93       	push	r29
    1186:	f8 2e       	mov	r15, r24
    1188:	e9 2e       	mov	r14, r25
    118a:	20 91 01 01 	lds	r18, 0x0101	; 0x800101 <Y_SIZE>
    118e:	30 91 02 01 	lds	r19, 0x0102	; 0x800102 <Y_SIZE+0x1>
    1192:	21 50       	subi	r18, 0x01	; 1
    1194:	31 09       	sbc	r19, r1
    1196:	40 91 03 01 	lds	r20, 0x0103	; 0x800103 <X_SIZE>
    119a:	50 91 04 01 	lds	r21, 0x0104	; 0x800104 <X_SIZE+0x1>
    119e:	41 50       	subi	r20, 0x01	; 1
    11a0:	51 09       	sbc	r21, r1
    11a2:	70 e0       	ldi	r23, 0x00	; 0
    11a4:	60 e0       	ldi	r22, 0x00	; 0
    11a6:	90 e0       	ldi	r25, 0x00	; 0
    11a8:	80 e0       	ldi	r24, 0x00	; 0
    11aa:	0e 94 54 08 	call	0x10a8	; 0x10a8 <ILI9341_Set_Address>
    11ae:	c2 9a       	sbi	0x18, 2	; 24
    11b0:	c0 98       	cbi	0x18, 0	; 24
    11b2:	d0 e0       	ldi	r29, 0x00	; 0
    11b4:	c0 e0       	ldi	r28, 0x00	; 0
    11b6:	80 91 01 01 	lds	r24, 0x0101	; 0x800101 <Y_SIZE>
    11ba:	90 91 02 01 	lds	r25, 0x0102	; 0x800102 <Y_SIZE+0x1>
    11be:	c8 17       	cp	r28, r24
    11c0:	d9 07       	cpc	r29, r25
    11c2:	c8 f0       	brcs	.+50     	; 0x11f6 <ILI9341_Fill_Screen+0x7c>
    11c4:	c0 9a       	sbi	0x18, 0	; 24
    11c6:	df 91       	pop	r29
    11c8:	cf 91       	pop	r28
    11ca:	1f 91       	pop	r17
    11cc:	0f 91       	pop	r16
    11ce:	ff 90       	pop	r15
    11d0:	ef 90       	pop	r14
    11d2:	08 95       	ret
    11d4:	8e 2d       	mov	r24, r14
    11d6:	0e 94 de 06 	call	0xdbc	; 0xdbc <ILI9341_Send_Data>
    11da:	8f 2d       	mov	r24, r15
    11dc:	0e 94 de 06 	call	0xdbc	; 0xdbc <ILI9341_Send_Data>
    11e0:	0f 5f       	subi	r16, 0xFF	; 255
    11e2:	1f 4f       	sbci	r17, 0xFF	; 255
    11e4:	80 91 03 01 	lds	r24, 0x0103	; 0x800103 <X_SIZE>
    11e8:	90 91 04 01 	lds	r25, 0x0104	; 0x800104 <X_SIZE+0x1>
    11ec:	08 17       	cp	r16, r24
    11ee:	19 07       	cpc	r17, r25
    11f0:	88 f3       	brcs	.-30     	; 0x11d4 <ILI9341_Fill_Screen+0x5a>
    11f2:	21 96       	adiw	r28, 0x01	; 1
    11f4:	e0 cf       	rjmp	.-64     	; 0x11b6 <ILI9341_Fill_Screen+0x3c>
    11f6:	10 e0       	ldi	r17, 0x00	; 0
    11f8:	00 e0       	ldi	r16, 0x00	; 0
    11fa:	f4 cf       	rjmp	.-24     	; 0x11e4 <ILI9341_Fill_Screen+0x6a>

000011fc <ILI9341_Draw_Pixel>:
    11fc:	cf 93       	push	r28
    11fe:	df 93       	push	r29
    1200:	97 fd       	sbrc	r25, 7
    1202:	25 c0       	rjmp	.+74     	; 0x124e <ILI9341_Draw_Pixel+0x52>
    1204:	77 fd       	sbrc	r23, 7
    1206:	23 c0       	rjmp	.+70     	; 0x124e <ILI9341_Draw_Pixel+0x52>
    1208:	e0 91 03 01 	lds	r30, 0x0103	; 0x800103 <X_SIZE>
    120c:	f0 91 04 01 	lds	r31, 0x0104	; 0x800104 <X_SIZE+0x1>
    1210:	8e 17       	cp	r24, r30
    1212:	9f 07       	cpc	r25, r31
    1214:	e0 f4       	brcc	.+56     	; 0x124e <ILI9341_Draw_Pixel+0x52>
    1216:	20 91 01 01 	lds	r18, 0x0101	; 0x800101 <Y_SIZE>
    121a:	30 91 02 01 	lds	r19, 0x0102	; 0x800102 <Y_SIZE+0x1>
    121e:	62 17       	cp	r22, r18
    1220:	73 07       	cpc	r23, r19
    1222:	a8 f4       	brcc	.+42     	; 0x124e <ILI9341_Draw_Pixel+0x52>
    1224:	ea 01       	movw	r28, r20
    1226:	21 50       	subi	r18, 0x01	; 1
    1228:	31 09       	sbc	r19, r1
    122a:	af 01       	movw	r20, r30
    122c:	41 50       	subi	r20, 0x01	; 1
    122e:	51 09       	sbc	r21, r1
    1230:	0e 94 54 08 	call	0x10a8	; 0x10a8 <ILI9341_Set_Address>
    1234:	c2 98       	cbi	0x18, 2	; 24
    1236:	8c e2       	ldi	r24, 0x2C	; 44
    1238:	0e 94 de 06 	call	0xdbc	; 0xdbc <ILI9341_Send_Data>
    123c:	c2 9a       	sbi	0x18, 2	; 24
    123e:	8d 2f       	mov	r24, r29
    1240:	0e 94 de 06 	call	0xdbc	; 0xdbc <ILI9341_Send_Data>
    1244:	8c 2f       	mov	r24, r28
    1246:	df 91       	pop	r29
    1248:	cf 91       	pop	r28
    124a:	0c 94 de 06 	jmp	0xdbc	; 0xdbc <ILI9341_Send_Data>
    124e:	df 91       	pop	r29
    1250:	cf 91       	pop	r28
    1252:	08 95       	ret

00001254 <ILI9341_Draw_Circle>:
    1254:	2f 92       	push	r2
    1256:	3f 92       	push	r3
    1258:	4f 92       	push	r4
    125a:	5f 92       	push	r5
    125c:	6f 92       	push	r6
    125e:	7f 92       	push	r7
    1260:	8f 92       	push	r8
    1262:	9f 92       	push	r9
    1264:	af 92       	push	r10
    1266:	bf 92       	push	r11
    1268:	cf 92       	push	r12
    126a:	df 92       	push	r13
    126c:	ef 92       	push	r14
    126e:	ff 92       	push	r15
    1270:	0f 93       	push	r16
    1272:	1f 93       	push	r17
    1274:	cf 93       	push	r28
    1276:	df 93       	push	r29
    1278:	cd b7       	in	r28, 0x3d	; 61
    127a:	de b7       	in	r29, 0x3e	; 62
    127c:	2e 97       	sbiw	r28, 0x0e	; 14
    127e:	0f b6       	in	r0, 0x3f	; 63
    1280:	f8 94       	cli
    1282:	de bf       	out	0x3e, r29	; 62
    1284:	0f be       	out	0x3f, r0	; 63
    1286:	cd bf       	out	0x3d, r28	; 61
    1288:	2c 01       	movw	r4, r24
    128a:	1b 01       	movw	r2, r22
    128c:	3a 01       	movw	r6, r20
    128e:	2d 87       	std	Y+13, r18	; 0x0d
    1290:	3e 87       	std	Y+14, r19	; 0x0e
    1292:	81 e0       	ldi	r24, 0x01	; 1
    1294:	90 e0       	ldi	r25, 0x00	; 0
    1296:	9c 01       	movw	r18, r24
    1298:	24 1b       	sub	r18, r20
    129a:	35 0b       	sbc	r19, r21
    129c:	3e 83       	std	Y+6, r19	; 0x06
    129e:	2d 83       	std	Y+5, r18	; 0x05
    12a0:	88 27       	eor	r24, r24
    12a2:	99 27       	eor	r25, r25
    12a4:	84 1b       	sub	r24, r20
    12a6:	95 0b       	sbc	r25, r21
    12a8:	dc 01       	movw	r26, r24
    12aa:	aa 0f       	add	r26, r26
    12ac:	bb 1f       	adc	r27, r27
    12ae:	b8 87       	std	Y+8, r27	; 0x08
    12b0:	af 83       	std	Y+7, r26	; 0x07
    12b2:	64 0f       	add	r22, r20
    12b4:	75 1f       	adc	r23, r21
    12b6:	51 01       	movw	r10, r2
    12b8:	a4 1a       	sub	r10, r20
    12ba:	b5 0a       	sbc	r11, r21
    12bc:	62 01       	movw	r12, r4
    12be:	c4 0e       	add	r12, r20
    12c0:	d5 1e       	adc	r13, r21
    12c2:	72 01       	movw	r14, r4
    12c4:	e4 1a       	sub	r14, r20
    12c6:	f5 0a       	sbc	r15, r21
    12c8:	4d 85       	ldd	r20, Y+13	; 0x0d
    12ca:	5e 85       	ldd	r21, Y+14	; 0x0e
    12cc:	c2 01       	movw	r24, r4
    12ce:	01 11       	cpse	r16, r1
    12d0:	9b c0       	rjmp	.+310    	; 0x1408 <ILI9341_Draw_Circle+0x1b4>
    12d2:	0e 94 fe 08 	call	0x11fc	; 0x11fc <ILI9341_Draw_Pixel>
    12d6:	4d 85       	ldd	r20, Y+13	; 0x0d
    12d8:	5e 85       	ldd	r21, Y+14	; 0x0e
    12da:	b5 01       	movw	r22, r10
    12dc:	c2 01       	movw	r24, r4
    12de:	0e 94 fe 08 	call	0x11fc	; 0x11fc <ILI9341_Draw_Pixel>
    12e2:	4d 85       	ldd	r20, Y+13	; 0x0d
    12e4:	5e 85       	ldd	r21, Y+14	; 0x0e
    12e6:	b1 01       	movw	r22, r2
    12e8:	c6 01       	movw	r24, r12
    12ea:	0e 94 fe 08 	call	0x11fc	; 0x11fc <ILI9341_Draw_Pixel>
    12ee:	4d 85       	ldd	r20, Y+13	; 0x0d
    12f0:	5e 85       	ldd	r21, Y+14	; 0x0e
    12f2:	b1 01       	movw	r22, r2
    12f4:	c7 01       	movw	r24, r14
    12f6:	0e 94 fe 08 	call	0x11fc	; 0x11fc <ILI9341_Draw_Pixel>
    12fa:	10 e0       	ldi	r17, 0x00	; 0
    12fc:	00 e0       	ldi	r16, 0x00	; 0
    12fe:	aa 24       	eor	r10, r10
    1300:	a3 94       	inc	r10
    1302:	b1 2c       	mov	r11, r1
    1304:	06 15       	cp	r16, r6
    1306:	17 05       	cpc	r17, r7
    1308:	cc f0       	brlt	.+50     	; 0x133c <ILI9341_Draw_Circle+0xe8>
    130a:	2e 96       	adiw	r28, 0x0e	; 14
    130c:	0f b6       	in	r0, 0x3f	; 63
    130e:	f8 94       	cli
    1310:	de bf       	out	0x3e, r29	; 62
    1312:	0f be       	out	0x3f, r0	; 63
    1314:	cd bf       	out	0x3d, r28	; 61
    1316:	df 91       	pop	r29
    1318:	cf 91       	pop	r28
    131a:	1f 91       	pop	r17
    131c:	0f 91       	pop	r16
    131e:	ff 90       	pop	r15
    1320:	ef 90       	pop	r14
    1322:	df 90       	pop	r13
    1324:	cf 90       	pop	r12
    1326:	bf 90       	pop	r11
    1328:	af 90       	pop	r10
    132a:	9f 90       	pop	r9
    132c:	8f 90       	pop	r8
    132e:	7f 90       	pop	r7
    1330:	6f 90       	pop	r6
    1332:	5f 90       	pop	r5
    1334:	4f 90       	pop	r4
    1336:	3f 90       	pop	r3
    1338:	2f 90       	pop	r2
    133a:	08 95       	ret
    133c:	2d 81       	ldd	r18, Y+5	; 0x05
    133e:	3e 81       	ldd	r19, Y+6	; 0x06
    1340:	37 fd       	sbrc	r19, 7
    1342:	0e c0       	rjmp	.+28     	; 0x1360 <ILI9341_Draw_Circle+0x10c>
    1344:	31 e0       	ldi	r19, 0x01	; 1
    1346:	63 1a       	sub	r6, r19
    1348:	71 08       	sbc	r7, r1
    134a:	8f 81       	ldd	r24, Y+7	; 0x07
    134c:	98 85       	ldd	r25, Y+8	; 0x08
    134e:	02 96       	adiw	r24, 0x02	; 2
    1350:	98 87       	std	Y+8, r25	; 0x08
    1352:	8f 83       	std	Y+7, r24	; 0x07
    1354:	ad 81       	ldd	r26, Y+5	; 0x05
    1356:	be 81       	ldd	r27, Y+6	; 0x06
    1358:	a8 0f       	add	r26, r24
    135a:	b9 1f       	adc	r27, r25
    135c:	be 83       	std	Y+6, r27	; 0x06
    135e:	ad 83       	std	Y+5, r26	; 0x05
    1360:	0f 5f       	subi	r16, 0xFF	; 255
    1362:	1f 4f       	sbci	r17, 0xFF	; 255
    1364:	b2 e0       	ldi	r27, 0x02	; 2
    1366:	ab 0e       	add	r10, r27
    1368:	b1 1c       	adc	r11, r1
    136a:	2d 81       	ldd	r18, Y+5	; 0x05
    136c:	3e 81       	ldd	r19, Y+6	; 0x06
    136e:	2a 0d       	add	r18, r10
    1370:	3b 1d       	adc	r19, r11
    1372:	3e 83       	std	Y+6, r19	; 0x06
    1374:	2d 83       	std	Y+5, r18	; 0x05
    1376:	48 01       	movw	r8, r16
    1378:	84 0c       	add	r8, r4
    137a:	95 1c       	adc	r9, r5
    137c:	4d 85       	ldd	r20, Y+13	; 0x0d
    137e:	5e 85       	ldd	r21, Y+14	; 0x0e
    1380:	73 01       	movw	r14, r6
    1382:	e2 0c       	add	r14, r2
    1384:	f3 1c       	adc	r15, r3
    1386:	b7 01       	movw	r22, r14
    1388:	c4 01       	movw	r24, r8
    138a:	0e 94 fe 08 	call	0x11fc	; 0x11fc <ILI9341_Draw_Pixel>
    138e:	62 01       	movw	r12, r4
    1390:	c0 1a       	sub	r12, r16
    1392:	d1 0a       	sbc	r13, r17
    1394:	4d 85       	ldd	r20, Y+13	; 0x0d
    1396:	5e 85       	ldd	r21, Y+14	; 0x0e
    1398:	b7 01       	movw	r22, r14
    139a:	c6 01       	movw	r24, r12
    139c:	0e 94 fe 08 	call	0x11fc	; 0x11fc <ILI9341_Draw_Pixel>
    13a0:	4d 85       	ldd	r20, Y+13	; 0x0d
    13a2:	5e 85       	ldd	r21, Y+14	; 0x0e
    13a4:	71 01       	movw	r14, r2
    13a6:	e6 18       	sub	r14, r6
    13a8:	f7 08       	sbc	r15, r7
    13aa:	b7 01       	movw	r22, r14
    13ac:	c4 01       	movw	r24, r8
    13ae:	0e 94 fe 08 	call	0x11fc	; 0x11fc <ILI9341_Draw_Pixel>
    13b2:	4d 85       	ldd	r20, Y+13	; 0x0d
    13b4:	5e 85       	ldd	r21, Y+14	; 0x0e
    13b6:	b7 01       	movw	r22, r14
    13b8:	c6 01       	movw	r24, r12
    13ba:	0e 94 fe 08 	call	0x11fc	; 0x11fc <ILI9341_Draw_Pixel>
    13be:	78 01       	movw	r14, r16
    13c0:	e2 0c       	add	r14, r2
    13c2:	f3 1c       	adc	r15, r3
    13c4:	4d 85       	ldd	r20, Y+13	; 0x0d
    13c6:	5e 85       	ldd	r21, Y+14	; 0x0e
    13c8:	b7 01       	movw	r22, r14
    13ca:	63 01       	movw	r12, r6
    13cc:	c4 0c       	add	r12, r4
    13ce:	d5 1c       	adc	r13, r5
    13d0:	c6 01       	movw	r24, r12
    13d2:	0e 94 fe 08 	call	0x11fc	; 0x11fc <ILI9341_Draw_Pixel>
    13d6:	4d 85       	ldd	r20, Y+13	; 0x0d
    13d8:	5e 85       	ldd	r21, Y+14	; 0x0e
    13da:	b7 01       	movw	r22, r14
    13dc:	72 01       	movw	r14, r4
    13de:	e6 18       	sub	r14, r6
    13e0:	f7 08       	sbc	r15, r7
    13e2:	c7 01       	movw	r24, r14
    13e4:	0e 94 fe 08 	call	0x11fc	; 0x11fc <ILI9341_Draw_Pixel>
    13e8:	41 01       	movw	r8, r2
    13ea:	80 1a       	sub	r8, r16
    13ec:	91 0a       	sbc	r9, r17
    13ee:	4d 85       	ldd	r20, Y+13	; 0x0d
    13f0:	5e 85       	ldd	r21, Y+14	; 0x0e
    13f2:	b4 01       	movw	r22, r8
    13f4:	c6 01       	movw	r24, r12
    13f6:	0e 94 fe 08 	call	0x11fc	; 0x11fc <ILI9341_Draw_Pixel>
    13fa:	4d 85       	ldd	r20, Y+13	; 0x0d
    13fc:	5e 85       	ldd	r21, Y+14	; 0x0e
    13fe:	b4 01       	movw	r22, r8
    1400:	c7 01       	movw	r24, r14
    1402:	0e 94 fe 08 	call	0x11fc	; 0x11fc <ILI9341_Draw_Pixel>
    1406:	7e cf       	rjmp	.-260    	; 0x1304 <ILI9341_Draw_Circle+0xb0>
    1408:	0e 94 fe 08 	call	0x11fc	; 0x11fc <ILI9341_Draw_Pixel>
    140c:	4d 85       	ldd	r20, Y+13	; 0x0d
    140e:	5e 85       	ldd	r21, Y+14	; 0x0e
    1410:	b5 01       	movw	r22, r10
    1412:	c2 01       	movw	r24, r4
    1414:	0e 94 fe 08 	call	0x11fc	; 0x11fc <ILI9341_Draw_Pixel>
    1418:	91 01       	movw	r18, r2
    141a:	a6 01       	movw	r20, r12
    141c:	b1 01       	movw	r22, r2
    141e:	c7 01       	movw	r24, r14
    1420:	0e 94 54 08 	call	0x10a8	; 0x10a8 <ILI9341_Set_Address>
    1424:	c2 98       	cbi	0x18, 2	; 24
    1426:	8c e2       	ldi	r24, 0x2C	; 44
    1428:	0e 94 c9 06 	call	0xd92	; 0xd92 <spi_write>
    142c:	c2 9a       	sbi	0x18, 2	; 24
    142e:	63 01       	movw	r12, r6
    1430:	cc 0c       	add	r12, r12
    1432:	dd 1c       	adc	r13, r13
    1434:	3f ef       	ldi	r19, 0xFF	; 255
    1436:	c3 1a       	sub	r12, r19
    1438:	d3 0a       	sbc	r13, r19
    143a:	0d 2c       	mov	r0, r13
    143c:	00 0c       	add	r0, r0
    143e:	ee 08       	sbc	r14, r14
    1440:	ff 08       	sbc	r15, r15
    1442:	81 2c       	mov	r8, r1
    1444:	91 2c       	mov	r9, r1
    1446:	54 01       	movw	r10, r8
    1448:	8c 14       	cp	r8, r12
    144a:	9d 04       	cpc	r9, r13
    144c:	ae 04       	cpc	r10, r14
    144e:	bf 04       	cpc	r11, r15
    1450:	08 f4       	brcc	.+2      	; 0x1454 <ILI9341_Draw_Circle+0x200>
    1452:	c6 c0       	rjmp	.+396    	; 0x15e0 <ILI9341_Draw_Circle+0x38c>
    1454:	83 e0       	ldi	r24, 0x03	; 3
    1456:	90 e0       	ldi	r25, 0x00	; 0
    1458:	a0 e0       	ldi	r26, 0x00	; 0
    145a:	b0 e0       	ldi	r27, 0x00	; 0
    145c:	89 83       	std	Y+1, r24	; 0x01
    145e:	9a 83       	std	Y+2, r25	; 0x02
    1460:	ab 83       	std	Y+3, r26	; 0x03
    1462:	bc 83       	std	Y+4, r27	; 0x04
    1464:	10 e0       	ldi	r17, 0x00	; 0
    1466:	00 e0       	ldi	r16, 0x00	; 0
    1468:	06 15       	cp	r16, r6
    146a:	17 05       	cpc	r17, r7
    146c:	0c f0       	brlt	.+2      	; 0x1470 <ILI9341_Draw_Circle+0x21c>
    146e:	4d cf       	rjmp	.-358    	; 0x130a <ILI9341_Draw_Circle+0xb6>
    1470:	ad 81       	ldd	r26, Y+5	; 0x05
    1472:	be 81       	ldd	r27, Y+6	; 0x06
    1474:	b7 fd       	sbrc	r27, 7
    1476:	0f c0       	rjmp	.+30     	; 0x1496 <ILI9341_Draw_Circle+0x242>
    1478:	b1 e0       	ldi	r27, 0x01	; 1
    147a:	6b 1a       	sub	r6, r27
    147c:	71 08       	sbc	r7, r1
    147e:	2f 81       	ldd	r18, Y+7	; 0x07
    1480:	38 85       	ldd	r19, Y+8	; 0x08
    1482:	2e 5f       	subi	r18, 0xFE	; 254
    1484:	3f 4f       	sbci	r19, 0xFF	; 255
    1486:	38 87       	std	Y+8, r19	; 0x08
    1488:	2f 83       	std	Y+7, r18	; 0x07
    148a:	8d 81       	ldd	r24, Y+5	; 0x05
    148c:	9e 81       	ldd	r25, Y+6	; 0x06
    148e:	82 0f       	add	r24, r18
    1490:	93 1f       	adc	r25, r19
    1492:	9e 83       	std	Y+6, r25	; 0x06
    1494:	8d 83       	std	Y+5, r24	; 0x05
    1496:	0f 5f       	subi	r16, 0xFF	; 255
    1498:	1f 4f       	sbci	r17, 0xFF	; 255
    149a:	ad 81       	ldd	r26, Y+5	; 0x05
    149c:	be 81       	ldd	r27, Y+6	; 0x06
    149e:	29 81       	ldd	r18, Y+1	; 0x01
    14a0:	3a 81       	ldd	r19, Y+2	; 0x02
    14a2:	a2 0f       	add	r26, r18
    14a4:	b3 1f       	adc	r27, r19
    14a6:	be 83       	std	Y+6, r27	; 0x06
    14a8:	ad 83       	std	Y+5, r26	; 0x05
    14aa:	78 01       	movw	r14, r16
    14ac:	e4 0c       	add	r14, r4
    14ae:	f5 1c       	adc	r15, r5
    14b0:	62 01       	movw	r12, r4
    14b2:	c0 1a       	sub	r12, r16
    14b4:	d1 0a       	sbc	r13, r17
    14b6:	b3 01       	movw	r22, r6
    14b8:	62 0d       	add	r22, r2
    14ba:	73 1d       	adc	r23, r3
    14bc:	9b 01       	movw	r18, r22
    14be:	a7 01       	movw	r20, r14
    14c0:	c6 01       	movw	r24, r12
    14c2:	0e 94 54 08 	call	0x10a8	; 0x10a8 <ILI9341_Set_Address>
    14c6:	c2 98       	cbi	0x18, 2	; 24
    14c8:	8c e2       	ldi	r24, 0x2C	; 44
    14ca:	0e 94 c9 06 	call	0xd92	; 0xd92 <spi_write>
    14ce:	c2 9a       	sbi	0x18, 2	; 24
    14d0:	81 2c       	mov	r8, r1
    14d2:	91 2c       	mov	r9, r1
    14d4:	54 01       	movw	r10, r8
    14d6:	8e 85       	ldd	r24, Y+14	; 0x0e
    14d8:	0e 94 c9 06 	call	0xd92	; 0xd92 <spi_write>
    14dc:	8d 85       	ldd	r24, Y+13	; 0x0d
    14de:	0e 94 c9 06 	call	0xd92	; 0xd92 <spi_write>
    14e2:	3f ef       	ldi	r19, 0xFF	; 255
    14e4:	83 1a       	sub	r8, r19
    14e6:	93 0a       	sbc	r9, r19
    14e8:	a3 0a       	sbc	r10, r19
    14ea:	b3 0a       	sbc	r11, r19
    14ec:	89 81       	ldd	r24, Y+1	; 0x01
    14ee:	9a 81       	ldd	r25, Y+2	; 0x02
    14f0:	ab 81       	ldd	r26, Y+3	; 0x03
    14f2:	bc 81       	ldd	r27, Y+4	; 0x04
    14f4:	88 16       	cp	r8, r24
    14f6:	99 06       	cpc	r9, r25
    14f8:	aa 06       	cpc	r10, r26
    14fa:	bb 06       	cpc	r11, r27
    14fc:	60 f3       	brcs	.-40     	; 0x14d6 <ILI9341_Draw_Circle+0x282>
    14fe:	b1 01       	movw	r22, r2
    1500:	66 19       	sub	r22, r6
    1502:	77 09       	sbc	r23, r7
    1504:	9b 01       	movw	r18, r22
    1506:	a7 01       	movw	r20, r14
    1508:	c6 01       	movw	r24, r12
    150a:	0e 94 54 08 	call	0x10a8	; 0x10a8 <ILI9341_Set_Address>
    150e:	c2 98       	cbi	0x18, 2	; 24
    1510:	8c e2       	ldi	r24, 0x2C	; 44
    1512:	0e 94 c9 06 	call	0xd92	; 0xd92 <spi_write>
    1516:	c2 9a       	sbi	0x18, 2	; 24
    1518:	c1 2c       	mov	r12, r1
    151a:	d1 2c       	mov	r13, r1
    151c:	76 01       	movw	r14, r12
    151e:	8e 85       	ldd	r24, Y+14	; 0x0e
    1520:	0e 94 c9 06 	call	0xd92	; 0xd92 <spi_write>
    1524:	8d 85       	ldd	r24, Y+13	; 0x0d
    1526:	0e 94 c9 06 	call	0xd92	; 0xd92 <spi_write>
    152a:	9f ef       	ldi	r25, 0xFF	; 255
    152c:	c9 1a       	sub	r12, r25
    152e:	d9 0a       	sbc	r13, r25
    1530:	e9 0a       	sbc	r14, r25
    1532:	f9 0a       	sbc	r15, r25
    1534:	89 81       	ldd	r24, Y+1	; 0x01
    1536:	9a 81       	ldd	r25, Y+2	; 0x02
    1538:	ab 81       	ldd	r26, Y+3	; 0x03
    153a:	bc 81       	ldd	r27, Y+4	; 0x04
    153c:	c8 16       	cp	r12, r24
    153e:	d9 06       	cpc	r13, r25
    1540:	ea 06       	cpc	r14, r26
    1542:	fb 06       	cpc	r15, r27
    1544:	60 f3       	brcs	.-40     	; 0x151e <ILI9341_Draw_Circle+0x2ca>
    1546:	d3 01       	movw	r26, r6
    1548:	a4 0d       	add	r26, r4
    154a:	b5 1d       	adc	r27, r5
    154c:	ba 87       	std	Y+10, r27	; 0x0a
    154e:	a9 87       	std	Y+9, r26	; 0x09
    1550:	92 01       	movw	r18, r4
    1552:	26 19       	sub	r18, r6
    1554:	37 09       	sbc	r19, r7
    1556:	3c 87       	std	Y+12, r19	; 0x0c
    1558:	2b 87       	std	Y+11, r18	; 0x0b
    155a:	b8 01       	movw	r22, r16
    155c:	62 0d       	add	r22, r2
    155e:	73 1d       	adc	r23, r3
    1560:	9b 01       	movw	r18, r22
    1562:	ad 01       	movw	r20, r26
    1564:	8b 85       	ldd	r24, Y+11	; 0x0b
    1566:	9c 85       	ldd	r25, Y+12	; 0x0c
    1568:	0e 94 54 08 	call	0x10a8	; 0x10a8 <ILI9341_Set_Address>
    156c:	c2 98       	cbi	0x18, 2	; 24
    156e:	8c e2       	ldi	r24, 0x2C	; 44
    1570:	0e 94 c9 06 	call	0xd92	; 0xd92 <spi_write>
    1574:	c2 9a       	sbi	0x18, 2	; 24
    1576:	43 01       	movw	r8, r6
    1578:	88 0c       	add	r8, r8
    157a:	99 1c       	adc	r9, r9
    157c:	3f ef       	ldi	r19, 0xFF	; 255
    157e:	83 1a       	sub	r8, r19
    1580:	93 0a       	sbc	r9, r19
    1582:	09 2c       	mov	r0, r9
    1584:	00 0c       	add	r0, r0
    1586:	aa 08       	sbc	r10, r10
    1588:	bb 08       	sbc	r11, r11
    158a:	c1 2c       	mov	r12, r1
    158c:	d1 2c       	mov	r13, r1
    158e:	76 01       	movw	r14, r12
    1590:	c8 14       	cp	r12, r8
    1592:	d9 04       	cpc	r13, r9
    1594:	ea 04       	cpc	r14, r10
    1596:	fb 04       	cpc	r15, r11
    1598:	78 f1       	brcs	.+94     	; 0x15f8 <ILI9341_Draw_Circle+0x3a4>
    159a:	b1 01       	movw	r22, r2
    159c:	60 1b       	sub	r22, r16
    159e:	71 0b       	sbc	r23, r17
    15a0:	9b 01       	movw	r18, r22
    15a2:	49 85       	ldd	r20, Y+9	; 0x09
    15a4:	5a 85       	ldd	r21, Y+10	; 0x0a
    15a6:	8b 85       	ldd	r24, Y+11	; 0x0b
    15a8:	9c 85       	ldd	r25, Y+12	; 0x0c
    15aa:	0e 94 54 08 	call	0x10a8	; 0x10a8 <ILI9341_Set_Address>
    15ae:	c2 98       	cbi	0x18, 2	; 24
    15b0:	8c e2       	ldi	r24, 0x2C	; 44
    15b2:	0e 94 c9 06 	call	0xd92	; 0xd92 <spi_write>
    15b6:	c2 9a       	sbi	0x18, 2	; 24
    15b8:	c1 2c       	mov	r12, r1
    15ba:	d1 2c       	mov	r13, r1
    15bc:	76 01       	movw	r14, r12
    15be:	c8 14       	cp	r12, r8
    15c0:	d9 04       	cpc	r13, r9
    15c2:	ea 04       	cpc	r14, r10
    15c4:	fb 04       	cpc	r15, r11
    15c6:	20 f1       	brcs	.+72     	; 0x1610 <ILI9341_Draw_Circle+0x3bc>
    15c8:	89 81       	ldd	r24, Y+1	; 0x01
    15ca:	9a 81       	ldd	r25, Y+2	; 0x02
    15cc:	ab 81       	ldd	r26, Y+3	; 0x03
    15ce:	bc 81       	ldd	r27, Y+4	; 0x04
    15d0:	02 96       	adiw	r24, 0x02	; 2
    15d2:	a1 1d       	adc	r26, r1
    15d4:	b1 1d       	adc	r27, r1
    15d6:	89 83       	std	Y+1, r24	; 0x01
    15d8:	9a 83       	std	Y+2, r25	; 0x02
    15da:	ab 83       	std	Y+3, r26	; 0x03
    15dc:	bc 83       	std	Y+4, r27	; 0x04
    15de:	44 cf       	rjmp	.-376    	; 0x1468 <ILI9341_Draw_Circle+0x214>
    15e0:	8e 85       	ldd	r24, Y+14	; 0x0e
    15e2:	0e 94 c9 06 	call	0xd92	; 0xd92 <spi_write>
    15e6:	8d 85       	ldd	r24, Y+13	; 0x0d
    15e8:	0e 94 c9 06 	call	0xd92	; 0xd92 <spi_write>
    15ec:	8f ef       	ldi	r24, 0xFF	; 255
    15ee:	88 1a       	sub	r8, r24
    15f0:	98 0a       	sbc	r9, r24
    15f2:	a8 0a       	sbc	r10, r24
    15f4:	b8 0a       	sbc	r11, r24
    15f6:	28 cf       	rjmp	.-432    	; 0x1448 <ILI9341_Draw_Circle+0x1f4>
    15f8:	8e 85       	ldd	r24, Y+14	; 0x0e
    15fa:	0e 94 c9 06 	call	0xd92	; 0xd92 <spi_write>
    15fe:	8d 85       	ldd	r24, Y+13	; 0x0d
    1600:	0e 94 c9 06 	call	0xd92	; 0xd92 <spi_write>
    1604:	8f ef       	ldi	r24, 0xFF	; 255
    1606:	c8 1a       	sub	r12, r24
    1608:	d8 0a       	sbc	r13, r24
    160a:	e8 0a       	sbc	r14, r24
    160c:	f8 0a       	sbc	r15, r24
    160e:	c0 cf       	rjmp	.-128    	; 0x1590 <ILI9341_Draw_Circle+0x33c>
    1610:	8e 85       	ldd	r24, Y+14	; 0x0e
    1612:	0e 94 c9 06 	call	0xd92	; 0xd92 <spi_write>
    1616:	8d 85       	ldd	r24, Y+13	; 0x0d
    1618:	0e 94 c9 06 	call	0xd92	; 0xd92 <spi_write>
    161c:	9f ef       	ldi	r25, 0xFF	; 255
    161e:	c9 1a       	sub	r12, r25
    1620:	d9 0a       	sbc	r13, r25
    1622:	e9 0a       	sbc	r14, r25
    1624:	f9 0a       	sbc	r15, r25
    1626:	cb cf       	rjmp	.-106    	; 0x15be <ILI9341_Draw_Circle+0x36a>

00001628 <ILI9341_set_cursor>:
    1628:	90 93 13 02 	sts	0x0213, r25	; 0x800213 <cursor_x+0x1>
    162c:	80 93 12 02 	sts	0x0212, r24	; 0x800212 <cursor_x>
    1630:	70 93 0b 02 	sts	0x020B, r23	; 0x80020b <cursor_y+0x1>
    1634:	60 93 0a 02 	sts	0x020A, r22	; 0x80020a <cursor_y>
    1638:	08 95       	ret

0000163a <ILI9341_set_text_color>:
    163a:	08 95       	ret

0000163c <ILI9341_set_text_size>:
    163c:	08 95       	ret

0000163e <drawFastVLine>:
    163e:	0f 93       	push	r16
    1640:	1f 93       	push	r17
    1642:	cf 93       	push	r28
    1644:	df 93       	push	r29
    1646:	ea 01       	movw	r28, r20
    1648:	89 01       	movw	r16, r18
    164a:	9b 01       	movw	r18, r22
    164c:	24 0f       	add	r18, r20
    164e:	35 1f       	adc	r19, r21
    1650:	21 50       	subi	r18, 0x01	; 1
    1652:	31 09       	sbc	r19, r1
    1654:	ac 01       	movw	r20, r24
    1656:	0e 94 54 08 	call	0x10a8	; 0x10a8 <ILI9341_Set_Address>
    165a:	be 01       	movw	r22, r28
    165c:	c8 01       	movw	r24, r16
    165e:	0e 94 b3 06 	call	0xd66	; 0xd66 <spiWrite16>
    1662:	c0 9a       	sbi	0x18, 0	; 24
    1664:	df 91       	pop	r29
    1666:	cf 91       	pop	r28
    1668:	1f 91       	pop	r17
    166a:	0f 91       	pop	r16
    166c:	08 95       	ret

0000166e <fillCircleHelper>:
    166e:	2f 92       	push	r2
    1670:	3f 92       	push	r3
    1672:	4f 92       	push	r4
    1674:	5f 92       	push	r5
    1676:	6f 92       	push	r6
    1678:	7f 92       	push	r7
    167a:	8f 92       	push	r8
    167c:	9f 92       	push	r9
    167e:	af 92       	push	r10
    1680:	bf 92       	push	r11
    1682:	cf 92       	push	r12
    1684:	df 92       	push	r13
    1686:	ef 92       	push	r14
    1688:	ff 92       	push	r15
    168a:	0f 93       	push	r16
    168c:	1f 93       	push	r17
    168e:	cf 93       	push	r28
    1690:	df 93       	push	r29
    1692:	00 d0       	rcall	.+0      	; 0x1694 <fillCircleHelper+0x26>
    1694:	00 d0       	rcall	.+0      	; 0x1696 <fillCircleHelper+0x28>
    1696:	00 d0       	rcall	.+0      	; 0x1698 <fillCircleHelper+0x2a>
    1698:	cd b7       	in	r28, 0x3d	; 61
    169a:	de b7       	in	r29, 0x3e	; 62
    169c:	6c 01       	movw	r12, r24
    169e:	5b 01       	movw	r10, r22
    16a0:	5e 83       	std	Y+6, r21	; 0x06
    16a2:	4d 83       	std	Y+5, r20	; 0x05
    16a4:	28 01       	movw	r4, r16
    16a6:	81 e0       	ldi	r24, 0x01	; 1
    16a8:	90 e0       	ldi	r25, 0x00	; 0
    16aa:	3c 01       	movw	r6, r24
    16ac:	64 1a       	sub	r6, r20
    16ae:	75 0a       	sbc	r7, r21
    16b0:	1a 01       	movw	r2, r20
    16b2:	31 94       	neg	r3
    16b4:	21 94       	neg	r2
    16b6:	31 08       	sbc	r3, r1
    16b8:	24 1a       	sub	r2, r20
    16ba:	35 0a       	sbc	r3, r21
    16bc:	a8 01       	movw	r20, r16
    16be:	4f 5f       	subi	r20, 0xFF	; 255
    16c0:	5f 4f       	sbci	r21, 0xFF	; 255
    16c2:	5a 83       	std	Y+2, r21	; 0x02
    16c4:	49 83       	std	Y+1, r20	; 0x01
    16c6:	10 e0       	ldi	r17, 0x00	; 0
    16c8:	00 e0       	ldi	r16, 0x00	; 0
    16ca:	88 24       	eor	r8, r8
    16cc:	83 94       	inc	r8
    16ce:	91 2c       	mov	r9, r1
    16d0:	52 2f       	mov	r21, r18
    16d2:	51 70       	andi	r21, 0x01	; 1
    16d4:	5b 83       	std	Y+3, r21	; 0x03
    16d6:	22 70       	andi	r18, 0x02	; 2
    16d8:	2c 83       	std	Y+4, r18	; 0x04
    16da:	4d 81       	ldd	r20, Y+5	; 0x05
    16dc:	5e 81       	ldd	r21, Y+6	; 0x06
    16de:	04 17       	cp	r16, r20
    16e0:	15 07       	cpc	r17, r21
    16e2:	cc f0       	brlt	.+50     	; 0x1716 <fillCircleHelper+0xa8>
    16e4:	26 96       	adiw	r28, 0x06	; 6
    16e6:	0f b6       	in	r0, 0x3f	; 63
    16e8:	f8 94       	cli
    16ea:	de bf       	out	0x3e, r29	; 62
    16ec:	0f be       	out	0x3f, r0	; 63
    16ee:	cd bf       	out	0x3d, r28	; 61
    16f0:	df 91       	pop	r29
    16f2:	cf 91       	pop	r28
    16f4:	1f 91       	pop	r17
    16f6:	0f 91       	pop	r16
    16f8:	ff 90       	pop	r15
    16fa:	ef 90       	pop	r14
    16fc:	df 90       	pop	r13
    16fe:	cf 90       	pop	r12
    1700:	bf 90       	pop	r11
    1702:	af 90       	pop	r10
    1704:	9f 90       	pop	r9
    1706:	8f 90       	pop	r8
    1708:	7f 90       	pop	r7
    170a:	6f 90       	pop	r6
    170c:	5f 90       	pop	r5
    170e:	4f 90       	pop	r4
    1710:	3f 90       	pop	r3
    1712:	2f 90       	pop	r2
    1714:	08 95       	ret
    1716:	77 fc       	sbrc	r7, 7
    1718:	0a c0       	rjmp	.+20     	; 0x172e <fillCircleHelper+0xc0>
    171a:	8d 81       	ldd	r24, Y+5	; 0x05
    171c:	9e 81       	ldd	r25, Y+6	; 0x06
    171e:	01 97       	sbiw	r24, 0x01	; 1
    1720:	9e 83       	std	Y+6, r25	; 0x06
    1722:	8d 83       	std	Y+5, r24	; 0x05
    1724:	92 e0       	ldi	r25, 0x02	; 2
    1726:	29 0e       	add	r2, r25
    1728:	31 1c       	adc	r3, r1
    172a:	62 0c       	add	r6, r2
    172c:	73 1c       	adc	r7, r3
    172e:	0f 5f       	subi	r16, 0xFF	; 255
    1730:	1f 4f       	sbci	r17, 0xFF	; 255
    1732:	e2 e0       	ldi	r30, 0x02	; 2
    1734:	8e 0e       	add	r8, r30
    1736:	91 1c       	adc	r9, r1
    1738:	68 0c       	add	r6, r8
    173a:	79 1c       	adc	r7, r9
    173c:	fb 81       	ldd	r31, Y+3	; 0x03
    173e:	ff 23       	and	r31, r31
    1740:	01 f1       	breq	.+64     	; 0x1782 <fillCircleHelper+0x114>
    1742:	4d 81       	ldd	r20, Y+5	; 0x05
    1744:	5e 81       	ldd	r21, Y+6	; 0x06
    1746:	44 0f       	add	r20, r20
    1748:	55 1f       	adc	r21, r21
    174a:	89 81       	ldd	r24, Y+1	; 0x01
    174c:	9a 81       	ldd	r25, Y+2	; 0x02
    174e:	48 0f       	add	r20, r24
    1750:	59 1f       	adc	r21, r25
    1752:	97 01       	movw	r18, r14
    1754:	b5 01       	movw	r22, r10
    1756:	ed 81       	ldd	r30, Y+5	; 0x05
    1758:	fe 81       	ldd	r31, Y+6	; 0x06
    175a:	6e 1b       	sub	r22, r30
    175c:	7f 0b       	sbc	r23, r31
    175e:	c6 01       	movw	r24, r12
    1760:	80 0f       	add	r24, r16
    1762:	91 1f       	adc	r25, r17
    1764:	0e 94 1f 0b 	call	0x163e	; 0x163e <drawFastVLine>
    1768:	97 01       	movw	r18, r14
    176a:	a2 01       	movw	r20, r4
    176c:	48 0d       	add	r20, r8
    176e:	59 1d       	adc	r21, r9
    1770:	b5 01       	movw	r22, r10
    1772:	60 1b       	sub	r22, r16
    1774:	71 0b       	sbc	r23, r17
    1776:	8d 81       	ldd	r24, Y+5	; 0x05
    1778:	9e 81       	ldd	r25, Y+6	; 0x06
    177a:	8c 0d       	add	r24, r12
    177c:	9d 1d       	adc	r25, r13
    177e:	0e 94 1f 0b 	call	0x163e	; 0x163e <drawFastVLine>
    1782:	fc 81       	ldd	r31, Y+4	; 0x04
    1784:	ff 23       	and	r31, r31
    1786:	09 f4       	brne	.+2      	; 0x178a <fillCircleHelper+0x11c>
    1788:	a8 cf       	rjmp	.-176    	; 0x16da <fillCircleHelper+0x6c>
    178a:	4d 81       	ldd	r20, Y+5	; 0x05
    178c:	5e 81       	ldd	r21, Y+6	; 0x06
    178e:	44 0f       	add	r20, r20
    1790:	55 1f       	adc	r21, r21
    1792:	89 81       	ldd	r24, Y+1	; 0x01
    1794:	9a 81       	ldd	r25, Y+2	; 0x02
    1796:	48 0f       	add	r20, r24
    1798:	59 1f       	adc	r21, r25
    179a:	97 01       	movw	r18, r14
    179c:	b5 01       	movw	r22, r10
    179e:	ed 81       	ldd	r30, Y+5	; 0x05
    17a0:	fe 81       	ldd	r31, Y+6	; 0x06
    17a2:	6e 1b       	sub	r22, r30
    17a4:	7f 0b       	sbc	r23, r31
    17a6:	c6 01       	movw	r24, r12
    17a8:	80 1b       	sub	r24, r16
    17aa:	91 0b       	sbc	r25, r17
    17ac:	0e 94 1f 0b 	call	0x163e	; 0x163e <drawFastVLine>
    17b0:	97 01       	movw	r18, r14
    17b2:	a2 01       	movw	r20, r4
    17b4:	48 0d       	add	r20, r8
    17b6:	59 1d       	adc	r21, r9
    17b8:	b5 01       	movw	r22, r10
    17ba:	60 1b       	sub	r22, r16
    17bc:	71 0b       	sbc	r23, r17
    17be:	c6 01       	movw	r24, r12
    17c0:	ed 81       	ldd	r30, Y+5	; 0x05
    17c2:	fe 81       	ldd	r31, Y+6	; 0x06
    17c4:	8e 1b       	sub	r24, r30
    17c6:	9f 0b       	sbc	r25, r31
    17c8:	0e 94 1f 0b 	call	0x163e	; 0x163e <drawFastVLine>
    17cc:	86 cf       	rjmp	.-244    	; 0x16da <fillCircleHelper+0x6c>

000017ce <drawFastHLine>:
    17ce:	0f 93       	push	r16
    17d0:	1f 93       	push	r17
    17d2:	cf 93       	push	r28
    17d4:	df 93       	push	r29
    17d6:	ea 01       	movw	r28, r20
    17d8:	89 01       	movw	r16, r18
    17da:	ac 01       	movw	r20, r24
    17dc:	4c 0f       	add	r20, r28
    17de:	5d 1f       	adc	r21, r29
    17e0:	41 50       	subi	r20, 0x01	; 1
    17e2:	51 09       	sbc	r21, r1
    17e4:	9b 01       	movw	r18, r22
    17e6:	0e 94 54 08 	call	0x10a8	; 0x10a8 <ILI9341_Set_Address>
    17ea:	be 01       	movw	r22, r28
    17ec:	c8 01       	movw	r24, r16
    17ee:	0e 94 b3 06 	call	0xd66	; 0xd66 <spiWrite16>
    17f2:	c0 9a       	sbi	0x18, 0	; 24
    17f4:	df 91       	pop	r29
    17f6:	cf 91       	pop	r28
    17f8:	1f 91       	pop	r17
    17fa:	0f 91       	pop	r16
    17fc:	08 95       	ret

000017fe <drawPixel>:
    17fe:	20 91 03 01 	lds	r18, 0x0103	; 0x800103 <X_SIZE>
    1802:	30 91 04 01 	lds	r19, 0x0104	; 0x800104 <X_SIZE+0x1>
    1806:	82 17       	cp	r24, r18
    1808:	93 07       	cpc	r25, r19
    180a:	08 f0       	brcs	.+2      	; 0x180e <drawPixel+0x10>
    180c:	58 c0       	rjmp	.+176    	; 0x18be <drawPixel+0xc0>
    180e:	20 91 01 01 	lds	r18, 0x0101	; 0x800101 <Y_SIZE>
    1812:	30 91 02 01 	lds	r19, 0x0102	; 0x800102 <Y_SIZE+0x1>
    1816:	62 17       	cp	r22, r18
    1818:	73 07       	cpc	r23, r19
    181a:	08 f0       	brcs	.+2      	; 0x181e <drawPixel+0x20>
    181c:	50 c0       	rjmp	.+160    	; 0x18be <drawPixel+0xc0>
    181e:	c0 98       	cbi	0x18, 0	; 24
    1820:	20 91 0c 02 	lds	r18, 0x020C	; 0x80020c <addr_col>
    1824:	30 91 0d 02 	lds	r19, 0x020D	; 0x80020d <addr_col+0x1>
    1828:	82 17       	cp	r24, r18
    182a:	93 07       	cpc	r25, r19
    182c:	b1 f0       	breq	.+44     	; 0x185a <drawPixel+0x5c>
    182e:	c2 98       	cbi	0x18, 2	; 24
    1830:	2a e2       	ldi	r18, 0x2A	; 42
    1832:	2f b9       	out	0x0f, r18	; 15
    1834:	77 9b       	sbis	0x0e, 7	; 14
    1836:	fe cf       	rjmp	.-4      	; 0x1834 <drawPixel+0x36>
    1838:	90 93 0d 02 	sts	0x020D, r25	; 0x80020d <addr_col+0x1>
    183c:	80 93 0c 02 	sts	0x020C, r24	; 0x80020c <addr_col>
    1840:	c2 9a       	sbi	0x18, 2	; 24
    1842:	9f b9       	out	0x0f, r25	; 15
    1844:	77 9b       	sbis	0x0e, 7	; 14
    1846:	fe cf       	rjmp	.-4      	; 0x1844 <drawPixel+0x46>
    1848:	8f b9       	out	0x0f, r24	; 15
    184a:	77 9b       	sbis	0x0e, 7	; 14
    184c:	fe cf       	rjmp	.-4      	; 0x184a <drawPixel+0x4c>
    184e:	9f b9       	out	0x0f, r25	; 15
    1850:	77 9b       	sbis	0x0e, 7	; 14
    1852:	fe cf       	rjmp	.-4      	; 0x1850 <drawPixel+0x52>
    1854:	8f b9       	out	0x0f, r24	; 15
    1856:	77 9b       	sbis	0x0e, 7	; 14
    1858:	fe cf       	rjmp	.-4      	; 0x1856 <drawPixel+0x58>
    185a:	20 91 08 02 	lds	r18, 0x0208	; 0x800208 <addr_row>
    185e:	30 91 09 02 	lds	r19, 0x0209	; 0x800209 <addr_row+0x1>
    1862:	62 17       	cp	r22, r18
    1864:	73 07       	cpc	r23, r19
    1866:	b1 f0       	breq	.+44     	; 0x1894 <drawPixel+0x96>
    1868:	c2 98       	cbi	0x18, 2	; 24
    186a:	2b e2       	ldi	r18, 0x2B	; 43
    186c:	2f b9       	out	0x0f, r18	; 15
    186e:	77 9b       	sbis	0x0e, 7	; 14
    1870:	fe cf       	rjmp	.-4      	; 0x186e <drawPixel+0x70>
    1872:	70 93 09 02 	sts	0x0209, r23	; 0x800209 <addr_row+0x1>
    1876:	60 93 08 02 	sts	0x0208, r22	; 0x800208 <addr_row>
    187a:	c2 9a       	sbi	0x18, 2	; 24
    187c:	7f b9       	out	0x0f, r23	; 15
    187e:	77 9b       	sbis	0x0e, 7	; 14
    1880:	fe cf       	rjmp	.-4      	; 0x187e <drawPixel+0x80>
    1882:	6f b9       	out	0x0f, r22	; 15
    1884:	77 9b       	sbis	0x0e, 7	; 14
    1886:	fe cf       	rjmp	.-4      	; 0x1884 <drawPixel+0x86>
    1888:	7f b9       	out	0x0f, r23	; 15
    188a:	77 9b       	sbis	0x0e, 7	; 14
    188c:	fe cf       	rjmp	.-4      	; 0x188a <drawPixel+0x8c>
    188e:	6f b9       	out	0x0f, r22	; 15
    1890:	77 9b       	sbis	0x0e, 7	; 14
    1892:	fe cf       	rjmp	.-4      	; 0x1890 <drawPixel+0x92>
    1894:	c2 98       	cbi	0x18, 2	; 24
    1896:	2c e2       	ldi	r18, 0x2C	; 44
    1898:	2f b9       	out	0x0f, r18	; 15
    189a:	77 9b       	sbis	0x0e, 7	; 14
    189c:	fe cf       	rjmp	.-4      	; 0x189a <drawPixel+0x9c>
    189e:	c2 9a       	sbi	0x18, 2	; 24
    18a0:	5f b9       	out	0x0f, r21	; 15
    18a2:	77 9b       	sbis	0x0e, 7	; 14
    18a4:	fe cf       	rjmp	.-4      	; 0x18a2 <drawPixel+0xa4>
    18a6:	90 93 1b 02 	sts	0x021B, r25	; 0x80021b <win_xe+0x1>
    18aa:	80 93 1a 02 	sts	0x021A, r24	; 0x80021a <win_xe>
    18ae:	4f b9       	out	0x0f, r20	; 15
    18b0:	77 9b       	sbis	0x0e, 7	; 14
    18b2:	fe cf       	rjmp	.-4      	; 0x18b0 <drawPixel+0xb2>
    18b4:	70 93 11 02 	sts	0x0211, r23	; 0x800211 <win_ye+0x1>
    18b8:	60 93 10 02 	sts	0x0210, r22	; 0x800210 <win_ye>
    18bc:	c0 9a       	sbi	0x18, 0	; 24
    18be:	08 95       	ret

000018c0 <ILI9341_Draw_Line>:
    18c0:	2f 92       	push	r2
    18c2:	3f 92       	push	r3
    18c4:	4f 92       	push	r4
    18c6:	5f 92       	push	r5
    18c8:	6f 92       	push	r6
    18ca:	7f 92       	push	r7
    18cc:	8f 92       	push	r8
    18ce:	9f 92       	push	r9
    18d0:	af 92       	push	r10
    18d2:	bf 92       	push	r11
    18d4:	cf 92       	push	r12
    18d6:	df 92       	push	r13
    18d8:	ef 92       	push	r14
    18da:	ff 92       	push	r15
    18dc:	0f 93       	push	r16
    18de:	1f 93       	push	r17
    18e0:	cf 93       	push	r28
    18e2:	df 93       	push	r29
    18e4:	00 d0       	rcall	.+0      	; 0x18e6 <ILI9341_Draw_Line+0x26>
    18e6:	00 d0       	rcall	.+0      	; 0x18e8 <ILI9341_Draw_Line+0x28>
    18e8:	cd b7       	in	r28, 0x3d	; 61
    18ea:	de b7       	in	r29, 0x3e	; 62
    18ec:	9a 83       	std	Y+2, r25	; 0x02
    18ee:	89 83       	std	Y+1, r24	; 0x01
    18f0:	7c 83       	std	Y+4, r23	; 0x04
    18f2:	6b 83       	std	Y+3, r22	; 0x03
    18f4:	7a 01       	movw	r14, r20
    18f6:	69 01       	movw	r12, r18
    18f8:	58 01       	movw	r10, r16
    18fa:	a4 1a       	sub	r10, r20
    18fc:	b5 0a       	sbc	r11, r21
    18fe:	b7 fe       	sbrs	r11, 7
    1900:	03 c0       	rjmp	.+6      	; 0x1908 <ILI9341_Draw_Line+0x48>
    1902:	b1 94       	neg	r11
    1904:	a1 94       	neg	r10
    1906:	b1 08       	sbc	r11, r1
    1908:	46 01       	movw	r8, r12
    190a:	8b 81       	ldd	r24, Y+3	; 0x03
    190c:	9c 81       	ldd	r25, Y+4	; 0x04
    190e:	88 1a       	sub	r8, r24
    1910:	99 0a       	sbc	r9, r25
    1912:	97 fe       	sbrs	r9, 7
    1914:	03 c0       	rjmp	.+6      	; 0x191c <ILI9341_Draw_Line+0x5c>
    1916:	91 94       	neg	r9
    1918:	81 94       	neg	r8
    191a:	91 08       	sbc	r9, r1
    191c:	8a 14       	cp	r8, r10
    191e:	9b 04       	cpc	r9, r11
    1920:	5c f4       	brge	.+22     	; 0x1938 <ILI9341_Draw_Line+0x78>
    1922:	9c 2d       	mov	r25, r12
    1924:	8d 2d       	mov	r24, r13
    1926:	68 01       	movw	r12, r16
    1928:	09 2f       	mov	r16, r25
    192a:	18 2f       	mov	r17, r24
    192c:	9b 81       	ldd	r25, Y+3	; 0x03
    192e:	8c 81       	ldd	r24, Y+4	; 0x04
    1930:	fc 82       	std	Y+4, r15	; 0x04
    1932:	eb 82       	std	Y+3, r14	; 0x03
    1934:	e9 2e       	mov	r14, r25
    1936:	f8 2e       	mov	r15, r24
    1938:	8b 81       	ldd	r24, Y+3	; 0x03
    193a:	9c 81       	ldd	r25, Y+4	; 0x04
    193c:	c8 16       	cp	r12, r24
    193e:	d9 06       	cpc	r13, r25
    1940:	58 f4       	brcc	.+22     	; 0x1958 <ILI9341_Draw_Line+0x98>
    1942:	9e 2d       	mov	r25, r14
    1944:	8f 2d       	mov	r24, r15
    1946:	78 01       	movw	r14, r16
    1948:	09 2f       	mov	r16, r25
    194a:	18 2f       	mov	r17, r24
    194c:	9b 81       	ldd	r25, Y+3	; 0x03
    194e:	8c 81       	ldd	r24, Y+4	; 0x04
    1950:	dc 82       	std	Y+4, r13	; 0x04
    1952:	cb 82       	std	Y+3, r12	; 0x03
    1954:	c9 2e       	mov	r12, r25
    1956:	d8 2e       	mov	r13, r24
    1958:	16 01       	movw	r2, r12
    195a:	8b 81       	ldd	r24, Y+3	; 0x03
    195c:	9c 81       	ldd	r25, Y+4	; 0x04
    195e:	28 1a       	sub	r2, r24
    1960:	39 0a       	sbc	r3, r25
    1962:	28 01       	movw	r4, r16
    1964:	4e 18       	sub	r4, r14
    1966:	5f 08       	sbc	r5, r15
    1968:	57 fe       	sbrs	r5, 7
    196a:	03 c0       	rjmp	.+6      	; 0x1972 <ILI9341_Draw_Line+0xb2>
    196c:	51 94       	neg	r5
    196e:	41 94       	neg	r4
    1970:	51 08       	sbc	r5, r1
    1972:	31 01       	movw	r6, r2
    1974:	37 fe       	sbrs	r3, 7
    1976:	03 c0       	rjmp	.+6      	; 0x197e <ILI9341_Draw_Line+0xbe>
    1978:	9f ef       	ldi	r25, 0xFF	; 255
    197a:	69 1a       	sub	r6, r25
    197c:	79 0a       	sbc	r7, r25
    197e:	75 94       	asr	r7
    1980:	67 94       	ror	r6
    1982:	e0 16       	cp	r14, r16
    1984:	f1 06       	cpc	r15, r17
    1986:	c8 f1       	brcs	.+114    	; 0x19fa <ILI9341_Draw_Line+0x13a>
    1988:	0f ef       	ldi	r16, 0xFF	; 255
    198a:	1f ef       	ldi	r17, 0xFF	; 255
    198c:	8b 81       	ldd	r24, Y+3	; 0x03
    198e:	9c 81       	ldd	r25, Y+4	; 0x04
    1990:	c8 16       	cp	r12, r24
    1992:	d9 06       	cpc	r13, r25
    1994:	b8 f4       	brcc	.+46     	; 0x19c4 <ILI9341_Draw_Line+0x104>
    1996:	0f 90       	pop	r0
    1998:	0f 90       	pop	r0
    199a:	0f 90       	pop	r0
    199c:	0f 90       	pop	r0
    199e:	df 91       	pop	r29
    19a0:	cf 91       	pop	r28
    19a2:	1f 91       	pop	r17
    19a4:	0f 91       	pop	r16
    19a6:	ff 90       	pop	r15
    19a8:	ef 90       	pop	r14
    19aa:	df 90       	pop	r13
    19ac:	cf 90       	pop	r12
    19ae:	bf 90       	pop	r11
    19b0:	af 90       	pop	r10
    19b2:	9f 90       	pop	r9
    19b4:	8f 90       	pop	r8
    19b6:	7f 90       	pop	r7
    19b8:	6f 90       	pop	r6
    19ba:	5f 90       	pop	r5
    19bc:	4f 90       	pop	r4
    19be:	3f 90       	pop	r3
    19c0:	2f 90       	pop	r2
    19c2:	08 95       	ret
    19c4:	49 81       	ldd	r20, Y+1	; 0x01
    19c6:	5a 81       	ldd	r21, Y+2	; 0x02
    19c8:	6b 81       	ldd	r22, Y+3	; 0x03
    19ca:	7c 81       	ldd	r23, Y+4	; 0x04
    19cc:	c7 01       	movw	r24, r14
    19ce:	8a 14       	cp	r8, r10
    19d0:	9b 04       	cpc	r9, r11
    19d2:	1c f0       	brlt	.+6      	; 0x19da <ILI9341_Draw_Line+0x11a>
    19d4:	b7 01       	movw	r22, r14
    19d6:	8b 81       	ldd	r24, Y+3	; 0x03
    19d8:	9c 81       	ldd	r25, Y+4	; 0x04
    19da:	0e 94 ff 0b 	call	0x17fe	; 0x17fe <drawPixel>
    19de:	64 18       	sub	r6, r4
    19e0:	75 08       	sbc	r7, r5
    19e2:	77 fe       	sbrs	r7, 7
    19e4:	04 c0       	rjmp	.+8      	; 0x19ee <ILI9341_Draw_Line+0x12e>
    19e6:	e0 0e       	add	r14, r16
    19e8:	f1 1e       	adc	r15, r17
    19ea:	62 0c       	add	r6, r2
    19ec:	73 1c       	adc	r7, r3
    19ee:	8b 81       	ldd	r24, Y+3	; 0x03
    19f0:	9c 81       	ldd	r25, Y+4	; 0x04
    19f2:	01 96       	adiw	r24, 0x01	; 1
    19f4:	9c 83       	std	Y+4, r25	; 0x04
    19f6:	8b 83       	std	Y+3, r24	; 0x03
    19f8:	c9 cf       	rjmp	.-110    	; 0x198c <ILI9341_Draw_Line+0xcc>
    19fa:	01 e0       	ldi	r16, 0x01	; 1
    19fc:	10 e0       	ldi	r17, 0x00	; 0
    19fe:	c6 cf       	rjmp	.-116    	; 0x198c <ILI9341_Draw_Line+0xcc>

00001a00 <ILI9341_Draw_Empty_Rectangle>:
    1a00:	8f 92       	push	r8
    1a02:	9f 92       	push	r9
    1a04:	af 92       	push	r10
    1a06:	bf 92       	push	r11
    1a08:	cf 92       	push	r12
    1a0a:	df 92       	push	r13
    1a0c:	ef 92       	push	r14
    1a0e:	ff 92       	push	r15
    1a10:	0f 93       	push	r16
    1a12:	1f 93       	push	r17
    1a14:	cf 93       	push	r28
    1a16:	df 93       	push	r29
    1a18:	ec 01       	movw	r28, r24
    1a1a:	7b 01       	movw	r14, r22
    1a1c:	4a 01       	movw	r8, r20
    1a1e:	59 01       	movw	r10, r18
    1a20:	68 01       	movw	r12, r16
    1a22:	8a 01       	movw	r16, r20
    1a24:	0e 94 60 0c 	call	0x18c0	; 0x18c0 <ILI9341_Draw_Line>
    1a28:	86 01       	movw	r16, r12
    1a2a:	95 01       	movw	r18, r10
    1a2c:	a4 01       	movw	r20, r8
    1a2e:	b5 01       	movw	r22, r10
    1a30:	ce 01       	movw	r24, r28
    1a32:	0e 94 60 0c 	call	0x18c0	; 0x18c0 <ILI9341_Draw_Line>
    1a36:	97 01       	movw	r18, r14
    1a38:	a4 01       	movw	r20, r8
    1a3a:	b7 01       	movw	r22, r14
    1a3c:	ce 01       	movw	r24, r28
    1a3e:	0e 94 60 0c 	call	0x18c0	; 0x18c0 <ILI9341_Draw_Line>
    1a42:	95 01       	movw	r18, r10
    1a44:	a6 01       	movw	r20, r12
    1a46:	b7 01       	movw	r22, r14
    1a48:	ce 01       	movw	r24, r28
    1a4a:	0e 94 60 0c 	call	0x18c0	; 0x18c0 <ILI9341_Draw_Line>
    1a4e:	df 91       	pop	r29
    1a50:	cf 91       	pop	r28
    1a52:	1f 91       	pop	r17
    1a54:	0f 91       	pop	r16
    1a56:	ff 90       	pop	r15
    1a58:	ef 90       	pop	r14
    1a5a:	df 90       	pop	r13
    1a5c:	cf 90       	pop	r12
    1a5e:	bf 90       	pop	r11
    1a60:	af 90       	pop	r10
    1a62:	9f 90       	pop	r9
    1a64:	8f 90       	pop	r8
    1a66:	08 95       	ret

00001a68 <drawCircleHelper>:
    1a68:	2f 92       	push	r2
    1a6a:	3f 92       	push	r3
    1a6c:	4f 92       	push	r4
    1a6e:	5f 92       	push	r5
    1a70:	6f 92       	push	r6
    1a72:	7f 92       	push	r7
    1a74:	8f 92       	push	r8
    1a76:	9f 92       	push	r9
    1a78:	af 92       	push	r10
    1a7a:	bf 92       	push	r11
    1a7c:	cf 92       	push	r12
    1a7e:	df 92       	push	r13
    1a80:	ef 92       	push	r14
    1a82:	ff 92       	push	r15
    1a84:	0f 93       	push	r16
    1a86:	1f 93       	push	r17
    1a88:	cf 93       	push	r28
    1a8a:	df 93       	push	r29
    1a8c:	00 d0       	rcall	.+0      	; 0x1a8e <drawCircleHelper+0x26>
    1a8e:	00 d0       	rcall	.+0      	; 0x1a90 <drawCircleHelper+0x28>
    1a90:	cd b7       	in	r28, 0x3d	; 61
    1a92:	de b7       	in	r29, 0x3e	; 62
    1a94:	6c 01       	movw	r12, r24
    1a96:	5b 01       	movw	r10, r22
    1a98:	5c 83       	std	Y+4, r21	; 0x04
    1a9a:	4b 83       	std	Y+3, r20	; 0x03
    1a9c:	81 e0       	ldi	r24, 0x01	; 1
    1a9e:	90 e0       	ldi	r25, 0x00	; 0
    1aa0:	4c 01       	movw	r8, r24
    1aa2:	84 1a       	sub	r8, r20
    1aa4:	95 0a       	sbc	r9, r21
    1aa6:	3a 01       	movw	r6, r20
    1aa8:	71 94       	neg	r7
    1aaa:	61 94       	neg	r6
    1aac:	71 08       	sbc	r7, r1
    1aae:	66 0c       	add	r6, r6
    1ab0:	77 1c       	adc	r7, r7
    1ab2:	f1 2c       	mov	r15, r1
    1ab4:	e1 2c       	mov	r14, r1
    1ab6:	44 24       	eor	r4, r4
    1ab8:	43 94       	inc	r4
    1aba:	51 2c       	mov	r5, r1
    1abc:	32 2f       	mov	r19, r18
    1abe:	34 70       	andi	r19, 0x04	; 4
    1ac0:	39 83       	std	Y+1, r19	; 0x01
    1ac2:	42 2f       	mov	r20, r18
    1ac4:	42 70       	andi	r20, 0x02	; 2
    1ac6:	4a 83       	std	Y+2, r20	; 0x02
    1ac8:	52 2f       	mov	r21, r18
    1aca:	58 70       	andi	r21, 0x08	; 8
    1acc:	25 2e       	mov	r2, r21
    1ace:	21 70       	andi	r18, 0x01	; 1
    1ad0:	32 2e       	mov	r3, r18
    1ad2:	2b 81       	ldd	r18, Y+3	; 0x03
    1ad4:	3c 81       	ldd	r19, Y+4	; 0x04
    1ad6:	e2 16       	cp	r14, r18
    1ad8:	f3 06       	cpc	r15, r19
    1ada:	bc f0       	brlt	.+46     	; 0x1b0a <drawCircleHelper+0xa2>
    1adc:	0f 90       	pop	r0
    1ade:	0f 90       	pop	r0
    1ae0:	0f 90       	pop	r0
    1ae2:	0f 90       	pop	r0
    1ae4:	df 91       	pop	r29
    1ae6:	cf 91       	pop	r28
    1ae8:	1f 91       	pop	r17
    1aea:	0f 91       	pop	r16
    1aec:	ff 90       	pop	r15
    1aee:	ef 90       	pop	r14
    1af0:	df 90       	pop	r13
    1af2:	cf 90       	pop	r12
    1af4:	bf 90       	pop	r11
    1af6:	af 90       	pop	r10
    1af8:	9f 90       	pop	r9
    1afa:	8f 90       	pop	r8
    1afc:	7f 90       	pop	r7
    1afe:	6f 90       	pop	r6
    1b00:	5f 90       	pop	r5
    1b02:	4f 90       	pop	r4
    1b04:	3f 90       	pop	r3
    1b06:	2f 90       	pop	r2
    1b08:	08 95       	ret
    1b0a:	97 fc       	sbrc	r9, 7
    1b0c:	0a c0       	rjmp	.+20     	; 0x1b22 <drawCircleHelper+0xba>
    1b0e:	8b 81       	ldd	r24, Y+3	; 0x03
    1b10:	9c 81       	ldd	r25, Y+4	; 0x04
    1b12:	01 97       	sbiw	r24, 0x01	; 1
    1b14:	9c 83       	std	Y+4, r25	; 0x04
    1b16:	8b 83       	std	Y+3, r24	; 0x03
    1b18:	92 e0       	ldi	r25, 0x02	; 2
    1b1a:	69 0e       	add	r6, r25
    1b1c:	71 1c       	adc	r7, r1
    1b1e:	86 0c       	add	r8, r6
    1b20:	97 1c       	adc	r9, r7
    1b22:	2f ef       	ldi	r18, 0xFF	; 255
    1b24:	e2 1a       	sub	r14, r18
    1b26:	f2 0a       	sbc	r15, r18
    1b28:	32 e0       	ldi	r19, 0x02	; 2
    1b2a:	43 0e       	add	r4, r19
    1b2c:	51 1c       	adc	r5, r1
    1b2e:	84 0c       	add	r8, r4
    1b30:	95 1c       	adc	r9, r5
    1b32:	49 81       	ldd	r20, Y+1	; 0x01
    1b34:	44 23       	and	r20, r20
    1b36:	a1 f0       	breq	.+40     	; 0x1b60 <drawCircleHelper+0xf8>
    1b38:	a8 01       	movw	r20, r16
    1b3a:	6b 81       	ldd	r22, Y+3	; 0x03
    1b3c:	7c 81       	ldd	r23, Y+4	; 0x04
    1b3e:	6a 0d       	add	r22, r10
    1b40:	7b 1d       	adc	r23, r11
    1b42:	c6 01       	movw	r24, r12
    1b44:	8e 0d       	add	r24, r14
    1b46:	9f 1d       	adc	r25, r15
    1b48:	0e 94 ff 0b 	call	0x17fe	; 0x17fe <drawPixel>
    1b4c:	a8 01       	movw	r20, r16
    1b4e:	b5 01       	movw	r22, r10
    1b50:	6e 0d       	add	r22, r14
    1b52:	7f 1d       	adc	r23, r15
    1b54:	8b 81       	ldd	r24, Y+3	; 0x03
    1b56:	9c 81       	ldd	r25, Y+4	; 0x04
    1b58:	8c 0d       	add	r24, r12
    1b5a:	9d 1d       	adc	r25, r13
    1b5c:	0e 94 ff 0b 	call	0x17fe	; 0x17fe <drawPixel>
    1b60:	5a 81       	ldd	r21, Y+2	; 0x02
    1b62:	55 23       	and	r21, r21
    1b64:	a9 f0       	breq	.+42     	; 0x1b90 <drawCircleHelper+0x128>
    1b66:	a8 01       	movw	r20, r16
    1b68:	b5 01       	movw	r22, r10
    1b6a:	8b 81       	ldd	r24, Y+3	; 0x03
    1b6c:	9c 81       	ldd	r25, Y+4	; 0x04
    1b6e:	68 1b       	sub	r22, r24
    1b70:	79 0b       	sbc	r23, r25
    1b72:	c6 01       	movw	r24, r12
    1b74:	8e 0d       	add	r24, r14
    1b76:	9f 1d       	adc	r25, r15
    1b78:	0e 94 ff 0b 	call	0x17fe	; 0x17fe <drawPixel>
    1b7c:	a8 01       	movw	r20, r16
    1b7e:	b5 01       	movw	r22, r10
    1b80:	6e 19       	sub	r22, r14
    1b82:	7f 09       	sbc	r23, r15
    1b84:	8b 81       	ldd	r24, Y+3	; 0x03
    1b86:	9c 81       	ldd	r25, Y+4	; 0x04
    1b88:	8c 0d       	add	r24, r12
    1b8a:	9d 1d       	adc	r25, r13
    1b8c:	0e 94 ff 0b 	call	0x17fe	; 0x17fe <drawPixel>
    1b90:	22 20       	and	r2, r2
    1b92:	a9 f0       	breq	.+42     	; 0x1bbe <drawCircleHelper+0x156>
    1b94:	a8 01       	movw	r20, r16
    1b96:	b5 01       	movw	r22, r10
    1b98:	6e 0d       	add	r22, r14
    1b9a:	7f 1d       	adc	r23, r15
    1b9c:	c6 01       	movw	r24, r12
    1b9e:	2b 81       	ldd	r18, Y+3	; 0x03
    1ba0:	3c 81       	ldd	r19, Y+4	; 0x04
    1ba2:	82 1b       	sub	r24, r18
    1ba4:	93 0b       	sbc	r25, r19
    1ba6:	0e 94 ff 0b 	call	0x17fe	; 0x17fe <drawPixel>
    1baa:	a8 01       	movw	r20, r16
    1bac:	6b 81       	ldd	r22, Y+3	; 0x03
    1bae:	7c 81       	ldd	r23, Y+4	; 0x04
    1bb0:	6a 0d       	add	r22, r10
    1bb2:	7b 1d       	adc	r23, r11
    1bb4:	c6 01       	movw	r24, r12
    1bb6:	8e 19       	sub	r24, r14
    1bb8:	9f 09       	sbc	r25, r15
    1bba:	0e 94 ff 0b 	call	0x17fe	; 0x17fe <drawPixel>
    1bbe:	33 20       	and	r3, r3
    1bc0:	09 f4       	brne	.+2      	; 0x1bc4 <drawCircleHelper+0x15c>
    1bc2:	87 cf       	rjmp	.-242    	; 0x1ad2 <drawCircleHelper+0x6a>
    1bc4:	a8 01       	movw	r20, r16
    1bc6:	b5 01       	movw	r22, r10
    1bc8:	6e 19       	sub	r22, r14
    1bca:	7f 09       	sbc	r23, r15
    1bcc:	c6 01       	movw	r24, r12
    1bce:	2b 81       	ldd	r18, Y+3	; 0x03
    1bd0:	3c 81       	ldd	r19, Y+4	; 0x04
    1bd2:	82 1b       	sub	r24, r18
    1bd4:	93 0b       	sbc	r25, r19
    1bd6:	0e 94 ff 0b 	call	0x17fe	; 0x17fe <drawPixel>
    1bda:	a8 01       	movw	r20, r16
    1bdc:	b5 01       	movw	r22, r10
    1bde:	8b 81       	ldd	r24, Y+3	; 0x03
    1be0:	9c 81       	ldd	r25, Y+4	; 0x04
    1be2:	68 1b       	sub	r22, r24
    1be4:	79 0b       	sbc	r23, r25
    1be6:	c6 01       	movw	r24, r12
    1be8:	8e 19       	sub	r24, r14
    1bea:	9f 09       	sbc	r25, r15
    1bec:	0e 94 ff 0b 	call	0x17fe	; 0x17fe <drawPixel>
    1bf0:	70 cf       	rjmp	.-288    	; 0x1ad2 <drawCircleHelper+0x6a>

00001bf2 <drawRoundRect>:
    1bf2:	2f 92       	push	r2
    1bf4:	3f 92       	push	r3
    1bf6:	4f 92       	push	r4
    1bf8:	5f 92       	push	r5
    1bfa:	6f 92       	push	r6
    1bfc:	7f 92       	push	r7
    1bfe:	8f 92       	push	r8
    1c00:	9f 92       	push	r9
    1c02:	af 92       	push	r10
    1c04:	bf 92       	push	r11
    1c06:	cf 92       	push	r12
    1c08:	df 92       	push	r13
    1c0a:	ef 92       	push	r14
    1c0c:	ff 92       	push	r15
    1c0e:	0f 93       	push	r16
    1c10:	1f 93       	push	r17
    1c12:	cf 93       	push	r28
    1c14:	df 93       	push	r29
    1c16:	5c 01       	movw	r10, r24
    1c18:	6b 01       	movw	r12, r22
    1c1a:	2a 01       	movw	r4, r20
    1c1c:	39 01       	movw	r6, r18
    1c1e:	e8 01       	movw	r28, r16
    1c20:	8a 01       	movw	r16, r20
    1c22:	0c 1b       	sub	r16, r28
    1c24:	1d 0b       	sbc	r17, r29
    1c26:	0c 1b       	sub	r16, r28
    1c28:	1d 0b       	sbc	r17, r29
    1c2a:	4e 01       	movw	r8, r28
    1c2c:	88 0e       	add	r8, r24
    1c2e:	99 1e       	adc	r9, r25
    1c30:	97 01       	movw	r18, r14
    1c32:	a8 01       	movw	r20, r16
    1c34:	c4 01       	movw	r24, r8
    1c36:	0e 94 e7 0b 	call	0x17ce	; 0x17ce <drawFastHLine>
    1c3a:	16 01       	movw	r2, r12
    1c3c:	26 0c       	add	r2, r6
    1c3e:	37 1c       	adc	r3, r7
    1c40:	b1 01       	movw	r22, r2
    1c42:	61 50       	subi	r22, 0x01	; 1
    1c44:	71 09       	sbc	r23, r1
    1c46:	97 01       	movw	r18, r14
    1c48:	a8 01       	movw	r20, r16
    1c4a:	c4 01       	movw	r24, r8
    1c4c:	0e 94 e7 0b 	call	0x17ce	; 0x17ce <drawFastHLine>
    1c50:	6c 1a       	sub	r6, r28
    1c52:	7d 0a       	sbc	r7, r29
    1c54:	6c 1a       	sub	r6, r28
    1c56:	7d 0a       	sbc	r7, r29
    1c58:	cc 0e       	add	r12, r28
    1c5a:	dd 1e       	adc	r13, r29
    1c5c:	97 01       	movw	r18, r14
    1c5e:	a3 01       	movw	r20, r6
    1c60:	b6 01       	movw	r22, r12
    1c62:	c5 01       	movw	r24, r10
    1c64:	0e 94 1f 0b 	call	0x163e	; 0x163e <drawFastVLine>
    1c68:	a4 0c       	add	r10, r4
    1c6a:	b5 1c       	adc	r11, r5
    1c6c:	97 01       	movw	r18, r14
    1c6e:	a3 01       	movw	r20, r6
    1c70:	b6 01       	movw	r22, r12
    1c72:	c5 01       	movw	r24, r10
    1c74:	01 97       	sbiw	r24, 0x01	; 1
    1c76:	0e 94 1f 0b 	call	0x163e	; 0x163e <drawFastVLine>
    1c7a:	87 01       	movw	r16, r14
    1c7c:	21 e0       	ldi	r18, 0x01	; 1
    1c7e:	ae 01       	movw	r20, r28
    1c80:	b6 01       	movw	r22, r12
    1c82:	c4 01       	movw	r24, r8
    1c84:	0e 94 34 0d 	call	0x1a68	; 0x1a68 <drawCircleHelper>
    1c88:	ac 1a       	sub	r10, r28
    1c8a:	bd 0a       	sbc	r11, r29
    1c8c:	81 e0       	ldi	r24, 0x01	; 1
    1c8e:	a8 1a       	sub	r10, r24
    1c90:	b1 08       	sbc	r11, r1
    1c92:	22 e0       	ldi	r18, 0x02	; 2
    1c94:	ae 01       	movw	r20, r28
    1c96:	b6 01       	movw	r22, r12
    1c98:	c5 01       	movw	r24, r10
    1c9a:	0e 94 34 0d 	call	0x1a68	; 0x1a68 <drawCircleHelper>
    1c9e:	2c 1a       	sub	r2, r28
    1ca0:	3d 0a       	sbc	r3, r29
    1ca2:	81 e0       	ldi	r24, 0x01	; 1
    1ca4:	28 1a       	sub	r2, r24
    1ca6:	31 08       	sbc	r3, r1
    1ca8:	24 e0       	ldi	r18, 0x04	; 4
    1caa:	ae 01       	movw	r20, r28
    1cac:	b1 01       	movw	r22, r2
    1cae:	c5 01       	movw	r24, r10
    1cb0:	0e 94 34 0d 	call	0x1a68	; 0x1a68 <drawCircleHelper>
    1cb4:	28 e0       	ldi	r18, 0x08	; 8
    1cb6:	ae 01       	movw	r20, r28
    1cb8:	b1 01       	movw	r22, r2
    1cba:	c4 01       	movw	r24, r8
    1cbc:	0e 94 34 0d 	call	0x1a68	; 0x1a68 <drawCircleHelper>
    1cc0:	df 91       	pop	r29
    1cc2:	cf 91       	pop	r28
    1cc4:	1f 91       	pop	r17
    1cc6:	0f 91       	pop	r16
    1cc8:	ff 90       	pop	r15
    1cca:	ef 90       	pop	r14
    1ccc:	df 90       	pop	r13
    1cce:	cf 90       	pop	r12
    1cd0:	bf 90       	pop	r11
    1cd2:	af 90       	pop	r10
    1cd4:	9f 90       	pop	r9
    1cd6:	8f 90       	pop	r8
    1cd8:	7f 90       	pop	r7
    1cda:	6f 90       	pop	r6
    1cdc:	5f 90       	pop	r5
    1cde:	4f 90       	pop	r4
    1ce0:	3f 90       	pop	r3
    1ce2:	2f 90       	pop	r2
    1ce4:	08 95       	ret

00001ce6 <fillRect>:
    1ce6:	ef 92       	push	r14
    1ce8:	ff 92       	push	r15
    1cea:	0f 93       	push	r16
    1cec:	1f 93       	push	r17
    1cee:	cf 93       	push	r28
    1cf0:	df 93       	push	r29
    1cf2:	7a 01       	movw	r14, r20
    1cf4:	e9 01       	movw	r28, r18
    1cf6:	40 91 03 01 	lds	r20, 0x0103	; 0x800103 <X_SIZE>
    1cfa:	50 91 04 01 	lds	r21, 0x0104	; 0x800104 <X_SIZE+0x1>
    1cfe:	48 17       	cp	r20, r24
    1d00:	59 07       	cpc	r21, r25
    1d02:	80 f1       	brcs	.+96     	; 0x1d64 <fillRect+0x7e>
    1d04:	20 91 01 01 	lds	r18, 0x0101	; 0x800101 <Y_SIZE>
    1d08:	30 91 02 01 	lds	r19, 0x0102	; 0x800102 <Y_SIZE+0x1>
    1d0c:	26 17       	cp	r18, r22
    1d0e:	37 07       	cpc	r19, r23
    1d10:	48 f1       	brcs	.+82     	; 0x1d64 <fillRect+0x7e>
    1d12:	e1 14       	cp	r14, r1
    1d14:	f1 04       	cpc	r15, r1
    1d16:	31 f1       	breq	.+76     	; 0x1d64 <fillRect+0x7e>
    1d18:	20 97       	sbiw	r28, 0x00	; 0
    1d1a:	21 f1       	breq	.+72     	; 0x1d64 <fillRect+0x7e>
    1d1c:	fc 01       	movw	r30, r24
    1d1e:	ee 0d       	add	r30, r14
    1d20:	ff 1d       	adc	r31, r15
    1d22:	31 97       	sbiw	r30, 0x01	; 1
    1d24:	4e 17       	cp	r20, r30
    1d26:	5f 07       	cpc	r21, r31
    1d28:	18 f4       	brcc	.+6      	; 0x1d30 <fillRect+0x4a>
    1d2a:	7a 01       	movw	r14, r20
    1d2c:	e8 1a       	sub	r14, r24
    1d2e:	f9 0a       	sbc	r15, r25
    1d30:	ab 01       	movw	r20, r22
    1d32:	4c 0f       	add	r20, r28
    1d34:	5d 1f       	adc	r21, r29
    1d36:	41 50       	subi	r20, 0x01	; 1
    1d38:	51 09       	sbc	r21, r1
    1d3a:	24 17       	cp	r18, r20
    1d3c:	35 07       	cpc	r19, r21
    1d3e:	18 f4       	brcc	.+6      	; 0x1d46 <fillRect+0x60>
    1d40:	e9 01       	movw	r28, r18
    1d42:	c6 1b       	sub	r28, r22
    1d44:	d7 0b       	sbc	r29, r23
    1d46:	9e 01       	movw	r18, r28
    1d48:	26 0f       	add	r18, r22
    1d4a:	37 1f       	adc	r19, r23
    1d4c:	21 50       	subi	r18, 0x01	; 1
    1d4e:	31 09       	sbc	r19, r1
    1d50:	a7 01       	movw	r20, r14
    1d52:	48 0f       	add	r20, r24
    1d54:	59 1f       	adc	r21, r25
    1d56:	41 50       	subi	r20, 0x01	; 1
    1d58:	51 09       	sbc	r21, r1
    1d5a:	0e 94 54 08 	call	0x10a8	; 0x10a8 <ILI9341_Set_Address>
    1d5e:	21 97       	sbiw	r28, 0x01	; 1
    1d60:	40 f4       	brcc	.+16     	; 0x1d72 <fillRect+0x8c>
    1d62:	c0 9a       	sbi	0x18, 0	; 24
    1d64:	df 91       	pop	r29
    1d66:	cf 91       	pop	r28
    1d68:	1f 91       	pop	r17
    1d6a:	0f 91       	pop	r16
    1d6c:	ff 90       	pop	r15
    1d6e:	ef 90       	pop	r14
    1d70:	08 95       	ret
    1d72:	b7 01       	movw	r22, r14
    1d74:	c8 01       	movw	r24, r16
    1d76:	0e 94 b3 06 	call	0xd66	; 0xd66 <spiWrite16>
    1d7a:	f1 cf       	rjmp	.-30     	; 0x1d5e <fillRect+0x78>

00001d7c <fillRoundRect>:
    1d7c:	2f 92       	push	r2
    1d7e:	3f 92       	push	r3
    1d80:	4f 92       	push	r4
    1d82:	5f 92       	push	r5
    1d84:	6f 92       	push	r6
    1d86:	7f 92       	push	r7
    1d88:	8f 92       	push	r8
    1d8a:	9f 92       	push	r9
    1d8c:	af 92       	push	r10
    1d8e:	bf 92       	push	r11
    1d90:	cf 92       	push	r12
    1d92:	df 92       	push	r13
    1d94:	ef 92       	push	r14
    1d96:	ff 92       	push	r15
    1d98:	0f 93       	push	r16
    1d9a:	1f 93       	push	r17
    1d9c:	cf 93       	push	r28
    1d9e:	df 93       	push	r29
    1da0:	1c 01       	movw	r2, r24
    1da2:	5b 01       	movw	r10, r22
    1da4:	2a 01       	movw	r4, r20
    1da6:	69 01       	movw	r12, r18
    1da8:	e8 01       	movw	r28, r16
    1daa:	38 01       	movw	r6, r16
    1dac:	68 0e       	add	r6, r24
    1dae:	79 1e       	adc	r7, r25
    1db0:	40 1b       	sub	r20, r16
    1db2:	51 0b       	sbc	r21, r17
    1db4:	40 1b       	sub	r20, r16
    1db6:	51 0b       	sbc	r21, r17
    1db8:	87 01       	movw	r16, r14
    1dba:	c3 01       	movw	r24, r6
    1dbc:	0e 94 73 0e 	call	0x1ce6	; 0x1ce6 <fillRect>
    1dc0:	cc 1a       	sub	r12, r28
    1dc2:	dd 0a       	sbc	r13, r29
    1dc4:	cc 1a       	sub	r12, r28
    1dc6:	dd 0a       	sbc	r13, r29
    1dc8:	81 e0       	ldi	r24, 0x01	; 1
    1dca:	c8 1a       	sub	r12, r24
    1dcc:	d1 08       	sbc	r13, r1
    1dce:	ac 0e       	add	r10, r28
    1dd0:	bd 1e       	adc	r11, r29
    1dd2:	42 0c       	add	r4, r2
    1dd4:	53 1c       	adc	r5, r3
    1dd6:	c2 01       	movw	r24, r4
    1dd8:	8c 1b       	sub	r24, r28
    1dda:	9d 0b       	sbc	r25, r29
    1ddc:	86 01       	movw	r16, r12
    1dde:	21 e0       	ldi	r18, 0x01	; 1
    1de0:	ae 01       	movw	r20, r28
    1de2:	b5 01       	movw	r22, r10
    1de4:	01 97       	sbiw	r24, 0x01	; 1
    1de6:	0e 94 37 0b 	call	0x166e	; 0x166e <fillCircleHelper>
    1dea:	22 e0       	ldi	r18, 0x02	; 2
    1dec:	ae 01       	movw	r20, r28
    1dee:	b5 01       	movw	r22, r10
    1df0:	c3 01       	movw	r24, r6
    1df2:	0e 94 37 0b 	call	0x166e	; 0x166e <fillCircleHelper>
    1df6:	df 91       	pop	r29
    1df8:	cf 91       	pop	r28
    1dfa:	1f 91       	pop	r17
    1dfc:	0f 91       	pop	r16
    1dfe:	ff 90       	pop	r15
    1e00:	ef 90       	pop	r14
    1e02:	df 90       	pop	r13
    1e04:	cf 90       	pop	r12
    1e06:	bf 90       	pop	r11
    1e08:	af 90       	pop	r10
    1e0a:	9f 90       	pop	r9
    1e0c:	8f 90       	pop	r8
    1e0e:	7f 90       	pop	r7
    1e10:	6f 90       	pop	r6
    1e12:	5f 90       	pop	r5
    1e14:	4f 90       	pop	r4
    1e16:	3f 90       	pop	r3
    1e18:	2f 90       	pop	r2
    1e1a:	08 95       	ret

00001e1c <ILI9341_FillTriangle>:
    1e1c:	2f 92       	push	r2
    1e1e:	3f 92       	push	r3
    1e20:	4f 92       	push	r4
    1e22:	5f 92       	push	r5
    1e24:	6f 92       	push	r6
    1e26:	7f 92       	push	r7
    1e28:	8f 92       	push	r8
    1e2a:	9f 92       	push	r9
    1e2c:	af 92       	push	r10
    1e2e:	bf 92       	push	r11
    1e30:	cf 92       	push	r12
    1e32:	df 92       	push	r13
    1e34:	ef 92       	push	r14
    1e36:	ff 92       	push	r15
    1e38:	0f 93       	push	r16
    1e3a:	1f 93       	push	r17
    1e3c:	cf 93       	push	r28
    1e3e:	df 93       	push	r29
    1e40:	cd b7       	in	r28, 0x3d	; 61
    1e42:	de b7       	in	r29, 0x3e	; 62
    1e44:	a5 97       	sbiw	r28, 0x25	; 37
    1e46:	0f b6       	in	r0, 0x3f	; 63
    1e48:	f8 94       	cli
    1e4a:	de bf       	out	0x3e, r29	; 62
    1e4c:	0f be       	out	0x3f, r0	; 63
    1e4e:	cd bf       	out	0x3d, r28	; 61
    1e50:	d9 86       	std	Y+9, r13	; 0x09
    1e52:	c8 86       	std	Y+8, r12	; 0x08
    1e54:	fb 01       	movw	r30, r22
    1e56:	9d a3       	std	Y+37, r25	; 0x25
    1e58:	8c a3       	std	Y+36, r24	; 0x24
    1e5a:	69 01       	movw	r12, r18
    1e5c:	1a 01       	movw	r2, r20
    1e5e:	d7 01       	movw	r26, r14
    1e60:	1a 83       	std	Y+2, r17	; 0x02
    1e62:	09 83       	std	Y+1, r16	; 0x01
    1e64:	48 17       	cp	r20, r24
    1e66:	59 07       	cpc	r21, r25
    1e68:	0c f0       	brlt	.+2      	; 0x1e6c <ILI9341_FillTriangle+0x50>
    1e6a:	48 c1       	rjmp	.+656    	; 0x20fc <ILI9341_FillTriangle+0x2e0>
    1e6c:	08 17       	cp	r16, r24
    1e6e:	19 07       	cpc	r17, r25
    1e70:	0c f0       	brlt	.+2      	; 0x1e74 <ILI9341_FillTriangle+0x58>
    1e72:	85 c0       	rjmp	.+266    	; 0x1f7e <ILI9341_FillTriangle+0x162>
    1e74:	1c 01       	movw	r2, r24
    1e76:	5d a3       	std	Y+37, r21	; 0x25
    1e78:	4c a3       	std	Y+36, r20	; 0x24
    1e7a:	6b 01       	movw	r12, r22
    1e7c:	f9 01       	movw	r30, r18
    1e7e:	a9 80       	ldd	r10, Y+1	; 0x01
    1e80:	ba 80       	ldd	r11, Y+2	; 0x02
    1e82:	2c a1       	ldd	r18, Y+36	; 0x24
    1e84:	3d a1       	ldd	r19, Y+37	; 0x25
    1e86:	a2 16       	cp	r10, r18
    1e88:	b3 06       	cpc	r11, r19
    1e8a:	0c f4       	brge	.+2      	; 0x1e8e <ILI9341_FillTriangle+0x72>
    1e8c:	7f c0       	rjmp	.+254    	; 0x1f8c <ILI9341_FillTriangle+0x170>
    1e8e:	7c a1       	ldd	r23, Y+36	; 0x24
    1e90:	6d a1       	ldd	r22, Y+37	; 0x25
    1e92:	8e 2f       	mov	r24, r30
    1e94:	2f 2f       	mov	r18, r31
    1e96:	1d a3       	std	Y+37, r17	; 0x25
    1e98:	0c a3       	std	Y+36, r16	; 0x24
    1e9a:	f7 01       	movw	r30, r14
    1e9c:	d6 01       	movw	r26, r12
    1e9e:	3a 82       	std	Y+2, r3	; 0x02
    1ea0:	29 82       	std	Y+1, r2	; 0x01
    1ea2:	2c a0       	ldd	r2, Y+36	; 0x24
    1ea4:	3d a0       	ldd	r3, Y+37	; 0x25
    1ea6:	6f 01       	movw	r12, r30
    1ea8:	7c a3       	std	Y+36, r23	; 0x24
    1eaa:	6d a3       	std	Y+37, r22	; 0x25
    1eac:	e8 2f       	mov	r30, r24
    1eae:	f2 2f       	mov	r31, r18
    1eb0:	6c a0       	ldd	r6, Y+36	; 0x24
    1eb2:	7d a0       	ldd	r7, Y+37	; 0x25
    1eb4:	21 01       	movw	r4, r2
    1eb6:	46 18       	sub	r4, r6
    1eb8:	57 08       	sbc	r5, r7
    1eba:	a9 80       	ldd	r10, Y+1	; 0x01
    1ebc:	ba 80       	ldd	r11, Y+2	; 0x02
    1ebe:	a2 18       	sub	r10, r2
    1ec0:	b3 08       	sbc	r11, r3
    1ec2:	bb 86       	std	Y+11, r11	; 0x0b
    1ec4:	aa 86       	std	Y+10, r10	; 0x0a
    1ec6:	29 81       	ldd	r18, Y+1	; 0x01
    1ec8:	3a 81       	ldd	r19, Y+2	; 0x02
    1eca:	26 19       	sub	r18, r6
    1ecc:	37 09       	sbc	r19, r7
    1ece:	a9 01       	movw	r20, r18
    1ed0:	33 0f       	add	r19, r19
    1ed2:	66 0b       	sbc	r22, r22
    1ed4:	77 0b       	sbc	r23, r23
    1ed6:	4c 87       	std	Y+12, r20	; 0x0c
    1ed8:	5d 87       	std	Y+13, r21	; 0x0d
    1eda:	6e 87       	std	Y+14, r22	; 0x0e
    1edc:	7f 87       	std	Y+15, r23	; 0x0f
    1ede:	bf 01       	movw	r22, r30
    1ee0:	0f 2e       	mov	r0, r31
    1ee2:	00 0c       	add	r0, r0
    1ee4:	88 0b       	sbc	r24, r24
    1ee6:	99 0b       	sbc	r25, r25
    1ee8:	68 8b       	std	Y+16, r22	; 0x10
    1eea:	79 8b       	std	Y+17, r23	; 0x11
    1eec:	8a 8b       	std	Y+18, r24	; 0x12
    1eee:	9b 8b       	std	Y+19, r25	; 0x13
    1ef0:	9d 01       	movw	r18, r26
    1ef2:	2e 1b       	sub	r18, r30
    1ef4:	3f 0b       	sbc	r19, r31
    1ef6:	a9 01       	movw	r20, r18
    1ef8:	33 0f       	add	r19, r19
    1efa:	66 0b       	sbc	r22, r22
    1efc:	77 0b       	sbc	r23, r23
    1efe:	4c 8b       	std	Y+20, r20	; 0x14
    1f00:	5d 8b       	std	Y+21, r21	; 0x15
    1f02:	6e 8b       	std	Y+22, r22	; 0x16
    1f04:	7f 8b       	std	Y+23, r23	; 0x17
    1f06:	96 01       	movw	r18, r12
    1f08:	2e 1b       	sub	r18, r30
    1f0a:	3f 0b       	sbc	r19, r31
    1f0c:	b9 01       	movw	r22, r18
    1f0e:	33 0f       	add	r19, r19
    1f10:	88 0b       	sbc	r24, r24
    1f12:	99 0b       	sbc	r25, r25
    1f14:	68 8f       	std	Y+24, r22	; 0x18
    1f16:	79 8f       	std	Y+25, r23	; 0x19
    1f18:	8a 8f       	std	Y+26, r24	; 0x1a
    1f1a:	9b 8f       	std	Y+27, r25	; 0x1b
    1f1c:	ad 01       	movw	r20, r26
    1f1e:	4c 19       	sub	r20, r12
    1f20:	5d 09       	sbc	r21, r13
    1f22:	ca 01       	movw	r24, r20
    1f24:	55 0f       	add	r21, r21
    1f26:	aa 0b       	sbc	r26, r26
    1f28:	bb 0b       	sbc	r27, r27
    1f2a:	8c 8f       	std	Y+28, r24	; 0x1c
    1f2c:	9d 8f       	std	Y+29, r25	; 0x1d
    1f2e:	ae 8f       	std	Y+30, r26	; 0x1e
    1f30:	bf 8f       	std	Y+31, r27	; 0x1f
    1f32:	96 01       	movw	r18, r12
    1f34:	dd 0c       	add	r13, r13
    1f36:	44 0b       	sbc	r20, r20
    1f38:	55 0b       	sbc	r21, r21
    1f3a:	28 a3       	std	Y+32, r18	; 0x20
    1f3c:	39 a3       	std	Y+33, r19	; 0x21
    1f3e:	4a a3       	std	Y+34, r20	; 0x22
    1f40:	5b a3       	std	Y+35, r21	; 0x23
    1f42:	a9 80       	ldd	r10, Y+1	; 0x01
    1f44:	ba 80       	ldd	r11, Y+2	; 0x02
    1f46:	a6 14       	cp	r10, r6
    1f48:	b7 04       	cpc	r11, r7
    1f4a:	7c f5       	brge	.+94     	; 0x1faa <ILI9341_FillTriangle+0x18e>
    1f4c:	a5 96       	adiw	r28, 0x25	; 37
    1f4e:	0f b6       	in	r0, 0x3f	; 63
    1f50:	f8 94       	cli
    1f52:	de bf       	out	0x3e, r29	; 62
    1f54:	0f be       	out	0x3f, r0	; 63
    1f56:	cd bf       	out	0x3d, r28	; 61
    1f58:	df 91       	pop	r29
    1f5a:	cf 91       	pop	r28
    1f5c:	1f 91       	pop	r17
    1f5e:	0f 91       	pop	r16
    1f60:	ff 90       	pop	r15
    1f62:	ef 90       	pop	r14
    1f64:	df 90       	pop	r13
    1f66:	cf 90       	pop	r12
    1f68:	bf 90       	pop	r11
    1f6a:	af 90       	pop	r10
    1f6c:	9f 90       	pop	r9
    1f6e:	8f 90       	pop	r8
    1f70:	7f 90       	pop	r7
    1f72:	6f 90       	pop	r6
    1f74:	5f 90       	pop	r5
    1f76:	4f 90       	pop	r4
    1f78:	3f 90       	pop	r3
    1f7a:	2f 90       	pop	r2
    1f7c:	08 95       	ret
    1f7e:	74 2f       	mov	r23, r20
    1f80:	65 2f       	mov	r22, r21
    1f82:	82 2f       	mov	r24, r18
    1f84:	23 2f       	mov	r18, r19
    1f86:	67 01       	movw	r12, r14
    1f88:	18 01       	movw	r2, r16
    1f8a:	88 cf       	rjmp	.-240    	; 0x1e9c <ILI9341_FillTriangle+0x80>
    1f8c:	3c a1       	ldd	r19, Y+36	; 0x24
    1f8e:	2d a1       	ldd	r18, Y+37	; 0x25
    1f90:	1d a3       	std	Y+37, r17	; 0x25
    1f92:	0c a3       	std	Y+36, r16	; 0x24
    1f94:	3a 82       	std	Y+2, r3	; 0x02
    1f96:	29 82       	std	Y+1, r2	; 0x01
    1f98:	23 2e       	mov	r2, r19
    1f9a:	32 2e       	mov	r3, r18
    1f9c:	3e 2f       	mov	r19, r30
    1f9e:	2f 2f       	mov	r18, r31
    1fa0:	f7 01       	movw	r30, r14
    1fa2:	d6 01       	movw	r26, r12
    1fa4:	c3 2e       	mov	r12, r19
    1fa6:	d2 2e       	mov	r13, r18
    1fa8:	83 cf       	rjmp	.-250    	; 0x1eb0 <ILI9341_FillTriangle+0x94>
    1faa:	26 14       	cp	r2, r6
    1fac:	37 04       	cpc	r3, r7
    1fae:	0c f4       	brge	.+2      	; 0x1fb2 <ILI9341_FillTriangle+0x196>
    1fb0:	93 c0       	rjmp	.+294    	; 0x20d8 <ILI9341_FillTriangle+0x2bc>
    1fb2:	81 e0       	ldi	r24, 0x01	; 1
    1fb4:	ac a0       	ldd	r10, Y+36	; 0x24
    1fb6:	bd a0       	ldd	r11, Y+37	; 0x25
    1fb8:	a2 14       	cp	r10, r2
    1fba:	b3 04       	cpc	r11, r3
    1fbc:	09 f0       	breq	.+2      	; 0x1fc0 <ILI9341_FillTriangle+0x1a4>
    1fbe:	80 e0       	ldi	r24, 0x00	; 0
    1fc0:	8b 83       	std	Y+3, r24	; 0x03
    1fc2:	82 01       	movw	r16, r4
    1fc4:	88 23       	and	r24, r24
    1fc6:	11 f0       	breq	.+4      	; 0x1fcc <ILI9341_FillTriangle+0x1b0>
    1fc8:	0a 85       	ldd	r16, Y+10	; 0x0a
    1fca:	1b 85       	ldd	r17, Y+11	; 0x0b
    1fcc:	b3 01       	movw	r22, r6
    1fce:	ac a0       	ldd	r10, Y+36	; 0x24
    1fd0:	bd a0       	ldd	r11, Y+37	; 0x25
    1fd2:	6a 19       	sub	r22, r10
    1fd4:	7b 09       	sbc	r23, r11
    1fd6:	07 2e       	mov	r0, r23
    1fd8:	00 0c       	add	r0, r0
    1fda:	88 0b       	sbc	r24, r24
    1fdc:	99 0b       	sbc	r25, r25
    1fde:	0e 94 44 1f 	call	0x3e88	; 0x3e88 <__floatsisf>
    1fe2:	6b 01       	movw	r12, r22
    1fe4:	7c 01       	movw	r14, r24
    1fe6:	6c 85       	ldd	r22, Y+12	; 0x0c
    1fe8:	7d 85       	ldd	r23, Y+13	; 0x0d
    1fea:	8e 85       	ldd	r24, Y+14	; 0x0e
    1fec:	9f 85       	ldd	r25, Y+15	; 0x0f
    1fee:	0e 94 44 1f 	call	0x3e88	; 0x3e88 <__floatsisf>
    1ff2:	9b 01       	movw	r18, r22
    1ff4:	ac 01       	movw	r20, r24
    1ff6:	c7 01       	movw	r24, r14
    1ff8:	b6 01       	movw	r22, r12
    1ffa:	0e 94 9a 1e 	call	0x3d34	; 0x3d34 <__divsf3>
    1ffe:	6b 01       	movw	r12, r22
    2000:	7c 01       	movw	r14, r24
    2002:	bb 80       	ldd	r11, Y+3	; 0x03
    2004:	8c a1       	ldd	r24, Y+36	; 0x24
    2006:	9d a1       	ldd	r25, Y+37	; 0x25
    2008:	b1 10       	cpse	r11, r1
    200a:	c1 01       	movw	r24, r2
    200c:	b3 01       	movw	r22, r6
    200e:	68 1b       	sub	r22, r24
    2010:	79 0b       	sbc	r23, r25
    2012:	07 2e       	mov	r0, r23
    2014:	00 0c       	add	r0, r0
    2016:	88 0b       	sbc	r24, r24
    2018:	99 0b       	sbc	r25, r25
    201a:	0e 94 44 1f 	call	0x3e88	; 0x3e88 <__floatsisf>
    201e:	4b 01       	movw	r8, r22
    2020:	5c 01       	movw	r10, r24
    2022:	b8 01       	movw	r22, r16
    2024:	11 0f       	add	r17, r17
    2026:	88 0b       	sbc	r24, r24
    2028:	99 0b       	sbc	r25, r25
    202a:	0e 94 44 1f 	call	0x3e88	; 0x3e88 <__floatsisf>
    202e:	9b 01       	movw	r18, r22
    2030:	ac 01       	movw	r20, r24
    2032:	c5 01       	movw	r24, r10
    2034:	b4 01       	movw	r22, r8
    2036:	0e 94 9a 1e 	call	0x3d34	; 0x3d34 <__divsf3>
    203a:	6c 83       	std	Y+4, r22	; 0x04
    203c:	7d 83       	std	Y+5, r23	; 0x05
    203e:	8e 83       	std	Y+6, r24	; 0x06
    2040:	9f 83       	std	Y+7, r25	; 0x07
    2042:	68 89       	ldd	r22, Y+16	; 0x10
    2044:	79 89       	ldd	r23, Y+17	; 0x11
    2046:	8a 89       	ldd	r24, Y+18	; 0x12
    2048:	9b 89       	ldd	r25, Y+19	; 0x13
    204a:	0e 94 44 1f 	call	0x3e88	; 0x3e88 <__floatsisf>
    204e:	4b 01       	movw	r8, r22
    2050:	5c 01       	movw	r10, r24
    2052:	6c 89       	ldd	r22, Y+20	; 0x14
    2054:	7d 89       	ldd	r23, Y+21	; 0x15
    2056:	8e 89       	ldd	r24, Y+22	; 0x16
    2058:	9f 89       	ldd	r25, Y+23	; 0x17
    205a:	0e 94 44 1f 	call	0x3e88	; 0x3e88 <__floatsisf>
    205e:	a7 01       	movw	r20, r14
    2060:	96 01       	movw	r18, r12
    2062:	0e 94 d0 1f 	call	0x3fa0	; 0x3fa0 <__mulsf3>
    2066:	a5 01       	movw	r20, r10
    2068:	94 01       	movw	r18, r8
    206a:	0e 94 2e 1e 	call	0x3c5c	; 0x3c5c <__addsf3>
    206e:	0e 94 0c 1f 	call	0x3e18	; 0x3e18 <__fixsfsi>
    2072:	6b 01       	movw	r12, r22
    2074:	8b 01       	movw	r16, r22
    2076:	2b 81       	ldd	r18, Y+3	; 0x03
    2078:	22 23       	and	r18, r18
    207a:	89 f1       	breq	.+98     	; 0x20de <ILI9341_FillTriangle+0x2c2>
    207c:	6c 8d       	ldd	r22, Y+28	; 0x1c
    207e:	7d 8d       	ldd	r23, Y+29	; 0x1d
    2080:	8e 8d       	ldd	r24, Y+30	; 0x1e
    2082:	9f 8d       	ldd	r25, Y+31	; 0x1f
    2084:	0e 94 44 1f 	call	0x3e88	; 0x3e88 <__floatsisf>
    2088:	2c 81       	ldd	r18, Y+4	; 0x04
    208a:	3d 81       	ldd	r19, Y+5	; 0x05
    208c:	4e 81       	ldd	r20, Y+6	; 0x06
    208e:	5f 81       	ldd	r21, Y+7	; 0x07
    2090:	0e 94 d0 1f 	call	0x3fa0	; 0x3fa0 <__mulsf3>
    2094:	4b 01       	movw	r8, r22
    2096:	5c 01       	movw	r10, r24
    2098:	68 a1       	ldd	r22, Y+32	; 0x20
    209a:	79 a1       	ldd	r23, Y+33	; 0x21
    209c:	8a a1       	ldd	r24, Y+34	; 0x22
    209e:	9b a1       	ldd	r25, Y+35	; 0x23
    20a0:	0e 94 44 1f 	call	0x3e88	; 0x3e88 <__floatsisf>
    20a4:	9b 01       	movw	r18, r22
    20a6:	ac 01       	movw	r20, r24
    20a8:	c5 01       	movw	r24, r10
    20aa:	b4 01       	movw	r22, r8
    20ac:	0e 94 2e 1e 	call	0x3c5c	; 0x3c5c <__addsf3>
    20b0:	0e 94 0c 1f 	call	0x3e18	; 0x3e18 <__fixsfsi>
    20b4:	60 17       	cp	r22, r16
    20b6:	71 07       	cpc	r23, r17
    20b8:	14 f4       	brge	.+4      	; 0x20be <ILI9341_FillTriangle+0x2a2>
    20ba:	8b 01       	movw	r16, r22
    20bc:	b6 01       	movw	r22, r12
    20be:	ab 01       	movw	r20, r22
    20c0:	40 1b       	sub	r20, r16
    20c2:	51 0b       	sbc	r21, r17
    20c4:	28 85       	ldd	r18, Y+8	; 0x08
    20c6:	39 85       	ldd	r19, Y+9	; 0x09
    20c8:	b3 01       	movw	r22, r6
    20ca:	c8 01       	movw	r24, r16
    20cc:	0e 94 e7 0b 	call	0x17ce	; 0x17ce <drawFastHLine>
    20d0:	3f ef       	ldi	r19, 0xFF	; 255
    20d2:	63 1a       	sub	r6, r19
    20d4:	73 0a       	sbc	r7, r19
    20d6:	35 cf       	rjmp	.-406    	; 0x1f42 <ILI9341_FillTriangle+0x126>
    20d8:	21 e0       	ldi	r18, 0x01	; 1
    20da:	2b 83       	std	Y+3, r18	; 0x03
    20dc:	75 cf       	rjmp	.-278    	; 0x1fc8 <ILI9341_FillTriangle+0x1ac>
    20de:	68 8d       	ldd	r22, Y+24	; 0x18
    20e0:	79 8d       	ldd	r23, Y+25	; 0x19
    20e2:	8a 8d       	ldd	r24, Y+26	; 0x1a
    20e4:	9b 8d       	ldd	r25, Y+27	; 0x1b
    20e6:	0e 94 44 1f 	call	0x3e88	; 0x3e88 <__floatsisf>
    20ea:	2c 81       	ldd	r18, Y+4	; 0x04
    20ec:	3d 81       	ldd	r19, Y+5	; 0x05
    20ee:	4e 81       	ldd	r20, Y+6	; 0x06
    20f0:	5f 81       	ldd	r21, Y+7	; 0x07
    20f2:	0e 94 d0 1f 	call	0x3fa0	; 0x3fa0 <__mulsf3>
    20f6:	a5 01       	movw	r20, r10
    20f8:	94 01       	movw	r18, r8
    20fa:	d8 cf       	rjmp	.-80     	; 0x20ac <ILI9341_FillTriangle+0x290>
    20fc:	a9 80       	ldd	r10, Y+1	; 0x01
    20fe:	ba 80       	ldd	r11, Y+2	; 0x02
    2100:	a4 16       	cp	r10, r20
    2102:	b5 06       	cpc	r11, r21
    2104:	0c f4       	brge	.+2      	; 0x2108 <ILI9341_FillTriangle+0x2ec>
    2106:	bb ce       	rjmp	.-650    	; 0x1e7e <ILI9341_FillTriangle+0x62>
    2108:	d3 ce       	rjmp	.-602    	; 0x1eb0 <ILI9341_FillTriangle+0x94>

0000210a <fillScreen>:
    210a:	0f 93       	push	r16
    210c:	1f 93       	push	r17
    210e:	20 91 01 01 	lds	r18, 0x0101	; 0x800101 <Y_SIZE>
    2112:	30 91 02 01 	lds	r19, 0x0102	; 0x800102 <Y_SIZE+0x1>
    2116:	40 91 03 01 	lds	r20, 0x0103	; 0x800103 <X_SIZE>
    211a:	50 91 04 01 	lds	r21, 0x0104	; 0x800104 <X_SIZE+0x1>
    211e:	8c 01       	movw	r16, r24
    2120:	70 e0       	ldi	r23, 0x00	; 0
    2122:	60 e0       	ldi	r22, 0x00	; 0
    2124:	90 e0       	ldi	r25, 0x00	; 0
    2126:	80 e0       	ldi	r24, 0x00	; 0
    2128:	0e 94 73 0e 	call	0x1ce6	; 0x1ce6 <fillRect>
    212c:	1f 91       	pop	r17
    212e:	0f 91       	pop	r16
    2130:	08 95       	ret

00002132 <setTextColor>:
    2132:	90 93 19 02 	sts	0x0219, r25	; 0x800219 <textcolor+0x1>
    2136:	80 93 18 02 	sts	0x0218, r24	; 0x800218 <textcolor>
    213a:	70 93 17 02 	sts	0x0217, r23	; 0x800217 <textbgcolor+0x1>
    213e:	60 93 16 02 	sts	0x0216, r22	; 0x800216 <textbgcolor>
    2142:	08 95       	ret

00002144 <setTextSize>:
    2144:	88 30       	cpi	r24, 0x08	; 8
    2146:	30 f4       	brcc	.+12     	; 0x2154 <setTextSize+0x10>
    2148:	81 11       	cpse	r24, r1
    214a:	01 c0       	rjmp	.+2      	; 0x214e <setTextSize+0xa>
    214c:	81 e0       	ldi	r24, 0x01	; 1
    214e:	80 93 14 02 	sts	0x0214, r24	; 0x800214 <textsize>
    2152:	08 95       	ret
    2154:	87 e0       	ldi	r24, 0x07	; 7
    2156:	fb cf       	rjmp	.-10     	; 0x214e <setTextSize+0xa>

00002158 <textWidth>:
    2158:	9b 01       	movw	r18, r22
    215a:	22 50       	subi	r18, 0x02	; 2
    215c:	31 09       	sbc	r19, r1
    215e:	27 30       	cpi	r18, 0x07	; 7
    2160:	31 05       	cpc	r19, r1
    2162:	08 f5       	brcc	.+66     	; 0x21a6 <textWidth+0x4e>
    2164:	25 e0       	ldi	r18, 0x05	; 5
    2166:	26 9f       	mul	r18, r22
    2168:	f0 01       	movw	r30, r0
    216a:	27 9f       	mul	r18, r23
    216c:	f0 0d       	add	r31, r0
    216e:	11 24       	eor	r1, r1
    2170:	e2 57       	subi	r30, 0x72	; 114
    2172:	ff 4f       	sbci	r31, 0xFF	; 255
    2174:	45 91       	lpm	r20, Z+
    2176:	54 91       	lpm	r21, Z
    2178:	40 52       	subi	r20, 0x20	; 32
    217a:	51 09       	sbc	r21, r1
    217c:	dc 01       	movw	r26, r24
    217e:	30 e0       	ldi	r19, 0x00	; 0
    2180:	20 e0       	ldi	r18, 0x00	; 0
    2182:	ed 91       	ld	r30, X+
    2184:	e1 11       	cpse	r30, r1
    2186:	08 c0       	rjmp	.+16     	; 0x2198 <textWidth+0x40>
    2188:	40 91 14 02 	lds	r20, 0x0214	; 0x800214 <textsize>
    218c:	42 9f       	mul	r20, r18
    218e:	c0 01       	movw	r24, r0
    2190:	43 9f       	mul	r20, r19
    2192:	90 0d       	add	r25, r0
    2194:	11 24       	eor	r1, r1
    2196:	08 95       	ret
    2198:	e4 0f       	add	r30, r20
    219a:	f5 2f       	mov	r31, r21
    219c:	f1 1d       	adc	r31, r1
    219e:	e4 91       	lpm	r30, Z
    21a0:	2e 0f       	add	r18, r30
    21a2:	31 1d       	adc	r19, r1
    21a4:	ee cf       	rjmp	.-36     	; 0x2182 <textWidth+0x2a>
    21a6:	90 e0       	ldi	r25, 0x00	; 0
    21a8:	80 e0       	ldi	r24, 0x00	; 0
    21aa:	08 95       	ret

000021ac <drawCharGL>:
    21ac:	2f 92       	push	r2
    21ae:	3f 92       	push	r3
    21b0:	4f 92       	push	r4
    21b2:	5f 92       	push	r5
    21b4:	6f 92       	push	r6
    21b6:	7f 92       	push	r7
    21b8:	8f 92       	push	r8
    21ba:	9f 92       	push	r9
    21bc:	af 92       	push	r10
    21be:	bf 92       	push	r11
    21c0:	cf 92       	push	r12
    21c2:	df 92       	push	r13
    21c4:	ef 92       	push	r14
    21c6:	ff 92       	push	r15
    21c8:	0f 93       	push	r16
    21ca:	1f 93       	push	r17
    21cc:	cf 93       	push	r28
    21ce:	df 93       	push	r29
    21d0:	00 d0       	rcall	.+0      	; 0x21d2 <drawCharGL+0x26>
    21d2:	00 d0       	rcall	.+0      	; 0x21d4 <drawCharGL+0x28>
    21d4:	00 d0       	rcall	.+0      	; 0x21d6 <drawCharGL+0x2a>
    21d6:	cd b7       	in	r28, 0x3d	; 61
    21d8:	de b7       	in	r29, 0x3e	; 62
    21da:	e0 91 03 01 	lds	r30, 0x0103	; 0x800103 <X_SIZE>
    21de:	f0 91 04 01 	lds	r31, 0x0104	; 0x800104 <X_SIZE+0x1>
    21e2:	8e 17       	cp	r24, r30
    21e4:	9f 07       	cpc	r25, r31
    21e6:	0c f0       	brlt	.+2      	; 0x21ea <drawCharGL+0x3e>
    21e8:	68 c0       	rjmp	.+208    	; 0x22ba <drawCharGL+0x10e>
    21ea:	e0 91 01 01 	lds	r30, 0x0101	; 0x800101 <Y_SIZE>
    21ee:	f0 91 02 01 	lds	r31, 0x0102	; 0x800102 <Y_SIZE+0x1>
    21f2:	6e 17       	cp	r22, r30
    21f4:	7f 07       	cpc	r23, r31
    21f6:	0c f0       	brlt	.+2      	; 0x21fa <drawCharGL+0x4e>
    21f8:	60 c0       	rjmp	.+192    	; 0x22ba <drawCharGL+0x10e>
    21fa:	ce 2c       	mov	r12, r14
    21fc:	d1 2c       	mov	r13, r1
    21fe:	fc 01       	movw	r30, r24
    2200:	56 e0       	ldi	r21, 0x06	; 6
    2202:	e5 9e       	mul	r14, r21
    2204:	e0 0d       	add	r30, r0
    2206:	f1 1d       	adc	r31, r1
    2208:	11 24       	eor	r1, r1
    220a:	1e 16       	cp	r1, r30
    220c:	1f 06       	cpc	r1, r31
    220e:	0c f0       	brlt	.+2      	; 0x2212 <drawCharGL+0x66>
    2210:	54 c0       	rjmp	.+168    	; 0x22ba <drawCharGL+0x10e>
    2212:	f6 01       	movw	r30, r12
    2214:	53 e0       	ldi	r21, 0x03	; 3
    2216:	ee 0f       	add	r30, r30
    2218:	ff 1f       	adc	r31, r31
    221a:	5a 95       	dec	r21
    221c:	e1 f7       	brne	.-8      	; 0x2216 <drawCharGL+0x6a>
    221e:	e6 0f       	add	r30, r22
    2220:	f7 1f       	adc	r31, r23
    2222:	1e 16       	cp	r1, r30
    2224:	1f 06       	cpc	r1, r31
    2226:	0c f0       	brlt	.+2      	; 0x222a <drawCharGL+0x7e>
    2228:	48 c0       	rjmp	.+144    	; 0x22ba <drawCharGL+0x10e>
    222a:	ec 82       	std	Y+4, r14	; 0x04
    222c:	58 01       	movw	r10, r16
    222e:	79 01       	movw	r14, r18
    2230:	2b 01       	movw	r4, r22
    2232:	25 e0       	ldi	r18, 0x05	; 5
    2234:	42 9f       	mul	r20, r18
    2236:	a0 01       	movw	r20, r0
    2238:	11 24       	eor	r1, r1
    223a:	9e 83       	std	Y+6, r25	; 0x06
    223c:	8d 83       	std	Y+5, r24	; 0x05
    223e:	3c 01       	movw	r6, r24
    2240:	19 82       	std	Y+1, r1	; 0x01
    2242:	47 5e       	subi	r20, 0xE7	; 231
    2244:	57 4f       	sbci	r21, 0xF7	; 247
    2246:	9a 01       	movw	r18, r20
    2248:	28 1b       	sub	r18, r24
    224a:	39 0b       	sbc	r19, r25
    224c:	3b 83       	std	Y+3, r19	; 0x03
    224e:	2a 83       	std	Y+2, r18	; 0x02
    2250:	39 81       	ldd	r19, Y+1	; 0x01
    2252:	31 2c       	mov	r3, r1
    2254:	35 30       	cpi	r19, 0x05	; 5
    2256:	39 f0       	breq	.+14     	; 0x2266 <drawCharGL+0xba>
    2258:	ea 81       	ldd	r30, Y+2	; 0x02
    225a:	fb 81       	ldd	r31, Y+3	; 0x03
    225c:	8d 81       	ldd	r24, Y+5	; 0x05
    225e:	9e 81       	ldd	r25, Y+6	; 0x06
    2260:	e8 0f       	add	r30, r24
    2262:	f9 1f       	adc	r31, r25
    2264:	34 90       	lpm	r3, Z
    2266:	9c 81       	ldd	r25, Y+4	; 0x04
    2268:	42 01       	movw	r8, r4
    226a:	88 e0       	ldi	r24, 0x08	; 8
    226c:	28 2e       	mov	r2, r24
    226e:	91 30       	cpi	r25, 0x01	; 1
    2270:	e9 f5       	brne	.+122    	; 0x22ec <drawCharGL+0x140>
    2272:	91 2c       	mov	r9, r1
    2274:	81 2c       	mov	r8, r1
    2276:	a7 01       	movw	r20, r14
    2278:	30 fc       	sbrc	r3, 0
    227a:	04 c0       	rjmp	.+8      	; 0x2284 <drawCharGL+0xd8>
    227c:	ae 14       	cp	r10, r14
    227e:	bf 04       	cpc	r11, r15
    2280:	41 f0       	breq	.+16     	; 0x2292 <drawCharGL+0xe6>
    2282:	a5 01       	movw	r20, r10
    2284:	b2 01       	movw	r22, r4
    2286:	68 0d       	add	r22, r8
    2288:	79 1d       	adc	r23, r9
    228a:	8d 81       	ldd	r24, Y+5	; 0x05
    228c:	9e 81       	ldd	r25, Y+6	; 0x06
    228e:	0e 94 ff 0b 	call	0x17fe	; 0x17fe <drawPixel>
    2292:	36 94       	lsr	r3
    2294:	2f ef       	ldi	r18, 0xFF	; 255
    2296:	82 1a       	sub	r8, r18
    2298:	92 0a       	sbc	r9, r18
    229a:	38 e0       	ldi	r19, 0x08	; 8
    229c:	83 16       	cp	r8, r19
    229e:	91 04       	cpc	r9, r1
    22a0:	51 f7       	brne	.-44     	; 0x2276 <drawCharGL+0xca>
    22a2:	6c 0c       	add	r6, r12
    22a4:	7d 1c       	adc	r7, r13
    22a6:	8d 81       	ldd	r24, Y+5	; 0x05
    22a8:	9e 81       	ldd	r25, Y+6	; 0x06
    22aa:	01 96       	adiw	r24, 0x01	; 1
    22ac:	9e 83       	std	Y+6, r25	; 0x06
    22ae:	8d 83       	std	Y+5, r24	; 0x05
    22b0:	99 81       	ldd	r25, Y+1	; 0x01
    22b2:	9f 5f       	subi	r25, 0xFF	; 255
    22b4:	99 83       	std	Y+1, r25	; 0x01
    22b6:	96 30       	cpi	r25, 0x06	; 6
    22b8:	59 f6       	brne	.-106    	; 0x2250 <drawCharGL+0xa4>
    22ba:	26 96       	adiw	r28, 0x06	; 6
    22bc:	0f b6       	in	r0, 0x3f	; 63
    22be:	f8 94       	cli
    22c0:	de bf       	out	0x3e, r29	; 62
    22c2:	0f be       	out	0x3f, r0	; 63
    22c4:	cd bf       	out	0x3d, r28	; 61
    22c6:	df 91       	pop	r29
    22c8:	cf 91       	pop	r28
    22ca:	1f 91       	pop	r17
    22cc:	0f 91       	pop	r16
    22ce:	ff 90       	pop	r15
    22d0:	ef 90       	pop	r14
    22d2:	df 90       	pop	r13
    22d4:	cf 90       	pop	r12
    22d6:	bf 90       	pop	r11
    22d8:	af 90       	pop	r10
    22da:	9f 90       	pop	r9
    22dc:	8f 90       	pop	r8
    22de:	7f 90       	pop	r7
    22e0:	6f 90       	pop	r6
    22e2:	5f 90       	pop	r5
    22e4:	4f 90       	pop	r4
    22e6:	3f 90       	pop	r3
    22e8:	2f 90       	pop	r2
    22ea:	08 95       	ret
    22ec:	87 01       	movw	r16, r14
    22ee:	30 fc       	sbrc	r3, 0
    22f0:	04 c0       	rjmp	.+8      	; 0x22fa <drawCharGL+0x14e>
    22f2:	ae 14       	cp	r10, r14
    22f4:	bf 04       	cpc	r11, r15
    22f6:	39 f0       	breq	.+14     	; 0x2306 <drawCharGL+0x15a>
    22f8:	85 01       	movw	r16, r10
    22fa:	96 01       	movw	r18, r12
    22fc:	a6 01       	movw	r20, r12
    22fe:	b4 01       	movw	r22, r8
    2300:	c3 01       	movw	r24, r6
    2302:	0e 94 73 0e 	call	0x1ce6	; 0x1ce6 <fillRect>
    2306:	36 94       	lsr	r3
    2308:	2a 94       	dec	r2
    230a:	8c 0c       	add	r8, r12
    230c:	9d 1c       	adc	r9, r13
    230e:	21 10       	cpse	r2, r1
    2310:	ed cf       	rjmp	.-38     	; 0x22ec <drawCharGL+0x140>
    2312:	c7 cf       	rjmp	.-114    	; 0x22a2 <drawCharGL+0xf6>

00002314 <drawChar>:
    2314:	2f 92       	push	r2
    2316:	3f 92       	push	r3
    2318:	4f 92       	push	r4
    231a:	5f 92       	push	r5
    231c:	6f 92       	push	r6
    231e:	7f 92       	push	r7
    2320:	8f 92       	push	r8
    2322:	9f 92       	push	r9
    2324:	af 92       	push	r10
    2326:	bf 92       	push	r11
    2328:	cf 92       	push	r12
    232a:	df 92       	push	r13
    232c:	ef 92       	push	r14
    232e:	ff 92       	push	r15
    2330:	0f 93       	push	r16
    2332:	1f 93       	push	r17
    2334:	cf 93       	push	r28
    2336:	df 93       	push	r29
    2338:	cd b7       	in	r28, 0x3d	; 61
    233a:	de b7       	in	r29, 0x3e	; 62
    233c:	64 97       	sbiw	r28, 0x14	; 20
    233e:	0f b6       	in	r0, 0x3f	; 63
    2340:	f8 94       	cli
    2342:	de bf       	out	0x3e, r29	; 62
    2344:	0f be       	out	0x3f, r0	; 63
    2346:	cd bf       	out	0x3d, r28	; 61
    2348:	6b 01       	movw	r12, r22
    234a:	5c 8b       	std	Y+20, r21	; 0x14
    234c:	4b 8b       	std	Y+19, r20	; 0x13
    234e:	e0 90 14 02 	lds	r14, 0x0214	; 0x800214 <textsize>
    2352:	21 30       	cpi	r18, 0x01	; 1
    2354:	31 05       	cpc	r19, r1
    2356:	69 f5       	brne	.+90     	; 0x23b2 <drawChar+0x9e>
    2358:	00 91 16 02 	lds	r16, 0x0216	; 0x800216 <textbgcolor>
    235c:	10 91 17 02 	lds	r17, 0x0217	; 0x800217 <textbgcolor+0x1>
    2360:	20 91 18 02 	lds	r18, 0x0218	; 0x800218 <textcolor>
    2364:	30 91 19 02 	lds	r19, 0x0219	; 0x800219 <textcolor+0x1>
    2368:	48 2f       	mov	r20, r24
    236a:	6b 89       	ldd	r22, Y+19	; 0x13
    236c:	7c 89       	ldd	r23, Y+20	; 0x14
    236e:	c6 01       	movw	r24, r12
    2370:	0e 94 d6 10 	call	0x21ac	; 0x21ac <drawCharGL>
    2374:	80 91 14 02 	lds	r24, 0x0214	; 0x800214 <textsize>
    2378:	26 e0       	ldi	r18, 0x06	; 6
    237a:	82 9f       	mul	r24, r18
    237c:	c0 01       	movw	r24, r0
    237e:	11 24       	eor	r1, r1
    2380:	64 96       	adiw	r28, 0x14	; 20
    2382:	0f b6       	in	r0, 0x3f	; 63
    2384:	f8 94       	cli
    2386:	de bf       	out	0x3e, r29	; 62
    2388:	0f be       	out	0x3f, r0	; 63
    238a:	cd bf       	out	0x3d, r28	; 61
    238c:	df 91       	pop	r29
    238e:	cf 91       	pop	r28
    2390:	1f 91       	pop	r17
    2392:	0f 91       	pop	r16
    2394:	ff 90       	pop	r15
    2396:	ef 90       	pop	r14
    2398:	df 90       	pop	r13
    239a:	cf 90       	pop	r12
    239c:	bf 90       	pop	r11
    239e:	af 90       	pop	r10
    23a0:	9f 90       	pop	r9
    23a2:	8f 90       	pop	r8
    23a4:	7f 90       	pop	r7
    23a6:	6f 90       	pop	r6
    23a8:	5f 90       	pop	r5
    23aa:	4f 90       	pop	r4
    23ac:	3f 90       	pop	r3
    23ae:	2f 90       	pop	r2
    23b0:	08 95       	ret
    23b2:	51 2c       	mov	r5, r1
    23b4:	41 2c       	mov	r4, r1
    23b6:	22 30       	cpi	r18, 0x02	; 2
    23b8:	31 05       	cpc	r19, r1
    23ba:	09 f0       	breq	.+2      	; 0x23be <drawChar+0xaa>
    23bc:	7f c0       	rjmp	.+254    	; 0x24bc <drawChar+0x1a8>
    23be:	80 97       	sbiw	r24, 0x20	; 32
    23c0:	fc 01       	movw	r30, r24
    23c2:	ee 0f       	add	r30, r30
    23c4:	ff 1f       	adc	r31, r31
    23c6:	e7 54       	subi	r30, 0x47	; 71
    23c8:	ff 4f       	sbci	r31, 0xFF	; 255
    23ca:	05 91       	lpm	r16, Z+
    23cc:	14 91       	lpm	r17, Z
    23ce:	18 01       	movw	r2, r16
    23d0:	87 54       	subi	r24, 0x47	; 71
    23d2:	98 4f       	sbci	r25, 0xF8	; 248
    23d4:	fc 01       	movw	r30, r24
    23d6:	f4 91       	lpm	r31, Z
    23d8:	fb 83       	std	Y+3, r31	; 0x03
    23da:	4f 2e       	mov	r4, r31
    23dc:	51 2c       	mov	r5, r1
    23de:	fe 9d       	mul	r31, r14
    23e0:	c0 01       	movw	r24, r0
    23e2:	11 24       	eor	r1, r1
    23e4:	ac 01       	movw	r20, r24
    23e6:	46 0f       	add	r20, r22
    23e8:	57 1f       	adc	r21, r23
    23ea:	20 91 03 01 	lds	r18, 0x0103	; 0x800103 <X_SIZE>
    23ee:	30 91 04 01 	lds	r19, 0x0104	; 0x800104 <X_SIZE+0x1>
    23f2:	42 17       	cp	r20, r18
    23f4:	53 07       	cpc	r21, r19
    23f6:	0c f0       	brlt	.+2      	; 0x23fa <drawChar+0xe6>
    23f8:	c3 cf       	rjmp	.-122    	; 0x2380 <drawChar+0x6c>
    23fa:	42 01       	movw	r8, r4
    23fc:	26 e0       	ldi	r18, 0x06	; 6
    23fe:	82 0e       	add	r8, r18
    2400:	91 1c       	adc	r9, r1
    2402:	a3 e0       	ldi	r26, 0x03	; 3
    2404:	95 94       	asr	r9
    2406:	87 94       	ror	r8
    2408:	aa 95       	dec	r26
    240a:	e1 f7       	brne	.-8      	; 0x2404 <drawChar+0xf0>
    240c:	20 91 18 02 	lds	r18, 0x0218	; 0x800218 <textcolor>
    2410:	30 91 19 02 	lds	r19, 0x0219	; 0x800219 <textcolor+0x1>
    2414:	80 91 16 02 	lds	r24, 0x0216	; 0x800216 <textbgcolor>
    2418:	90 91 17 02 	lds	r25, 0x0217	; 0x800217 <textbgcolor+0x1>
    241c:	28 17       	cp	r18, r24
    241e:	39 07       	cpc	r19, r25
    2420:	21 f0       	breq	.+8      	; 0x242a <drawChar+0x116>
    2422:	81 e0       	ldi	r24, 0x01	; 1
    2424:	e8 16       	cp	r14, r24
    2426:	09 f4       	brne	.+2      	; 0x242a <drawChar+0x116>
    2428:	84 c1       	rjmp	.+776    	; 0x2732 <drawChar+0x41e>
    242a:	e0 e1       	ldi	r30, 0x10	; 16
    242c:	f0 e0       	ldi	r31, 0x00	; 0
    242e:	fa 83       	std	Y+2, r31	; 0x02
    2430:	e9 83       	std	Y+1, r30	; 0x01
    2432:	c6 01       	movw	r24, r12
    2434:	07 96       	adiw	r24, 0x07	; 7
    2436:	9e 83       	std	Y+6, r25	; 0x06
    2438:	8d 83       	std	Y+5, r24	; 0x05
    243a:	f6 01       	movw	r30, r12
    243c:	36 96       	adiw	r30, 0x06	; 6
    243e:	f8 87       	std	Y+8, r31	; 0x08
    2440:	ef 83       	std	Y+7, r30	; 0x07
    2442:	02 97       	sbiw	r24, 0x02	; 2
    2444:	9a 87       	std	Y+10, r25	; 0x0a
    2446:	89 87       	std	Y+9, r24	; 0x09
    2448:	32 97       	sbiw	r30, 0x02	; 2
    244a:	fc 87       	std	Y+12, r31	; 0x0c
    244c:	eb 87       	std	Y+11, r30	; 0x0b
    244e:	02 97       	sbiw	r24, 0x02	; 2
    2450:	9e 87       	std	Y+14, r25	; 0x0e
    2452:	8d 87       	std	Y+13, r24	; 0x0d
    2454:	32 97       	sbiw	r30, 0x02	; 2
    2456:	f8 8b       	std	Y+16, r31	; 0x10
    2458:	ef 87       	std	Y+15, r30	; 0x0f
    245a:	02 97       	sbiw	r24, 0x02	; 2
    245c:	9a 8b       	std	Y+18, r25	; 0x12
    245e:	89 8b       	std	Y+17, r24	; 0x11
    2460:	00 91 16 02 	lds	r16, 0x0216	; 0x800216 <textbgcolor>
    2464:	10 91 17 02 	lds	r17, 0x0217	; 0x800217 <textbgcolor+0x1>
    2468:	80 91 18 02 	lds	r24, 0x0218	; 0x800218 <textcolor>
    246c:	90 91 19 02 	lds	r25, 0x0219	; 0x800219 <textcolor+0x1>
    2470:	80 17       	cp	r24, r16
    2472:	91 07       	cpc	r25, r17
    2474:	69 f0       	breq	.+26     	; 0x2490 <drawChar+0x17c>
    2476:	40 91 14 02 	lds	r20, 0x0214	; 0x800214 <textsize>
    247a:	24 2f       	mov	r18, r20
    247c:	30 e0       	ldi	r19, 0x00	; 0
    247e:	9b 81       	ldd	r25, Y+3	; 0x03
    2480:	49 9f       	mul	r20, r25
    2482:	a0 01       	movw	r20, r0
    2484:	11 24       	eor	r1, r1
    2486:	6b 89       	ldd	r22, Y+19	; 0x13
    2488:	7c 89       	ldd	r23, Y+20	; 0x14
    248a:	c6 01       	movw	r24, r12
    248c:	0e 94 73 0e 	call	0x1ce6	; 0x1ce6 <fillRect>
    2490:	71 2c       	mov	r7, r1
    2492:	61 2c       	mov	r6, r1
    2494:	40 91 14 02 	lds	r20, 0x0214	; 0x800214 <textsize>
    2498:	68 14       	cp	r6, r8
    249a:	79 04       	cpc	r7, r9
    249c:	b9 f4       	brne	.+46     	; 0x24cc <drawChar+0x1b8>
    249e:	8b 89       	ldd	r24, Y+19	; 0x13
    24a0:	9c 89       	ldd	r25, Y+20	; 0x14
    24a2:	84 0f       	add	r24, r20
    24a4:	91 1d       	adc	r25, r1
    24a6:	9c 8b       	std	Y+20, r25	; 0x14
    24a8:	8b 8b       	std	Y+19, r24	; 0x13
    24aa:	e9 81       	ldd	r30, Y+1	; 0x01
    24ac:	fa 81       	ldd	r31, Y+2	; 0x02
    24ae:	31 97       	sbiw	r30, 0x01	; 1
    24b0:	fa 83       	std	Y+2, r31	; 0x02
    24b2:	e9 83       	std	Y+1, r30	; 0x01
    24b4:	28 0c       	add	r2, r8
    24b6:	39 1c       	adc	r3, r9
    24b8:	ef 2b       	or	r30, r31
    24ba:	91 f6       	brne	.-92     	; 0x2460 <drawChar+0x14c>
    24bc:	20 91 14 02 	lds	r18, 0x0214	; 0x800214 <textsize>
    24c0:	24 9d       	mul	r18, r4
    24c2:	c0 01       	movw	r24, r0
    24c4:	25 9d       	mul	r18, r5
    24c6:	90 0d       	add	r25, r0
    24c8:	11 24       	eor	r1, r1
    24ca:	5a cf       	rjmp	.-332    	; 0x2380 <drawChar+0x6c>
    24cc:	f1 01       	movw	r30, r2
    24ce:	e6 0d       	add	r30, r6
    24d0:	f7 1d       	adc	r31, r7
    24d2:	f4 90       	lpm	r15, Z
    24d4:	ff 20       	and	r15, r15
    24d6:	09 f4       	brne	.+2      	; 0x24da <drawChar+0x1c6>
    24d8:	7f c0       	rjmp	.+254    	; 0x25d8 <drawChar+0x2c4>
    24da:	83 01       	movw	r16, r6
    24dc:	f3 e0       	ldi	r31, 0x03	; 3
    24de:	00 0f       	add	r16, r16
    24e0:	11 1f       	adc	r17, r17
    24e2:	fa 95       	dec	r31
    24e4:	e1 f7       	brne	.-8      	; 0x24de <drawChar+0x1ca>
    24e6:	af 2d       	mov	r26, r15
    24e8:	a0 74       	andi	r26, 0x40	; 64
    24ea:	ac 83       	std	Y+4, r26	; 0x04
    24ec:	ef 2d       	mov	r30, r15
    24ee:	e0 72       	andi	r30, 0x20	; 32
    24f0:	ee 2e       	mov	r14, r30
    24f2:	41 30       	cpi	r20, 0x01	; 1
    24f4:	09 f0       	breq	.+2      	; 0x24f8 <drawChar+0x1e4>
    24f6:	74 c0       	rjmp	.+232    	; 0x25e0 <drawChar+0x2cc>
    24f8:	f7 fe       	sbrs	r15, 7
    24fa:	0b c0       	rjmp	.+22     	; 0x2512 <drawChar+0x1fe>
    24fc:	40 91 18 02 	lds	r20, 0x0218	; 0x800218 <textcolor>
    2500:	50 91 19 02 	lds	r21, 0x0219	; 0x800219 <textcolor+0x1>
    2504:	6b 89       	ldd	r22, Y+19	; 0x13
    2506:	7c 89       	ldd	r23, Y+20	; 0x14
    2508:	c6 01       	movw	r24, r12
    250a:	80 0f       	add	r24, r16
    250c:	91 1f       	adc	r25, r17
    250e:	0e 94 ff 0b 	call	0x17fe	; 0x17fe <drawPixel>
    2512:	fc 81       	ldd	r31, Y+4	; 0x04
    2514:	ff 23       	and	r31, r31
    2516:	61 f0       	breq	.+24     	; 0x2530 <drawChar+0x21c>
    2518:	40 91 18 02 	lds	r20, 0x0218	; 0x800218 <textcolor>
    251c:	50 91 19 02 	lds	r21, 0x0219	; 0x800219 <textcolor+0x1>
    2520:	6b 89       	ldd	r22, Y+19	; 0x13
    2522:	7c 89       	ldd	r23, Y+20	; 0x14
    2524:	89 89       	ldd	r24, Y+17	; 0x11
    2526:	9a 89       	ldd	r25, Y+18	; 0x12
    2528:	80 0f       	add	r24, r16
    252a:	91 1f       	adc	r25, r17
    252c:	0e 94 ff 0b 	call	0x17fe	; 0x17fe <drawPixel>
    2530:	ee 20       	and	r14, r14
    2532:	61 f0       	breq	.+24     	; 0x254c <drawChar+0x238>
    2534:	40 91 18 02 	lds	r20, 0x0218	; 0x800218 <textcolor>
    2538:	50 91 19 02 	lds	r21, 0x0219	; 0x800219 <textcolor+0x1>
    253c:	6b 89       	ldd	r22, Y+19	; 0x13
    253e:	7c 89       	ldd	r23, Y+20	; 0x14
    2540:	8f 85       	ldd	r24, Y+15	; 0x0f
    2542:	98 89       	ldd	r25, Y+16	; 0x10
    2544:	80 0f       	add	r24, r16
    2546:	91 1f       	adc	r25, r17
    2548:	0e 94 ff 0b 	call	0x17fe	; 0x17fe <drawPixel>
    254c:	f4 fe       	sbrs	r15, 4
    254e:	0c c0       	rjmp	.+24     	; 0x2568 <drawChar+0x254>
    2550:	40 91 18 02 	lds	r20, 0x0218	; 0x800218 <textcolor>
    2554:	50 91 19 02 	lds	r21, 0x0219	; 0x800219 <textcolor+0x1>
    2558:	6b 89       	ldd	r22, Y+19	; 0x13
    255a:	7c 89       	ldd	r23, Y+20	; 0x14
    255c:	8d 85       	ldd	r24, Y+13	; 0x0d
    255e:	9e 85       	ldd	r25, Y+14	; 0x0e
    2560:	80 0f       	add	r24, r16
    2562:	91 1f       	adc	r25, r17
    2564:	0e 94 ff 0b 	call	0x17fe	; 0x17fe <drawPixel>
    2568:	f3 fe       	sbrs	r15, 3
    256a:	0c c0       	rjmp	.+24     	; 0x2584 <drawChar+0x270>
    256c:	40 91 18 02 	lds	r20, 0x0218	; 0x800218 <textcolor>
    2570:	50 91 19 02 	lds	r21, 0x0219	; 0x800219 <textcolor+0x1>
    2574:	6b 89       	ldd	r22, Y+19	; 0x13
    2576:	7c 89       	ldd	r23, Y+20	; 0x14
    2578:	8b 85       	ldd	r24, Y+11	; 0x0b
    257a:	9c 85       	ldd	r25, Y+12	; 0x0c
    257c:	80 0f       	add	r24, r16
    257e:	91 1f       	adc	r25, r17
    2580:	0e 94 ff 0b 	call	0x17fe	; 0x17fe <drawPixel>
    2584:	f2 fe       	sbrs	r15, 2
    2586:	0c c0       	rjmp	.+24     	; 0x25a0 <drawChar+0x28c>
    2588:	40 91 18 02 	lds	r20, 0x0218	; 0x800218 <textcolor>
    258c:	50 91 19 02 	lds	r21, 0x0219	; 0x800219 <textcolor+0x1>
    2590:	6b 89       	ldd	r22, Y+19	; 0x13
    2592:	7c 89       	ldd	r23, Y+20	; 0x14
    2594:	89 85       	ldd	r24, Y+9	; 0x09
    2596:	9a 85       	ldd	r25, Y+10	; 0x0a
    2598:	80 0f       	add	r24, r16
    259a:	91 1f       	adc	r25, r17
    259c:	0e 94 ff 0b 	call	0x17fe	; 0x17fe <drawPixel>
    25a0:	f1 fe       	sbrs	r15, 1
    25a2:	0c c0       	rjmp	.+24     	; 0x25bc <drawChar+0x2a8>
    25a4:	40 91 18 02 	lds	r20, 0x0218	; 0x800218 <textcolor>
    25a8:	50 91 19 02 	lds	r21, 0x0219	; 0x800219 <textcolor+0x1>
    25ac:	6b 89       	ldd	r22, Y+19	; 0x13
    25ae:	7c 89       	ldd	r23, Y+20	; 0x14
    25b0:	8f 81       	ldd	r24, Y+7	; 0x07
    25b2:	98 85       	ldd	r25, Y+8	; 0x08
    25b4:	80 0f       	add	r24, r16
    25b6:	91 1f       	adc	r25, r17
    25b8:	0e 94 ff 0b 	call	0x17fe	; 0x17fe <drawPixel>
    25bc:	f0 fe       	sbrs	r15, 0
    25be:	0c c0       	rjmp	.+24     	; 0x25d8 <drawChar+0x2c4>
    25c0:	40 91 18 02 	lds	r20, 0x0218	; 0x800218 <textcolor>
    25c4:	50 91 19 02 	lds	r21, 0x0219	; 0x800219 <textcolor+0x1>
    25c8:	6b 89       	ldd	r22, Y+19	; 0x13
    25ca:	7c 89       	ldd	r23, Y+20	; 0x14
    25cc:	8d 81       	ldd	r24, Y+5	; 0x05
    25ce:	9e 81       	ldd	r25, Y+6	; 0x06
    25d0:	80 0f       	add	r24, r16
    25d2:	91 1f       	adc	r25, r17
    25d4:	0e 94 ff 0b 	call	0x17fe	; 0x17fe <drawPixel>
    25d8:	ef ef       	ldi	r30, 0xFF	; 255
    25da:	6e 1a       	sub	r6, r30
    25dc:	7e 0a       	sbc	r7, r30
    25de:	5a cf       	rjmp	.-332    	; 0x2494 <drawChar+0x180>
    25e0:	50 e0       	ldi	r21, 0x00	; 0
    25e2:	40 9f       	mul	r20, r16
    25e4:	50 01       	movw	r10, r0
    25e6:	41 9f       	mul	r20, r17
    25e8:	b0 0c       	add	r11, r0
    25ea:	50 9f       	mul	r21, r16
    25ec:	b0 0c       	add	r11, r0
    25ee:	11 24       	eor	r1, r1
    25f0:	ac 0c       	add	r10, r12
    25f2:	bd 1c       	adc	r11, r13
    25f4:	f7 fe       	sbrs	r15, 7
    25f6:	0a c0       	rjmp	.+20     	; 0x260c <drawChar+0x2f8>
    25f8:	00 91 18 02 	lds	r16, 0x0218	; 0x800218 <textcolor>
    25fc:	10 91 19 02 	lds	r17, 0x0219	; 0x800219 <textcolor+0x1>
    2600:	9a 01       	movw	r18, r20
    2602:	6b 89       	ldd	r22, Y+19	; 0x13
    2604:	7c 89       	ldd	r23, Y+20	; 0x14
    2606:	c5 01       	movw	r24, r10
    2608:	0e 94 73 0e 	call	0x1ce6	; 0x1ce6 <fillRect>
    260c:	2c 81       	ldd	r18, Y+4	; 0x04
    260e:	22 23       	and	r18, r18
    2610:	79 f0       	breq	.+30     	; 0x2630 <drawChar+0x31c>
    2612:	80 91 14 02 	lds	r24, 0x0214	; 0x800214 <textsize>
    2616:	90 e0       	ldi	r25, 0x00	; 0
    2618:	00 91 18 02 	lds	r16, 0x0218	; 0x800218 <textcolor>
    261c:	10 91 19 02 	lds	r17, 0x0219	; 0x800219 <textcolor+0x1>
    2620:	9c 01       	movw	r18, r24
    2622:	ac 01       	movw	r20, r24
    2624:	6b 89       	ldd	r22, Y+19	; 0x13
    2626:	7c 89       	ldd	r23, Y+20	; 0x14
    2628:	8a 0d       	add	r24, r10
    262a:	9b 1d       	adc	r25, r11
    262c:	0e 94 73 0e 	call	0x1ce6	; 0x1ce6 <fillRect>
    2630:	ee 20       	and	r14, r14
    2632:	89 f0       	breq	.+34     	; 0x2656 <drawChar+0x342>
    2634:	40 91 14 02 	lds	r20, 0x0214	; 0x800214 <textsize>
    2638:	50 e0       	ldi	r21, 0x00	; 0
    263a:	00 91 18 02 	lds	r16, 0x0218	; 0x800218 <textcolor>
    263e:	10 91 19 02 	lds	r17, 0x0219	; 0x800219 <textcolor+0x1>
    2642:	ca 01       	movw	r24, r20
    2644:	88 0f       	add	r24, r24
    2646:	99 1f       	adc	r25, r25
    2648:	9a 01       	movw	r18, r20
    264a:	6b 89       	ldd	r22, Y+19	; 0x13
    264c:	7c 89       	ldd	r23, Y+20	; 0x14
    264e:	8a 0d       	add	r24, r10
    2650:	9b 1d       	adc	r25, r11
    2652:	0e 94 73 0e 	call	0x1ce6	; 0x1ce6 <fillRect>
    2656:	f4 fe       	sbrs	r15, 4
    2658:	14 c0       	rjmp	.+40     	; 0x2682 <drawChar+0x36e>
    265a:	80 91 14 02 	lds	r24, 0x0214	; 0x800214 <textsize>
    265e:	48 2f       	mov	r20, r24
    2660:	50 e0       	ldi	r21, 0x00	; 0
    2662:	00 91 18 02 	lds	r16, 0x0218	; 0x800218 <textcolor>
    2666:	10 91 19 02 	lds	r17, 0x0219	; 0x800219 <textcolor+0x1>
    266a:	9a 01       	movw	r18, r20
    266c:	6b 89       	ldd	r22, Y+19	; 0x13
    266e:	7c 89       	ldd	r23, Y+20	; 0x14
    2670:	f5 01       	movw	r30, r10
    2672:	a3 e0       	ldi	r26, 0x03	; 3
    2674:	8a 9f       	mul	r24, r26
    2676:	e0 0d       	add	r30, r0
    2678:	f1 1d       	adc	r31, r1
    267a:	11 24       	eor	r1, r1
    267c:	cf 01       	movw	r24, r30
    267e:	0e 94 73 0e 	call	0x1ce6	; 0x1ce6 <fillRect>
    2682:	f3 fe       	sbrs	r15, 3
    2684:	13 c0       	rjmp	.+38     	; 0x26ac <drawChar+0x398>
    2686:	40 91 14 02 	lds	r20, 0x0214	; 0x800214 <textsize>
    268a:	50 e0       	ldi	r21, 0x00	; 0
    268c:	00 91 18 02 	lds	r16, 0x0218	; 0x800218 <textcolor>
    2690:	10 91 19 02 	lds	r17, 0x0219	; 0x800219 <textcolor+0x1>
    2694:	ca 01       	movw	r24, r20
    2696:	88 0f       	add	r24, r24
    2698:	99 1f       	adc	r25, r25
    269a:	88 0f       	add	r24, r24
    269c:	99 1f       	adc	r25, r25
    269e:	9a 01       	movw	r18, r20
    26a0:	6b 89       	ldd	r22, Y+19	; 0x13
    26a2:	7c 89       	ldd	r23, Y+20	; 0x14
    26a4:	8a 0d       	add	r24, r10
    26a6:	9b 1d       	adc	r25, r11
    26a8:	0e 94 73 0e 	call	0x1ce6	; 0x1ce6 <fillRect>
    26ac:	f2 fe       	sbrs	r15, 2
    26ae:	14 c0       	rjmp	.+40     	; 0x26d8 <drawChar+0x3c4>
    26b0:	80 91 14 02 	lds	r24, 0x0214	; 0x800214 <textsize>
    26b4:	48 2f       	mov	r20, r24
    26b6:	50 e0       	ldi	r21, 0x00	; 0
    26b8:	00 91 18 02 	lds	r16, 0x0218	; 0x800218 <textcolor>
    26bc:	10 91 19 02 	lds	r17, 0x0219	; 0x800219 <textcolor+0x1>
    26c0:	9a 01       	movw	r18, r20
    26c2:	6b 89       	ldd	r22, Y+19	; 0x13
    26c4:	7c 89       	ldd	r23, Y+20	; 0x14
    26c6:	f5 01       	movw	r30, r10
    26c8:	a5 e0       	ldi	r26, 0x05	; 5
    26ca:	8a 9f       	mul	r24, r26
    26cc:	e0 0d       	add	r30, r0
    26ce:	f1 1d       	adc	r31, r1
    26d0:	11 24       	eor	r1, r1
    26d2:	cf 01       	movw	r24, r30
    26d4:	0e 94 73 0e 	call	0x1ce6	; 0x1ce6 <fillRect>
    26d8:	f1 fe       	sbrs	r15, 1
    26da:	14 c0       	rjmp	.+40     	; 0x2704 <drawChar+0x3f0>
    26dc:	80 91 14 02 	lds	r24, 0x0214	; 0x800214 <textsize>
    26e0:	48 2f       	mov	r20, r24
    26e2:	50 e0       	ldi	r21, 0x00	; 0
    26e4:	00 91 18 02 	lds	r16, 0x0218	; 0x800218 <textcolor>
    26e8:	10 91 19 02 	lds	r17, 0x0219	; 0x800219 <textcolor+0x1>
    26ec:	9a 01       	movw	r18, r20
    26ee:	6b 89       	ldd	r22, Y+19	; 0x13
    26f0:	7c 89       	ldd	r23, Y+20	; 0x14
    26f2:	f5 01       	movw	r30, r10
    26f4:	a6 e0       	ldi	r26, 0x06	; 6
    26f6:	8a 9f       	mul	r24, r26
    26f8:	e0 0d       	add	r30, r0
    26fa:	f1 1d       	adc	r31, r1
    26fc:	11 24       	eor	r1, r1
    26fe:	cf 01       	movw	r24, r30
    2700:	0e 94 73 0e 	call	0x1ce6	; 0x1ce6 <fillRect>
    2704:	f0 fe       	sbrs	r15, 0
    2706:	68 cf       	rjmp	.-304    	; 0x25d8 <drawChar+0x2c4>
    2708:	80 91 14 02 	lds	r24, 0x0214	; 0x800214 <textsize>
    270c:	48 2f       	mov	r20, r24
    270e:	50 e0       	ldi	r21, 0x00	; 0
    2710:	00 91 18 02 	lds	r16, 0x0218	; 0x800218 <textcolor>
    2714:	10 91 19 02 	lds	r17, 0x0219	; 0x800219 <textcolor+0x1>
    2718:	9a 01       	movw	r18, r20
    271a:	6b 89       	ldd	r22, Y+19	; 0x13
    271c:	7c 89       	ldd	r23, Y+20	; 0x14
    271e:	f5 01       	movw	r30, r10
    2720:	a7 e0       	ldi	r26, 0x07	; 7
    2722:	8a 9f       	mul	r24, r26
    2724:	e0 0d       	add	r30, r0
    2726:	f1 1d       	adc	r31, r1
    2728:	11 24       	eor	r1, r1
    272a:	cf 01       	movw	r24, r30
    272c:	0e 94 73 0e 	call	0x1ce6	; 0x1ce6 <fillRect>
    2730:	53 cf       	rjmp	.-346    	; 0x25d8 <drawChar+0x2c4>
    2732:	2b 89       	ldd	r18, Y+19	; 0x13
    2734:	3c 89       	ldd	r19, Y+20	; 0x14
    2736:	21 5f       	subi	r18, 0xF1	; 241
    2738:	3f 4f       	sbci	r19, 0xFF	; 255
    273a:	a4 01       	movw	r20, r8
    273c:	63 e0       	ldi	r22, 0x03	; 3
    273e:	44 0f       	add	r20, r20
    2740:	55 1f       	adc	r21, r21
    2742:	6a 95       	dec	r22
    2744:	e1 f7       	brne	.-8      	; 0x273e <drawChar+0x42a>
    2746:	4c 0d       	add	r20, r12
    2748:	5d 1d       	adc	r21, r13
    274a:	41 50       	subi	r20, 0x01	; 1
    274c:	51 09       	sbc	r21, r1
    274e:	6b 89       	ldd	r22, Y+19	; 0x13
    2750:	7c 89       	ldd	r23, Y+20	; 0x14
    2752:	c6 01       	movw	r24, r12
    2754:	0e 94 54 08 	call	0x10a8	; 0x10a8 <ILI9341_Set_Address>
    2758:	d1 2c       	mov	r13, r1
    275a:	c1 2c       	mov	r12, r1
    275c:	1a 82       	std	Y+2, r1	; 0x02
    275e:	19 82       	std	Y+1, r1	; 0x01
    2760:	26 c0       	rjmp	.+76     	; 0x27ae <drawChar+0x49a>
    2762:	c8 9c       	mul	r12, r8
    2764:	f0 01       	movw	r30, r0
    2766:	c9 9c       	mul	r12, r9
    2768:	f0 0d       	add	r31, r0
    276a:	d8 9c       	mul	r13, r8
    276c:	f0 0d       	add	r31, r0
    276e:	11 24       	eor	r1, r1
    2770:	89 81       	ldd	r24, Y+1	; 0x01
    2772:	9a 81       	ldd	r25, Y+2	; 0x02
    2774:	80 0f       	add	r24, r16
    2776:	91 1f       	adc	r25, r17
    2778:	e8 0f       	add	r30, r24
    277a:	f9 1f       	adc	r31, r25
    277c:	b4 90       	lpm	r11, Z
    277e:	88 e0       	ldi	r24, 0x08	; 8
    2780:	e8 2e       	mov	r14, r24
    2782:	f1 2c       	mov	r15, r1
    2784:	90 e8       	ldi	r25, 0x80	; 128
    2786:	a9 2e       	mov	r10, r25
    2788:	8b 2d       	mov	r24, r11
    278a:	8a 21       	and	r24, r10
    278c:	01 f1       	breq	.+64     	; 0x27ce <drawChar+0x4ba>
    278e:	80 91 18 02 	lds	r24, 0x0218	; 0x800218 <textcolor>
    2792:	90 91 19 02 	lds	r25, 0x0219	; 0x800219 <textcolor+0x1>
    2796:	0e 94 cd 06 	call	0xd9a	; 0xd9a <spi_send16>
    279a:	a6 94       	lsr	r10
    279c:	f1 e0       	ldi	r31, 0x01	; 1
    279e:	ef 1a       	sub	r14, r31
    27a0:	f1 08       	sbc	r15, r1
    27a2:	91 f7       	brne	.-28     	; 0x2788 <drawChar+0x474>
    27a4:	89 81       	ldd	r24, Y+1	; 0x01
    27a6:	9a 81       	ldd	r25, Y+2	; 0x02
    27a8:	01 96       	adiw	r24, 0x01	; 1
    27aa:	9a 83       	std	Y+2, r25	; 0x02
    27ac:	89 83       	std	Y+1, r24	; 0x01
    27ae:	e9 81       	ldd	r30, Y+1	; 0x01
    27b0:	fa 81       	ldd	r31, Y+2	; 0x02
    27b2:	e8 15       	cp	r30, r8
    27b4:	f9 05       	cpc	r31, r9
    27b6:	ac f2       	brlt	.-86     	; 0x2762 <drawChar+0x44e>
    27b8:	ff ef       	ldi	r31, 0xFF	; 255
    27ba:	cf 1a       	sub	r12, r31
    27bc:	df 0a       	sbc	r13, r31
    27be:	20 e1       	ldi	r18, 0x10	; 16
    27c0:	c2 16       	cp	r12, r18
    27c2:	d1 04       	cpc	r13, r1
    27c4:	5c f2       	brlt	.-106    	; 0x275c <drawChar+0x448>
    27c6:	77 9b       	sbis	0x0e, 7	; 14
    27c8:	fe cf       	rjmp	.-4      	; 0x27c6 <drawChar+0x4b2>
    27ca:	c0 9a       	sbi	0x18, 0	; 24
    27cc:	77 ce       	rjmp	.-786    	; 0x24bc <drawChar+0x1a8>
    27ce:	80 91 16 02 	lds	r24, 0x0216	; 0x800216 <textbgcolor>
    27d2:	90 91 17 02 	lds	r25, 0x0217	; 0x800217 <textbgcolor+0x1>
    27d6:	df cf       	rjmp	.-66     	; 0x2796 <drawChar+0x482>

000027d8 <drawString>:
    27d8:	8f 92       	push	r8
    27da:	9f 92       	push	r9
    27dc:	af 92       	push	r10
    27de:	bf 92       	push	r11
    27e0:	cf 92       	push	r12
    27e2:	df 92       	push	r13
    27e4:	ef 92       	push	r14
    27e6:	ff 92       	push	r15
    27e8:	0f 93       	push	r16
    27ea:	1f 93       	push	r17
    27ec:	cf 93       	push	r28
    27ee:	df 93       	push	r29
    27f0:	00 d0       	rcall	.+0      	; 0x27f2 <drawString+0x1a>
    27f2:	1f 92       	push	r1
    27f4:	cd b7       	in	r28, 0x3d	; 61
    27f6:	de b7       	in	r29, 0x3e	; 62
    27f8:	5c 01       	movw	r10, r24
    27fa:	7b 01       	movw	r14, r22
    27fc:	5b 83       	std	Y+3, r21	; 0x03
    27fe:	4a 83       	std	Y+2, r20	; 0x02
    2800:	49 01       	movw	r8, r18
    2802:	80 91 0e 02 	lds	r24, 0x020E	; 0x80020e <textdatum>
    2806:	81 11       	cpse	r24, r1
    2808:	07 c0       	rjmp	.+14     	; 0x2818 <drawString+0x40>
    280a:	80 91 1c 02 	lds	r24, 0x021C	; 0x80021c <padX>
    280e:	90 91 1d 02 	lds	r25, 0x021D	; 0x80021d <padX+0x1>
    2812:	89 2b       	or	r24, r25
    2814:	09 f4       	brne	.+2      	; 0x2818 <drawString+0x40>
    2816:	e9 c0       	rjmp	.+466    	; 0x29ea <drawString+0x212>
    2818:	b4 01       	movw	r22, r8
    281a:	c5 01       	movw	r24, r10
    281c:	0e 94 ac 10 	call	0x2158	; 0x2158 <textWidth>
    2820:	25 e0       	ldi	r18, 0x05	; 5
    2822:	28 9d       	mul	r18, r8
    2824:	f0 01       	movw	r30, r0
    2826:	29 9d       	mul	r18, r9
    2828:	f0 0d       	add	r31, r0
    282a:	11 24       	eor	r1, r1
    282c:	e0 57       	subi	r30, 0x70	; 112
    282e:	ff 4f       	sbci	r31, 0xFF	; 255
    2830:	e4 91       	lpm	r30, Z
    2832:	c0 90 14 02 	lds	r12, 0x0214	; 0x800214 <textsize>
    2836:	ec 9d       	mul	r30, r12
    2838:	60 01       	movw	r12, r0
    283a:	11 24       	eor	r1, r1
    283c:	e0 91 0e 02 	lds	r30, 0x020E	; 0x80020e <textdatum>
    2840:	e1 50       	subi	r30, 0x01	; 1
    2842:	e8 30       	cpi	r30, 0x08	; 8
    2844:	08 f0       	brcs	.+2      	; 0x2848 <drawString+0x70>
    2846:	8a c0       	rjmp	.+276    	; 0x295c <drawString+0x184>
    2848:	f0 e0       	ldi	r31, 0x00	; 0
    284a:	e7 5d       	subi	r30, 0xD7	; 215
    284c:	fb 4e       	sbci	r31, 0xEB	; 235
    284e:	0c 94 f3 1d 	jmp	0x3be6	; 0x3be6 <__tablejump2__>
    2852:	31 14       	cp	r3, r1
    2854:	63 14       	cp	r6, r3
    2856:	68 14       	cp	r6, r8
    2858:	74 14       	cp	r7, r4
    285a:	85 14       	cp	r8, r5
    285c:	92 14       	cp	r9, r2
    285e:	9a 14       	cp	r9, r10
    2860:	a7 14       	cp	r10, r7
    2862:	9c 01       	movw	r18, r24
    2864:	36 95       	lsr	r19
    2866:	27 95       	ror	r18
    2868:	e2 1a       	sub	r14, r18
    286a:	f3 0a       	sbc	r15, r19
    286c:	22 e0       	ldi	r18, 0x02	; 2
    286e:	29 83       	std	Y+1, r18	; 0x01
    2870:	f7 fe       	sbrs	r15, 7
    2872:	02 c0       	rjmp	.+4      	; 0x2878 <drawString+0xa0>
    2874:	f1 2c       	mov	r15, r1
    2876:	e1 2c       	mov	r14, r1
    2878:	20 91 03 01 	lds	r18, 0x0103	; 0x800103 <X_SIZE>
    287c:	30 91 04 01 	lds	r19, 0x0104	; 0x800104 <X_SIZE+0x1>
    2880:	a7 01       	movw	r20, r14
    2882:	48 0f       	add	r20, r24
    2884:	59 1f       	adc	r21, r25
    2886:	24 17       	cp	r18, r20
    2888:	35 07       	cpc	r19, r21
    288a:	18 f4       	brcc	.+6      	; 0x2892 <drawString+0xba>
    288c:	79 01       	movw	r14, r18
    288e:	e8 1a       	sub	r14, r24
    2890:	f9 0a       	sbc	r15, r25
    2892:	2a 81       	ldd	r18, Y+2	; 0x02
    2894:	3b 81       	ldd	r19, Y+3	; 0x03
    2896:	37 ff       	sbrs	r19, 7
    2898:	02 c0       	rjmp	.+4      	; 0x289e <drawString+0xc6>
    289a:	1b 82       	std	Y+3, r1	; 0x03
    289c:	1a 82       	std	Y+2, r1	; 0x02
    289e:	80 91 01 01 	lds	r24, 0x0101	; 0x800101 <Y_SIZE>
    28a2:	90 91 02 01 	lds	r25, 0x0102	; 0x800102 <Y_SIZE+0x1>
    28a6:	2a 81       	ldd	r18, Y+2	; 0x02
    28a8:	3b 81       	ldd	r19, Y+3	; 0x03
    28aa:	2c 0d       	add	r18, r12
    28ac:	3d 1d       	adc	r19, r13
    28ae:	82 17       	cp	r24, r18
    28b0:	93 07       	cpc	r25, r19
    28b2:	28 f4       	brcc	.+10     	; 0x28be <drawString+0xe6>
    28b4:	ac 01       	movw	r20, r24
    28b6:	4c 19       	sub	r20, r12
    28b8:	5d 09       	sbc	r21, r13
    28ba:	5b 83       	std	Y+3, r21	; 0x03
    28bc:	4a 83       	std	Y+2, r20	; 0x02
    28be:	85 01       	movw	r16, r10
    28c0:	b1 2c       	mov	r11, r1
    28c2:	a1 2c       	mov	r10, r1
    28c4:	59 c0       	rjmp	.+178    	; 0x2978 <drawString+0x1a0>
    28c6:	e8 1a       	sub	r14, r24
    28c8:	f9 0a       	sbc	r15, r25
    28ca:	33 e0       	ldi	r19, 0x03	; 3
    28cc:	39 83       	std	Y+1, r19	; 0x01
    28ce:	d0 cf       	rjmp	.-96     	; 0x2870 <drawString+0x98>
    28d0:	96 01       	movw	r18, r12
    28d2:	36 95       	lsr	r19
    28d4:	27 95       	ror	r18
    28d6:	4a 81       	ldd	r20, Y+2	; 0x02
    28d8:	5b 81       	ldd	r21, Y+3	; 0x03
    28da:	42 1b       	sub	r20, r18
    28dc:	53 0b       	sbc	r21, r19
    28de:	5b 83       	std	Y+3, r21	; 0x03
    28e0:	4a 83       	std	Y+2, r20	; 0x02
    28e2:	51 e0       	ldi	r21, 0x01	; 1
    28e4:	59 83       	std	Y+1, r21	; 0x01
    28e6:	c4 cf       	rjmp	.-120    	; 0x2870 <drawString+0x98>
    28e8:	9c 01       	movw	r18, r24
    28ea:	36 95       	lsr	r19
    28ec:	27 95       	ror	r18
    28ee:	e2 1a       	sub	r14, r18
    28f0:	f3 0a       	sbc	r15, r19
    28f2:	96 01       	movw	r18, r12
    28f4:	36 95       	lsr	r19
    28f6:	27 95       	ror	r18
    28f8:	ea 81       	ldd	r30, Y+2	; 0x02
    28fa:	fb 81       	ldd	r31, Y+3	; 0x03
    28fc:	e2 1b       	sub	r30, r18
    28fe:	f3 0b       	sbc	r31, r19
    2900:	fb 83       	std	Y+3, r31	; 0x03
    2902:	ea 83       	std	Y+2, r30	; 0x02
    2904:	f2 e0       	ldi	r31, 0x02	; 2
    2906:	f9 83       	std	Y+1, r31	; 0x01
    2908:	b3 cf       	rjmp	.-154    	; 0x2870 <drawString+0x98>
    290a:	e8 1a       	sub	r14, r24
    290c:	f9 0a       	sbc	r15, r25
    290e:	96 01       	movw	r18, r12
    2910:	36 95       	lsr	r19
    2912:	27 95       	ror	r18
    2914:	4a 81       	ldd	r20, Y+2	; 0x02
    2916:	5b 81       	ldd	r21, Y+3	; 0x03
    2918:	42 1b       	sub	r20, r18
    291a:	53 0b       	sbc	r21, r19
    291c:	5b 83       	std	Y+3, r21	; 0x03
    291e:	4a 83       	std	Y+2, r20	; 0x02
    2920:	53 e0       	ldi	r21, 0x03	; 3
    2922:	e0 cf       	rjmp	.-64     	; 0x28e4 <drawString+0x10c>
    2924:	ea 81       	ldd	r30, Y+2	; 0x02
    2926:	fb 81       	ldd	r31, Y+3	; 0x03
    2928:	ec 19       	sub	r30, r12
    292a:	fd 09       	sbc	r31, r13
    292c:	fb 83       	std	Y+3, r31	; 0x03
    292e:	ea 83       	std	Y+2, r30	; 0x02
    2930:	f1 e0       	ldi	r31, 0x01	; 1
    2932:	e9 cf       	rjmp	.-46     	; 0x2906 <drawString+0x12e>
    2934:	9c 01       	movw	r18, r24
    2936:	36 95       	lsr	r19
    2938:	27 95       	ror	r18
    293a:	e2 1a       	sub	r14, r18
    293c:	f3 0a       	sbc	r15, r19
    293e:	2a 81       	ldd	r18, Y+2	; 0x02
    2940:	3b 81       	ldd	r19, Y+3	; 0x03
    2942:	2c 19       	sub	r18, r12
    2944:	3d 09       	sbc	r19, r13
    2946:	3b 83       	std	Y+3, r19	; 0x03
    2948:	2a 83       	std	Y+2, r18	; 0x02
    294a:	32 e0       	ldi	r19, 0x02	; 2
    294c:	bf cf       	rjmp	.-130    	; 0x28cc <drawString+0xf4>
    294e:	e8 1a       	sub	r14, r24
    2950:	f9 0a       	sbc	r15, r25
    2952:	4a 81       	ldd	r20, Y+2	; 0x02
    2954:	5b 81       	ldd	r21, Y+3	; 0x03
    2956:	4c 19       	sub	r20, r12
    2958:	5d 09       	sbc	r21, r13
    295a:	e0 cf       	rjmp	.-64     	; 0x291c <drawString+0x144>
    295c:	e1 e0       	ldi	r30, 0x01	; 1
    295e:	e9 83       	std	Y+1, r30	; 0x01
    2960:	87 cf       	rjmp	.-242    	; 0x2870 <drawString+0x98>
    2962:	b5 01       	movw	r22, r10
    2964:	6e 0d       	add	r22, r14
    2966:	7f 1d       	adc	r23, r15
    2968:	94 01       	movw	r18, r8
    296a:	4a 81       	ldd	r20, Y+2	; 0x02
    296c:	5b 81       	ldd	r21, Y+3	; 0x03
    296e:	90 e0       	ldi	r25, 0x00	; 0
    2970:	0e 94 8a 11 	call	0x2314	; 0x2314 <drawChar>
    2974:	a8 0e       	add	r10, r24
    2976:	b9 1e       	adc	r11, r25
    2978:	f8 01       	movw	r30, r16
    297a:	81 91       	ld	r24, Z+
    297c:	8f 01       	movw	r16, r30
    297e:	81 11       	cpse	r24, r1
    2980:	f0 cf       	rjmp	.-32     	; 0x2962 <drawString+0x18a>
    2982:	e0 91 1c 02 	lds	r30, 0x021C	; 0x80021c <padX>
    2986:	f0 91 1d 02 	lds	r31, 0x021D	; 0x80021d <padX+0x1>
    298a:	ae 16       	cp	r10, r30
    298c:	bf 06       	cpc	r11, r31
    298e:	e4 f4       	brge	.+56     	; 0x29c8 <drawString+0x1f0>
    2990:	00 91 16 02 	lds	r16, 0x0216	; 0x800216 <textbgcolor>
    2994:	10 91 17 02 	lds	r17, 0x0217	; 0x800217 <textbgcolor+0x1>
    2998:	80 91 18 02 	lds	r24, 0x0218	; 0x800218 <textcolor>
    299c:	90 91 19 02 	lds	r25, 0x0219	; 0x800219 <textcolor+0x1>
    29a0:	80 17       	cp	r24, r16
    29a2:	91 07       	cpc	r25, r17
    29a4:	89 f0       	breq	.+34     	; 0x29c8 <drawString+0x1f0>
    29a6:	c5 01       	movw	r24, r10
    29a8:	8e 0d       	add	r24, r14
    29aa:	9f 1d       	adc	r25, r15
    29ac:	29 81       	ldd	r18, Y+1	; 0x01
    29ae:	22 30       	cpi	r18, 0x02	; 2
    29b0:	09 f1       	breq	.+66     	; 0x29f4 <drawString+0x21c>
    29b2:	23 30       	cpi	r18, 0x03	; 3
    29b4:	09 f4       	brne	.+2      	; 0x29b8 <drawString+0x1e0>
    29b6:	41 c0       	rjmp	.+130    	; 0x2a3a <drawString+0x262>
    29b8:	af 01       	movw	r20, r30
    29ba:	4a 19       	sub	r20, r10
    29bc:	5b 09       	sbc	r21, r11
    29be:	96 01       	movw	r18, r12
    29c0:	6a 81       	ldd	r22, Y+2	; 0x02
    29c2:	7b 81       	ldd	r23, Y+3	; 0x03
    29c4:	0e 94 73 0e 	call	0x1ce6	; 0x1ce6 <fillRect>
    29c8:	c5 01       	movw	r24, r10
    29ca:	0f 90       	pop	r0
    29cc:	0f 90       	pop	r0
    29ce:	0f 90       	pop	r0
    29d0:	df 91       	pop	r29
    29d2:	cf 91       	pop	r28
    29d4:	1f 91       	pop	r17
    29d6:	0f 91       	pop	r16
    29d8:	ff 90       	pop	r15
    29da:	ef 90       	pop	r14
    29dc:	df 90       	pop	r13
    29de:	cf 90       	pop	r12
    29e0:	bf 90       	pop	r11
    29e2:	af 90       	pop	r10
    29e4:	9f 90       	pop	r9
    29e6:	8f 90       	pop	r8
    29e8:	08 95       	ret
    29ea:	d1 2c       	mov	r13, r1
    29ec:	c1 2c       	mov	r12, r1
    29ee:	51 e0       	ldi	r21, 0x01	; 1
    29f0:	59 83       	std	Y+1, r21	; 0x01
    29f2:	65 cf       	rjmp	.-310    	; 0x28be <drawString+0xe6>
    29f4:	ea 19       	sub	r30, r10
    29f6:	fb 09       	sbc	r31, r11
    29f8:	af 01       	movw	r20, r30
    29fa:	55 95       	asr	r21
    29fc:	47 95       	ror	r20
    29fe:	96 01       	movw	r18, r12
    2a00:	6a 81       	ldd	r22, Y+2	; 0x02
    2a02:	7b 81       	ldd	r23, Y+3	; 0x03
    2a04:	0e 94 73 0e 	call	0x1ce6	; 0x1ce6 <fillRect>
    2a08:	40 91 1c 02 	lds	r20, 0x021C	; 0x80021c <padX>
    2a0c:	50 91 1d 02 	lds	r21, 0x021D	; 0x80021d <padX+0x1>
    2a10:	4a 19       	sub	r20, r10
    2a12:	5b 09       	sbc	r21, r11
    2a14:	55 95       	asr	r21
    2a16:	47 95       	ror	r20
    2a18:	00 91 16 02 	lds	r16, 0x0216	; 0x800216 <textbgcolor>
    2a1c:	10 91 17 02 	lds	r17, 0x0217	; 0x800217 <textbgcolor+0x1>
    2a20:	ca 01       	movw	r24, r20
    2a22:	e4 16       	cp	r14, r20
    2a24:	f5 06       	cpc	r15, r21
    2a26:	0c f4       	brge	.+2      	; 0x2a2a <drawString+0x252>
    2a28:	c7 01       	movw	r24, r14
    2a2a:	96 01       	movw	r18, r12
    2a2c:	6a 81       	ldd	r22, Y+2	; 0x02
    2a2e:	7b 81       	ldd	r23, Y+3	; 0x03
    2a30:	f7 01       	movw	r30, r14
    2a32:	e8 1b       	sub	r30, r24
    2a34:	f9 0b       	sbc	r31, r25
    2a36:	cf 01       	movw	r24, r30
    2a38:	c5 cf       	rjmp	.-118    	; 0x29c4 <drawString+0x1ec>
    2a3a:	8e 17       	cp	r24, r30
    2a3c:	9f 07       	cpc	r25, r31
    2a3e:	0c f4       	brge	.+2      	; 0x2a42 <drawString+0x26a>
    2a40:	fc 01       	movw	r30, r24
    2a42:	af 01       	movw	r20, r30
    2a44:	4a 19       	sub	r20, r10
    2a46:	5b 09       	sbc	r21, r11
    2a48:	96 01       	movw	r18, r12
    2a4a:	6a 81       	ldd	r22, Y+2	; 0x02
    2a4c:	7b 81       	ldd	r23, Y+3	; 0x03
    2a4e:	8e 1b       	sub	r24, r30
    2a50:	9f 0b       	sbc	r25, r31
    2a52:	b8 cf       	rjmp	.-144    	; 0x29c4 <drawString+0x1ec>

00002a54 <setTextFont>:
    2a54:	81 11       	cpse	r24, r1
    2a56:	01 c0       	rjmp	.+2      	; 0x2a5a <setTextFont+0x6>
    2a58:	81 e0       	ldi	r24, 0x01	; 1
    2a5a:	80 93 15 02 	sts	0x0215, r24	; 0x800215 <textfont>
    2a5e:	08 95       	ret

00002a60 <ILI9341_write>:
    2a60:	cf 93       	push	r28
    2a62:	df 93       	push	r29
    2a64:	8d 30       	cpi	r24, 0x0D	; 13
    2a66:	51 f1       	breq	.+84     	; 0x2abc <ILI9341_write+0x5c>
    2a68:	20 91 15 02 	lds	r18, 0x0215	; 0x800215 <textfont>
    2a6c:	22 30       	cpi	r18, 0x02	; 2
    2a6e:	59 f5       	brne	.+86     	; 0x2ac6 <ILI9341_write+0x66>
    2a70:	48 2f       	mov	r20, r24
    2a72:	40 52       	subi	r20, 0x20	; 32
    2a74:	55 0b       	sbc	r21, r21
    2a76:	fa 01       	movw	r30, r20
    2a78:	e7 54       	subi	r30, 0x47	; 71
    2a7a:	f8 4f       	sbci	r31, 0xF8	; 248
    2a7c:	e4 91       	lpm	r30, Z
    2a7e:	f0 e0       	ldi	r31, 0x00	; 0
    2a80:	36 96       	adiw	r30, 0x06	; 6
    2a82:	e8 7f       	andi	r30, 0xF8	; 248
    2a84:	a0 e1       	ldi	r26, 0x10	; 16
    2a86:	b0 e0       	ldi	r27, 0x00	; 0
    2a88:	60 91 14 02 	lds	r22, 0x0214	; 0x800214 <textsize>
    2a8c:	70 e0       	ldi	r23, 0x00	; 0
    2a8e:	6a 9f       	mul	r22, r26
    2a90:	e0 01       	movw	r28, r0
    2a92:	6b 9f       	mul	r22, r27
    2a94:	d0 0d       	add	r29, r0
    2a96:	7a 9f       	mul	r23, r26
    2a98:	d0 0d       	add	r29, r0
    2a9a:	11 24       	eor	r1, r1
    2a9c:	40 91 0a 02 	lds	r20, 0x020A	; 0x80020a <cursor_y>
    2aa0:	50 91 0b 02 	lds	r21, 0x020B	; 0x80020b <cursor_y+0x1>
    2aa4:	8a 30       	cpi	r24, 0x0A	; 10
    2aa6:	d1 f4       	brne	.+52     	; 0x2adc <ILI9341_write+0x7c>
    2aa8:	4c 0f       	add	r20, r28
    2aaa:	5d 1f       	adc	r21, r29
    2aac:	50 93 0b 02 	sts	0x020B, r21	; 0x80020b <cursor_y+0x1>
    2ab0:	40 93 0a 02 	sts	0x020A, r20	; 0x80020a <cursor_y>
    2ab4:	10 92 13 02 	sts	0x0213, r1	; 0x800213 <cursor_x+0x1>
    2ab8:	10 92 12 02 	sts	0x0212, r1	; 0x800212 <cursor_x>
    2abc:	81 e0       	ldi	r24, 0x01	; 1
    2abe:	90 e0       	ldi	r25, 0x00	; 0
    2ac0:	df 91       	pop	r29
    2ac2:	cf 91       	pop	r28
    2ac4:	08 95       	ret
    2ac6:	a8 e0       	ldi	r26, 0x08	; 8
    2ac8:	b0 e0       	ldi	r27, 0x00	; 0
    2aca:	e6 e0       	ldi	r30, 0x06	; 6
    2acc:	f0 e0       	ldi	r31, 0x00	; 0
    2ace:	21 30       	cpi	r18, 0x01	; 1
    2ad0:	d9 f2       	breq	.-74     	; 0x2a88 <ILI9341_write+0x28>
    2ad2:	b0 e0       	ldi	r27, 0x00	; 0
    2ad4:	a0 e0       	ldi	r26, 0x00	; 0
    2ad6:	f0 e0       	ldi	r31, 0x00	; 0
    2ad8:	e0 e0       	ldi	r30, 0x00	; 0
    2ada:	d6 cf       	rjmp	.-84     	; 0x2a88 <ILI9341_write+0x28>
    2adc:	90 91 00 01 	lds	r25, 0x0100	; 0x800100 <__DATA_REGION_ORIGIN__>
    2ae0:	99 23       	and	r25, r25
    2ae2:	f1 f0       	breq	.+60     	; 0x2b20 <ILI9341_write+0xc0>
    2ae4:	6e 9f       	mul	r22, r30
    2ae6:	d0 01       	movw	r26, r0
    2ae8:	6f 9f       	mul	r22, r31
    2aea:	b0 0d       	add	r27, r0
    2aec:	7e 9f       	mul	r23, r30
    2aee:	b0 0d       	add	r27, r0
    2af0:	11 24       	eor	r1, r1
    2af2:	60 91 12 02 	lds	r22, 0x0212	; 0x800212 <cursor_x>
    2af6:	70 91 13 02 	lds	r23, 0x0213	; 0x800213 <cursor_x+0x1>
    2afa:	6a 0f       	add	r22, r26
    2afc:	7b 1f       	adc	r23, r27
    2afe:	e0 91 03 01 	lds	r30, 0x0103	; 0x800103 <X_SIZE>
    2b02:	f0 91 04 01 	lds	r31, 0x0104	; 0x800104 <X_SIZE+0x1>
    2b06:	6e 17       	cp	r22, r30
    2b08:	7f 07       	cpc	r23, r31
    2b0a:	50 f0       	brcs	.+20     	; 0x2b20 <ILI9341_write+0xc0>
    2b0c:	4c 0f       	add	r20, r28
    2b0e:	5d 1f       	adc	r21, r29
    2b10:	50 93 0b 02 	sts	0x020B, r21	; 0x80020b <cursor_y+0x1>
    2b14:	40 93 0a 02 	sts	0x020A, r20	; 0x80020a <cursor_y>
    2b18:	10 92 13 02 	sts	0x0213, r1	; 0x800213 <cursor_x+0x1>
    2b1c:	10 92 12 02 	sts	0x0212, r1	; 0x800212 <cursor_x>
    2b20:	30 e0       	ldi	r19, 0x00	; 0
    2b22:	40 91 0a 02 	lds	r20, 0x020A	; 0x80020a <cursor_y>
    2b26:	50 91 0b 02 	lds	r21, 0x020B	; 0x80020b <cursor_y+0x1>
    2b2a:	60 91 12 02 	lds	r22, 0x0212	; 0x800212 <cursor_x>
    2b2e:	70 91 13 02 	lds	r23, 0x0213	; 0x800213 <cursor_x+0x1>
    2b32:	90 e0       	ldi	r25, 0x00	; 0
    2b34:	0e 94 8a 11 	call	0x2314	; 0x2314 <drawChar>
    2b38:	20 91 12 02 	lds	r18, 0x0212	; 0x800212 <cursor_x>
    2b3c:	30 91 13 02 	lds	r19, 0x0213	; 0x800213 <cursor_x+0x1>
    2b40:	82 0f       	add	r24, r18
    2b42:	93 1f       	adc	r25, r19
    2b44:	90 93 13 02 	sts	0x0213, r25	; 0x800213 <cursor_x+0x1>
    2b48:	80 93 12 02 	sts	0x0212, r24	; 0x800212 <cursor_x>
    2b4c:	b7 cf       	rjmp	.-146    	; 0x2abc <ILI9341_write+0x5c>

00002b4e <ILI9341_Print>:
    2b4e:	cf 93       	push	r28
    2b50:	df 93       	push	r29
    2b52:	ec 01       	movw	r28, r24
    2b54:	89 91       	ld	r24, Y+
    2b56:	81 11       	cpse	r24, r1
    2b58:	03 c0       	rjmp	.+6      	; 0x2b60 <ILI9341_Print+0x12>
    2b5a:	df 91       	pop	r29
    2b5c:	cf 91       	pop	r28
    2b5e:	08 95       	ret
    2b60:	0e 94 30 15 	call	0x2a60	; 0x2a60 <ILI9341_write>
    2b64:	f7 cf       	rjmp	.-18     	; 0x2b54 <ILI9341_Print+0x6>

00002b66 <u16_to_decstr>:
    2b66:	ef 92       	push	r14
    2b68:	ff 92       	push	r15
    2b6a:	0f 93       	push	r16
    2b6c:	1f 93       	push	r17
    2b6e:	cf 93       	push	r28
    2b70:	df 93       	push	r29
    2b72:	00 d0       	rcall	.+0      	; 0x2b74 <u16_to_decstr+0xe>
    2b74:	00 d0       	rcall	.+0      	; 0x2b76 <u16_to_decstr+0x10>
    2b76:	1f 92       	push	r1
    2b78:	cd b7       	in	r28, 0x3d	; 61
    2b7a:	de b7       	in	r29, 0x3e	; 62
    2b7c:	8b 01       	movw	r16, r22
    2b7e:	e0 e0       	ldi	r30, 0x00	; 0
    2b80:	2a e0       	ldi	r18, 0x0A	; 10
    2b82:	e2 2e       	mov	r14, r18
    2b84:	f1 2c       	mov	r15, r1
    2b86:	00 97       	sbiw	r24, 0x00	; 0
    2b88:	a9 f4       	brne	.+42     	; 0x2bb4 <u16_to_decstr+0x4e>
    2b8a:	80 e3       	ldi	r24, 0x30	; 48
    2b8c:	db 01       	movw	r26, r22
    2b8e:	8c 93       	st	X, r24
    2b90:	21 e0       	ldi	r18, 0x01	; 1
    2b92:	f8 01       	movw	r30, r16
    2b94:	e2 0f       	add	r30, r18
    2b96:	f1 1d       	adc	r31, r1
    2b98:	10 82       	st	Z, r1
    2b9a:	82 2f       	mov	r24, r18
    2b9c:	0f 90       	pop	r0
    2b9e:	0f 90       	pop	r0
    2ba0:	0f 90       	pop	r0
    2ba2:	0f 90       	pop	r0
    2ba4:	0f 90       	pop	r0
    2ba6:	df 91       	pop	r29
    2ba8:	cf 91       	pop	r28
    2baa:	1f 91       	pop	r17
    2bac:	0f 91       	pop	r16
    2bae:	ff 90       	pop	r15
    2bb0:	ef 90       	pop	r14
    2bb2:	08 95       	ret
    2bb4:	21 e0       	ldi	r18, 0x01	; 1
    2bb6:	2e 0f       	add	r18, r30
    2bb8:	41 e0       	ldi	r20, 0x01	; 1
    2bba:	50 e0       	ldi	r21, 0x00	; 0
    2bbc:	4c 0f       	add	r20, r28
    2bbe:	5d 1f       	adc	r21, r29
    2bc0:	4e 0f       	add	r20, r30
    2bc2:	51 1d       	adc	r21, r1
    2bc4:	fa 01       	movw	r30, r20
    2bc6:	b7 01       	movw	r22, r14
    2bc8:	0e 94 a9 1d 	call	0x3b52	; 0x3b52 <__udivmodhi4>
    2bcc:	80 5d       	subi	r24, 0xD0	; 208
    2bce:	80 83       	st	Z, r24
    2bd0:	cb 01       	movw	r24, r22
    2bd2:	e2 2f       	mov	r30, r18
    2bd4:	00 97       	sbiw	r24, 0x00	; 0
    2bd6:	71 f7       	brne	.-36     	; 0x2bb4 <u16_to_decstr+0x4e>
    2bd8:	a2 2f       	mov	r26, r18
    2bda:	ae 1b       	sub	r26, r30
    2bdc:	a8 01       	movw	r20, r16
    2bde:	4a 0f       	add	r20, r26
    2be0:	51 1d       	adc	r21, r1
    2be2:	ee 23       	and	r30, r30
    2be4:	b1 f2       	breq	.-84     	; 0x2b92 <u16_to_decstr+0x2c>
    2be6:	e1 50       	subi	r30, 0x01	; 1
    2be8:	81 e0       	ldi	r24, 0x01	; 1
    2bea:	90 e0       	ldi	r25, 0x00	; 0
    2bec:	8c 0f       	add	r24, r28
    2bee:	9d 1f       	adc	r25, r29
    2bf0:	8e 0f       	add	r24, r30
    2bf2:	91 1d       	adc	r25, r1
    2bf4:	dc 01       	movw	r26, r24
    2bf6:	8c 91       	ld	r24, X
    2bf8:	da 01       	movw	r26, r20
    2bfa:	8c 93       	st	X, r24
    2bfc:	ed cf       	rjmp	.-38     	; 0x2bd8 <u16_to_decstr+0x72>

00002bfe <u32_to_decstr>:
    2bfe:	8f 92       	push	r8
    2c00:	9f 92       	push	r9
    2c02:	af 92       	push	r10
    2c04:	bf 92       	push	r11
    2c06:	df 92       	push	r13
    2c08:	ef 92       	push	r14
    2c0a:	ff 92       	push	r15
    2c0c:	0f 93       	push	r16
    2c0e:	1f 93       	push	r17
    2c10:	cf 93       	push	r28
    2c12:	df 93       	push	r29
    2c14:	cd b7       	in	r28, 0x3d	; 61
    2c16:	de b7       	in	r29, 0x3e	; 62
    2c18:	2a 97       	sbiw	r28, 0x0a	; 10
    2c1a:	0f b6       	in	r0, 0x3f	; 63
    2c1c:	f8 94       	cli
    2c1e:	de bf       	out	0x3e, r29	; 62
    2c20:	0f be       	out	0x3f, r0	; 63
    2c22:	cd bf       	out	0x3d, r28	; 61
    2c24:	7a 01       	movw	r14, r20
    2c26:	00 e0       	ldi	r16, 0x00	; 0
    2c28:	2a e0       	ldi	r18, 0x0A	; 10
    2c2a:	82 2e       	mov	r8, r18
    2c2c:	91 2c       	mov	r9, r1
    2c2e:	a1 2c       	mov	r10, r1
    2c30:	b1 2c       	mov	r11, r1
    2c32:	61 15       	cp	r22, r1
    2c34:	71 05       	cpc	r23, r1
    2c36:	81 05       	cpc	r24, r1
    2c38:	91 05       	cpc	r25, r1
    2c3a:	e1 f4       	brne	.+56     	; 0x2c74 <u32_to_decstr+0x76>
    2c3c:	80 e3       	ldi	r24, 0x30	; 48
    2c3e:	fa 01       	movw	r30, r20
    2c40:	80 83       	st	Z, r24
    2c42:	dd 24       	eor	r13, r13
    2c44:	d3 94       	inc	r13
    2c46:	f7 01       	movw	r30, r14
    2c48:	ed 0d       	add	r30, r13
    2c4a:	f1 1d       	adc	r31, r1
    2c4c:	10 82       	st	Z, r1
    2c4e:	8d 2d       	mov	r24, r13
    2c50:	2a 96       	adiw	r28, 0x0a	; 10
    2c52:	0f b6       	in	r0, 0x3f	; 63
    2c54:	f8 94       	cli
    2c56:	de bf       	out	0x3e, r29	; 62
    2c58:	0f be       	out	0x3f, r0	; 63
    2c5a:	cd bf       	out	0x3d, r28	; 61
    2c5c:	df 91       	pop	r29
    2c5e:	cf 91       	pop	r28
    2c60:	1f 91       	pop	r17
    2c62:	0f 91       	pop	r16
    2c64:	ff 90       	pop	r15
    2c66:	ef 90       	pop	r14
    2c68:	df 90       	pop	r13
    2c6a:	bf 90       	pop	r11
    2c6c:	af 90       	pop	r10
    2c6e:	9f 90       	pop	r9
    2c70:	8f 90       	pop	r8
    2c72:	08 95       	ret
    2c74:	dd 24       	eor	r13, r13
    2c76:	d3 94       	inc	r13
    2c78:	d0 0e       	add	r13, r16
    2c7a:	21 e0       	ldi	r18, 0x01	; 1
    2c7c:	30 e0       	ldi	r19, 0x00	; 0
    2c7e:	2c 0f       	add	r18, r28
    2c80:	3d 1f       	adc	r19, r29
    2c82:	20 0f       	add	r18, r16
    2c84:	31 1d       	adc	r19, r1
    2c86:	89 01       	movw	r16, r18
    2c88:	a5 01       	movw	r20, r10
    2c8a:	94 01       	movw	r18, r8
    2c8c:	0e 94 d1 1d 	call	0x3ba2	; 0x3ba2 <__udivmodsi4>
    2c90:	60 5d       	subi	r22, 0xD0	; 208
    2c92:	f8 01       	movw	r30, r16
    2c94:	60 83       	st	Z, r22
    2c96:	b9 01       	movw	r22, r18
    2c98:	ca 01       	movw	r24, r20
    2c9a:	0d 2d       	mov	r16, r13
    2c9c:	61 15       	cp	r22, r1
    2c9e:	71 05       	cpc	r23, r1
    2ca0:	81 05       	cpc	r24, r1
    2ca2:	91 05       	cpc	r25, r1
    2ca4:	39 f7       	brne	.-50     	; 0x2c74 <u32_to_decstr+0x76>
    2ca6:	ed 2d       	mov	r30, r13
    2ca8:	e0 1b       	sub	r30, r16
    2caa:	ee 0d       	add	r30, r14
    2cac:	ff 2d       	mov	r31, r15
    2cae:	f1 1d       	adc	r31, r1
    2cb0:	00 23       	and	r16, r16
    2cb2:	49 f2       	breq	.-110    	; 0x2c46 <u32_to_decstr+0x48>
    2cb4:	01 50       	subi	r16, 0x01	; 1
    2cb6:	a1 e0       	ldi	r26, 0x01	; 1
    2cb8:	b0 e0       	ldi	r27, 0x00	; 0
    2cba:	ac 0f       	add	r26, r28
    2cbc:	bd 1f       	adc	r27, r29
    2cbe:	a0 0f       	add	r26, r16
    2cc0:	b1 1d       	adc	r27, r1
    2cc2:	8c 91       	ld	r24, X
    2cc4:	80 83       	st	Z, r24
    2cc6:	ef cf       	rjmp	.-34     	; 0x2ca6 <u32_to_decstr+0xa8>

00002cc8 <ILI9341_RGB565>:
    2cc8:	98 e0       	ldi	r25, 0x08	; 8
    2cca:	69 9f       	mul	r22, r25
    2ccc:	b0 01       	movw	r22, r0
    2cce:	11 24       	eor	r1, r1
    2cd0:	60 7e       	andi	r22, 0xE0	; 224
    2cd2:	77 70       	andi	r23, 0x07	; 7
    2cd4:	46 95       	lsr	r20
    2cd6:	46 95       	lsr	r20
    2cd8:	46 95       	lsr	r20
    2cda:	64 2b       	or	r22, r20
    2cdc:	90 e0       	ldi	r25, 0x00	; 0
    2cde:	98 2f       	mov	r25, r24
    2ce0:	88 27       	eor	r24, r24
    2ce2:	88 27       	eor	r24, r24
    2ce4:	98 7f       	andi	r25, 0xF8	; 248
    2ce6:	86 2b       	or	r24, r22
    2ce8:	97 2b       	or	r25, r23
    2cea:	08 95       	ret

00002cec <ILI9341_draw_rle>:
    2cec:	ef 92       	push	r14
    2cee:	ff 92       	push	r15
    2cf0:	0f 93       	push	r16
    2cf2:	1f 93       	push	r17
    2cf4:	cf 93       	push	r28
    2cf6:	df 93       	push	r29
    2cf8:	ec 01       	movw	r28, r24
    2cfa:	cb 01       	movw	r24, r22
    2cfc:	ba 01       	movw	r22, r20
    2cfe:	a9 01       	movw	r20, r18
    2d00:	9b 01       	movw	r18, r22
    2d02:	20 51       	subi	r18, 0x10	; 16
    2d04:	3f 4f       	sbci	r19, 0xFF	; 255
    2d06:	41 50       	subi	r20, 0x01	; 1
    2d08:	51 09       	sbc	r21, r1
    2d0a:	48 0f       	add	r20, r24
    2d0c:	59 1f       	adc	r21, r25
    2d0e:	0e 94 54 08 	call	0x10a8	; 0x10a8 <ILI9341_Set_Address>
    2d12:	fe 01       	movw	r30, r28
    2d14:	04 91       	lpm	r16, Z
    2d16:	00 23       	and	r16, r16
    2d18:	61 f0       	breq	.+24     	; 0x2d32 <ILI9341_draw_rle+0x46>
    2d1a:	31 96       	adiw	r30, 0x01	; 1
    2d1c:	e5 90       	lpm	r14, Z+
    2d1e:	f4 90       	lpm	r15, Z
    2d20:	10 e0       	ldi	r17, 0x00	; 0
    2d22:	c7 01       	movw	r24, r14
    2d24:	0e 94 cd 06 	call	0xd9a	; 0xd9a <spi_send16>
    2d28:	1f 5f       	subi	r17, 0xFF	; 255
    2d2a:	01 13       	cpse	r16, r17
    2d2c:	fa cf       	rjmp	.-12     	; 0x2d22 <ILI9341_draw_rle+0x36>
    2d2e:	23 96       	adiw	r28, 0x03	; 3
    2d30:	f0 cf       	rjmp	.-32     	; 0x2d12 <ILI9341_draw_rle+0x26>
    2d32:	df 91       	pop	r29
    2d34:	cf 91       	pop	r28
    2d36:	1f 91       	pop	r17
    2d38:	0f 91       	pop	r16
    2d3a:	ff 90       	pop	r15
    2d3c:	ef 90       	pop	r14
    2d3e:	08 95       	ret

00002d40 <draw_rle_bw>:
    2d40:	3f 92       	push	r3
    2d42:	4f 92       	push	r4
    2d44:	5f 92       	push	r5
    2d46:	6f 92       	push	r6
    2d48:	7f 92       	push	r7
    2d4a:	8f 92       	push	r8
    2d4c:	9f 92       	push	r9
    2d4e:	af 92       	push	r10
    2d50:	bf 92       	push	r11
    2d52:	cf 92       	push	r12
    2d54:	df 92       	push	r13
    2d56:	ef 92       	push	r14
    2d58:	ff 92       	push	r15
    2d5a:	0f 93       	push	r16
    2d5c:	1f 93       	push	r17
    2d5e:	cf 93       	push	r28
    2d60:	df 93       	push	r29
    2d62:	00 d0       	rcall	.+0      	; 0x2d64 <draw_rle_bw+0x24>
    2d64:	00 d0       	rcall	.+0      	; 0x2d66 <draw_rle_bw+0x26>
    2d66:	cd b7       	in	r28, 0x3d	; 61
    2d68:	de b7       	in	r29, 0x3e	; 62
    2d6a:	2c 01       	movw	r4, r24
    2d6c:	3b 01       	movw	r6, r22
    2d6e:	5a 01       	movw	r10, r20
    2d70:	49 01       	movw	r8, r18
    2d72:	d1 2c       	mov	r13, r1
    2d74:	c1 2c       	mov	r12, r1
    2d76:	1c 82       	std	Y+4, r1	; 0x04
    2d78:	1b 82       	std	Y+3, r1	; 0x03
    2d7a:	f8 01       	movw	r30, r16
    2d7c:	34 90       	lpm	r3, Z
    2d7e:	31 96       	adiw	r30, 0x01	; 1
    2d80:	e4 91       	lpm	r30, Z
    2d82:	0e 5f       	subi	r16, 0xFE	; 254
    2d84:	1f 4f       	sbci	r17, 0xFF	; 255
    2d86:	33 20       	and	r3, r3
    2d88:	09 f4       	brne	.+2      	; 0x2d8c <draw_rle_bw+0x4c>
    2d8a:	42 c0       	rjmp	.+132    	; 0x2e10 <draw_rle_bw+0xd0>
    2d8c:	81 e0       	ldi	r24, 0x01	; 1
    2d8e:	90 e0       	ldi	r25, 0x00	; 0
    2d90:	e1 11       	cpse	r30, r1
    2d92:	02 c0       	rjmp	.+4      	; 0x2d98 <draw_rle_bw+0x58>
    2d94:	90 e0       	ldi	r25, 0x00	; 0
    2d96:	80 e0       	ldi	r24, 0x00	; 0
    2d98:	22 27       	eor	r18, r18
    2d9a:	33 27       	eor	r19, r19
    2d9c:	28 1b       	sub	r18, r24
    2d9e:	39 0b       	sbc	r19, r25
    2da0:	3a 83       	std	Y+2, r19	; 0x02
    2da2:	29 83       	std	Y+1, r18	; 0x01
    2da4:	83 2d       	mov	r24, r3
    2da6:	90 e0       	ldi	r25, 0x00	; 0
    2da8:	75 01       	movw	r14, r10
    2daa:	eb 81       	ldd	r30, Y+3	; 0x03
    2dac:	fc 81       	ldd	r31, Y+4	; 0x04
    2dae:	ee 1a       	sub	r14, r30
    2db0:	ff 0a       	sbc	r15, r31
    2db2:	8e 15       	cp	r24, r14
    2db4:	9f 05       	cpc	r25, r15
    2db6:	08 f4       	brcc	.+2      	; 0x2dba <draw_rle_bw+0x7a>
    2db8:	7c 01       	movw	r14, r24
    2dba:	8b 81       	ldd	r24, Y+3	; 0x03
    2dbc:	9c 81       	ldd	r25, Y+4	; 0x04
    2dbe:	84 0d       	add	r24, r4
    2dc0:	95 1d       	adc	r25, r5
    2dc2:	ac 01       	movw	r20, r24
    2dc4:	41 50       	subi	r20, 0x01	; 1
    2dc6:	51 09       	sbc	r21, r1
    2dc8:	4e 0d       	add	r20, r14
    2dca:	5f 1d       	adc	r21, r15
    2dcc:	b3 01       	movw	r22, r6
    2dce:	6c 0d       	add	r22, r12
    2dd0:	7d 1d       	adc	r23, r13
    2dd2:	9b 01       	movw	r18, r22
    2dd4:	0e 94 54 08 	call	0x10a8	; 0x10a8 <ILI9341_Set_Address>
    2dd8:	a7 01       	movw	r20, r14
    2dda:	70 e0       	ldi	r23, 0x00	; 0
    2ddc:	60 e0       	ldi	r22, 0x00	; 0
    2dde:	89 81       	ldd	r24, Y+1	; 0x01
    2de0:	9a 81       	ldd	r25, Y+2	; 0x02
    2de2:	0e 94 f9 06 	call	0xdf2	; 0xdf2 <ILI9341_Send_Burst>
    2de6:	3e 18       	sub	r3, r14
    2de8:	2b 81       	ldd	r18, Y+3	; 0x03
    2dea:	3c 81       	ldd	r19, Y+4	; 0x04
    2dec:	2e 0d       	add	r18, r14
    2dee:	3f 1d       	adc	r19, r15
    2df0:	3c 83       	std	Y+4, r19	; 0x04
    2df2:	2b 83       	std	Y+3, r18	; 0x03
    2df4:	2a 15       	cp	r18, r10
    2df6:	3b 05       	cpc	r19, r11
    2df8:	40 f0       	brcs	.+16     	; 0x2e0a <draw_rle_bw+0xca>
    2dfa:	3f ef       	ldi	r19, 0xFF	; 255
    2dfc:	c3 1a       	sub	r12, r19
    2dfe:	d3 0a       	sbc	r13, r19
    2e00:	c8 14       	cp	r12, r8
    2e02:	d9 04       	cpc	r13, r9
    2e04:	28 f4       	brcc	.+10     	; 0x2e10 <draw_rle_bw+0xd0>
    2e06:	1c 82       	std	Y+4, r1	; 0x04
    2e08:	1b 82       	std	Y+3, r1	; 0x03
    2e0a:	31 10       	cpse	r3, r1
    2e0c:	cb cf       	rjmp	.-106    	; 0x2da4 <draw_rle_bw+0x64>
    2e0e:	b5 cf       	rjmp	.-150    	; 0x2d7a <draw_rle_bw+0x3a>
    2e10:	0f 90       	pop	r0
    2e12:	0f 90       	pop	r0
    2e14:	0f 90       	pop	r0
    2e16:	0f 90       	pop	r0
    2e18:	df 91       	pop	r29
    2e1a:	cf 91       	pop	r28
    2e1c:	1f 91       	pop	r17
    2e1e:	0f 91       	pop	r16
    2e20:	ff 90       	pop	r15
    2e22:	ef 90       	pop	r14
    2e24:	df 90       	pop	r13
    2e26:	cf 90       	pop	r12
    2e28:	bf 90       	pop	r11
    2e2a:	af 90       	pop	r10
    2e2c:	9f 90       	pop	r9
    2e2e:	8f 90       	pop	r8
    2e30:	7f 90       	pop	r7
    2e32:	6f 90       	pop	r6
    2e34:	5f 90       	pop	r5
    2e36:	4f 90       	pop	r4
    2e38:	3f 90       	pop	r3
    2e3a:	08 95       	ret

00002e3c <uart_init>:
    2e3c:	9b 01       	movw	r18, r22
    2e3e:	ac 01       	movw	r20, r24
    2e40:	84 e0       	ldi	r24, 0x04	; 4
    2e42:	22 0f       	add	r18, r18
    2e44:	33 1f       	adc	r19, r19
    2e46:	44 1f       	adc	r20, r20
    2e48:	55 1f       	adc	r21, r21
    2e4a:	8a 95       	dec	r24
    2e4c:	d1 f7       	brne	.-12     	; 0x2e42 <uart_init+0x6>
    2e4e:	60 e0       	ldi	r22, 0x00	; 0
    2e50:	7a e5       	ldi	r23, 0x5A	; 90
    2e52:	82 e6       	ldi	r24, 0x62	; 98
    2e54:	92 e0       	ldi	r25, 0x02	; 2
    2e56:	0e 94 d1 1d 	call	0x3ba2	; 0x3ba2 <__udivmodsi4>
    2e5a:	21 50       	subi	r18, 0x01	; 1
    2e5c:	31 09       	sbc	r19, r1
    2e5e:	30 93 90 00 	sts	0x0090, r19	; 0x800090 <__TEXT_REGION_LENGTH__+0x7e0090>
    2e62:	29 b9       	out	0x09, r18	; 9
    2e64:	88 e1       	ldi	r24, 0x18	; 24
    2e66:	8a b9       	out	0x0a, r24	; 10
    2e68:	86 e0       	ldi	r24, 0x06	; 6
    2e6a:	80 93 95 00 	sts	0x0095, r24	; 0x800095 <__TEXT_REGION_LENGTH__+0x7e0095>
    2e6e:	08 95       	ret

00002e70 <uart_tx>:
    2e70:	5d 9b       	sbis	0x0b, 5	; 11
    2e72:	fe cf       	rjmp	.-4      	; 0x2e70 <uart_tx>
    2e74:	8c b9       	out	0x0c, r24	; 12
    2e76:	08 95       	ret

00002e78 <uart_print>:
    2e78:	cf 93       	push	r28
    2e7a:	df 93       	push	r29
    2e7c:	ec 01       	movw	r28, r24
    2e7e:	89 91       	ld	r24, Y+
    2e80:	81 11       	cpse	r24, r1
    2e82:	03 c0       	rjmp	.+6      	; 0x2e8a <uart_print+0x12>
    2e84:	df 91       	pop	r29
    2e86:	cf 91       	pop	r28
    2e88:	08 95       	ret
    2e8a:	0e 94 38 17 	call	0x2e70	; 0x2e70 <uart_tx>
    2e8e:	f7 cf       	rjmp	.-18     	; 0x2e7e <uart_print+0x6>

00002e90 <uart_putc>:
    2e90:	0c 94 38 17 	jmp	0x2e70	; 0x2e70 <uart_tx>

00002e94 <uart_print_hex16>:
    2e94:	0f 93       	push	r16
    2e96:	1f 93       	push	r17
    2e98:	cf 93       	push	r28
    2e9a:	df 93       	push	r29
    2e9c:	cd b7       	in	r28, 0x3d	; 61
    2e9e:	de b7       	in	r29, 0x3e	; 62
    2ea0:	61 97       	sbiw	r28, 0x11	; 17
    2ea2:	0f b6       	in	r0, 0x3f	; 63
    2ea4:	f8 94       	cli
    2ea6:	de bf       	out	0x3e, r29	; 62
    2ea8:	0f be       	out	0x3f, r0	; 63
    2eaa:	cd bf       	out	0x3d, r28	; 61
    2eac:	8c 01       	movw	r16, r24
    2eae:	81 e1       	ldi	r24, 0x11	; 17
    2eb0:	e2 e6       	ldi	r30, 0x62	; 98
    2eb2:	f1 e0       	ldi	r31, 0x01	; 1
    2eb4:	de 01       	movw	r26, r28
    2eb6:	11 96       	adiw	r26, 0x01	; 1
    2eb8:	01 90       	ld	r0, Z+
    2eba:	0d 92       	st	X+, r0
    2ebc:	8a 95       	dec	r24
    2ebe:	e1 f7       	brne	.-8      	; 0x2eb8 <uart_print_hex16+0x24>
    2ec0:	f8 01       	movw	r30, r16
    2ec2:	ef 2f       	mov	r30, r31
    2ec4:	ff 27       	eor	r31, r31
    2ec6:	e2 95       	swap	r30
    2ec8:	ef 70       	andi	r30, 0x0F	; 15
    2eca:	81 e0       	ldi	r24, 0x01	; 1
    2ecc:	90 e0       	ldi	r25, 0x00	; 0
    2ece:	8c 0f       	add	r24, r28
    2ed0:	9d 1f       	adc	r25, r29
    2ed2:	e8 0f       	add	r30, r24
    2ed4:	f9 1f       	adc	r31, r25
    2ed6:	80 81       	ld	r24, Z
    2ed8:	0e 94 38 17 	call	0x2e70	; 0x2e70 <uart_tx>
    2edc:	e1 2f       	mov	r30, r17
    2ede:	ff 27       	eor	r31, r31
    2ee0:	ef 70       	andi	r30, 0x0F	; 15
    2ee2:	ff 27       	eor	r31, r31
    2ee4:	81 e0       	ldi	r24, 0x01	; 1
    2ee6:	90 e0       	ldi	r25, 0x00	; 0
    2ee8:	8c 0f       	add	r24, r28
    2eea:	9d 1f       	adc	r25, r29
    2eec:	e8 0f       	add	r30, r24
    2eee:	f9 1f       	adc	r31, r25
    2ef0:	80 81       	ld	r24, Z
    2ef2:	0e 94 38 17 	call	0x2e70	; 0x2e70 <uart_tx>
    2ef6:	f8 01       	movw	r30, r16
    2ef8:	24 e0       	ldi	r18, 0x04	; 4
    2efa:	f6 95       	lsr	r31
    2efc:	e7 95       	ror	r30
    2efe:	2a 95       	dec	r18
    2f00:	e1 f7       	brne	.-8      	; 0x2efa <uart_print_hex16+0x66>
    2f02:	ef 70       	andi	r30, 0x0F	; 15
    2f04:	ff 27       	eor	r31, r31
    2f06:	81 e0       	ldi	r24, 0x01	; 1
    2f08:	90 e0       	ldi	r25, 0x00	; 0
    2f0a:	8c 0f       	add	r24, r28
    2f0c:	9d 1f       	adc	r25, r29
    2f0e:	e8 0f       	add	r30, r24
    2f10:	f9 1f       	adc	r31, r25
    2f12:	80 81       	ld	r24, Z
    2f14:	0e 94 38 17 	call	0x2e70	; 0x2e70 <uart_tx>
    2f18:	f8 01       	movw	r30, r16
    2f1a:	ef 70       	andi	r30, 0x0F	; 15
    2f1c:	ff 27       	eor	r31, r31
    2f1e:	81 e0       	ldi	r24, 0x01	; 1
    2f20:	90 e0       	ldi	r25, 0x00	; 0
    2f22:	8c 0f       	add	r24, r28
    2f24:	9d 1f       	adc	r25, r29
    2f26:	e8 0f       	add	r30, r24
    2f28:	f9 1f       	adc	r31, r25
    2f2a:	80 81       	ld	r24, Z
    2f2c:	61 96       	adiw	r28, 0x11	; 17
    2f2e:	0f b6       	in	r0, 0x3f	; 63
    2f30:	f8 94       	cli
    2f32:	de bf       	out	0x3e, r29	; 62
    2f34:	0f be       	out	0x3f, r0	; 63
    2f36:	cd bf       	out	0x3d, r28	; 61
    2f38:	df 91       	pop	r29
    2f3a:	cf 91       	pop	r28
    2f3c:	1f 91       	pop	r17
    2f3e:	0f 91       	pop	r16
    2f40:	0c 94 38 17 	jmp	0x2e70	; 0x2e70 <uart_tx>

00002f44 <uart_print_int16>:
    2f44:	ff 92       	push	r15
    2f46:	0f 93       	push	r16
    2f48:	1f 93       	push	r17
    2f4a:	cf 93       	push	r28
    2f4c:	df 93       	push	r29
    2f4e:	00 d0       	rcall	.+0      	; 0x2f50 <uart_print_int16+0xc>
    2f50:	00 d0       	rcall	.+0      	; 0x2f52 <uart_print_int16+0xe>
    2f52:	00 d0       	rcall	.+0      	; 0x2f54 <uart_print_int16+0x10>
    2f54:	1f 92       	push	r1
    2f56:	cd b7       	in	r28, 0x3d	; 61
    2f58:	de b7       	in	r29, 0x3e	; 62
    2f5a:	8c 01       	movw	r16, r24
    2f5c:	97 ff       	sbrs	r25, 7
    2f5e:	06 c0       	rjmp	.+12     	; 0x2f6c <uart_print_int16+0x28>
    2f60:	8d e2       	ldi	r24, 0x2D	; 45
    2f62:	0e 94 38 17 	call	0x2e70	; 0x2e70 <uart_tx>
    2f66:	11 95       	neg	r17
    2f68:	01 95       	neg	r16
    2f6a:	11 09       	sbc	r17, r1
    2f6c:	e0 e0       	ldi	r30, 0x00	; 0
    2f6e:	2a e0       	ldi	r18, 0x0A	; 10
    2f70:	30 e0       	ldi	r19, 0x00	; 0
    2f72:	ff 24       	eor	r15, r15
    2f74:	f3 94       	inc	r15
    2f76:	fe 0e       	add	r15, r30
    2f78:	81 e0       	ldi	r24, 0x01	; 1
    2f7a:	90 e0       	ldi	r25, 0x00	; 0
    2f7c:	8c 0f       	add	r24, r28
    2f7e:	9d 1f       	adc	r25, r29
    2f80:	8e 0f       	add	r24, r30
    2f82:	91 1d       	adc	r25, r1
    2f84:	fc 01       	movw	r30, r24
    2f86:	c8 01       	movw	r24, r16
    2f88:	b9 01       	movw	r22, r18
    2f8a:	0e 94 bd 1d 	call	0x3b7a	; 0x3b7a <__divmodhi4>
    2f8e:	80 5d       	subi	r24, 0xD0	; 208
    2f90:	80 83       	st	Z, r24
    2f92:	8b 01       	movw	r16, r22
    2f94:	ef 2d       	mov	r30, r15
    2f96:	67 2b       	or	r22, r23
    2f98:	61 f7       	brne	.-40     	; 0x2f72 <uart_print_int16+0x2e>
    2f9a:	fa 94       	dec	r15
    2f9c:	9f ef       	ldi	r25, 0xFF	; 255
    2f9e:	f9 12       	cpse	r15, r25
    2fa0:	0c c0       	rjmp	.+24     	; 0x2fba <uart_print_int16+0x76>
    2fa2:	27 96       	adiw	r28, 0x07	; 7
    2fa4:	0f b6       	in	r0, 0x3f	; 63
    2fa6:	f8 94       	cli
    2fa8:	de bf       	out	0x3e, r29	; 62
    2faa:	0f be       	out	0x3f, r0	; 63
    2fac:	cd bf       	out	0x3d, r28	; 61
    2fae:	df 91       	pop	r29
    2fb0:	cf 91       	pop	r28
    2fb2:	1f 91       	pop	r17
    2fb4:	0f 91       	pop	r16
    2fb6:	ff 90       	pop	r15
    2fb8:	08 95       	ret
    2fba:	e1 e0       	ldi	r30, 0x01	; 1
    2fbc:	f0 e0       	ldi	r31, 0x00	; 0
    2fbe:	ec 0f       	add	r30, r28
    2fc0:	fd 1f       	adc	r31, r29
    2fc2:	ef 0d       	add	r30, r15
    2fc4:	f1 1d       	adc	r31, r1
    2fc6:	80 81       	ld	r24, Z
    2fc8:	0e 94 38 17 	call	0x2e70	; 0x2e70 <uart_tx>
    2fcc:	e6 cf       	rjmp	.-52     	; 0x2f9a <uart_print_int16+0x56>

00002fce <uart_print_hex>:
    2fce:	1f 93       	push	r17
    2fd0:	cf 93       	push	r28
    2fd2:	df 93       	push	r29
    2fd4:	cd b7       	in	r28, 0x3d	; 61
    2fd6:	de b7       	in	r29, 0x3e	; 62
    2fd8:	61 97       	sbiw	r28, 0x11	; 17
    2fda:	0f b6       	in	r0, 0x3f	; 63
    2fdc:	f8 94       	cli
    2fde:	de bf       	out	0x3e, r29	; 62
    2fe0:	0f be       	out	0x3f, r0	; 63
    2fe2:	cd bf       	out	0x3d, r28	; 61
    2fe4:	18 2f       	mov	r17, r24
    2fe6:	81 e1       	ldi	r24, 0x11	; 17
    2fe8:	e2 e6       	ldi	r30, 0x62	; 98
    2fea:	f1 e0       	ldi	r31, 0x01	; 1
    2fec:	de 01       	movw	r26, r28
    2fee:	11 96       	adiw	r26, 0x01	; 1
    2ff0:	01 90       	ld	r0, Z+
    2ff2:	0d 92       	st	X+, r0
    2ff4:	8a 95       	dec	r24
    2ff6:	e1 f7       	brne	.-8      	; 0x2ff0 <uart_print_hex+0x22>
    2ff8:	e1 2f       	mov	r30, r17
    2ffa:	e2 95       	swap	r30
    2ffc:	ef 70       	andi	r30, 0x0F	; 15
    2ffe:	81 e0       	ldi	r24, 0x01	; 1
    3000:	90 e0       	ldi	r25, 0x00	; 0
    3002:	8c 0f       	add	r24, r28
    3004:	9d 1f       	adc	r25, r29
    3006:	8e 0f       	add	r24, r30
    3008:	91 1d       	adc	r25, r1
    300a:	fc 01       	movw	r30, r24
    300c:	80 81       	ld	r24, Z
    300e:	0e 94 38 17 	call	0x2e70	; 0x2e70 <uart_tx>
    3012:	e1 2f       	mov	r30, r17
    3014:	ef 70       	andi	r30, 0x0F	; 15
    3016:	81 e0       	ldi	r24, 0x01	; 1
    3018:	90 e0       	ldi	r25, 0x00	; 0
    301a:	8c 0f       	add	r24, r28
    301c:	9d 1f       	adc	r25, r29
    301e:	8e 0f       	add	r24, r30
    3020:	91 1d       	adc	r25, r1
    3022:	fc 01       	movw	r30, r24
    3024:	80 81       	ld	r24, Z
    3026:	61 96       	adiw	r28, 0x11	; 17
    3028:	0f b6       	in	r0, 0x3f	; 63
    302a:	f8 94       	cli
    302c:	de bf       	out	0x3e, r29	; 62
    302e:	0f be       	out	0x3f, r0	; 63
    3030:	cd bf       	out	0x3d, r28	; 61
    3032:	df 91       	pop	r29
    3034:	cf 91       	pop	r28
    3036:	1f 91       	pop	r17
    3038:	0c 94 38 17 	jmp	0x2e70	; 0x2e70 <uart_tx>

0000303c <leds_init>:
    303c:	8f ef       	ldi	r24, 0xFF	; 255
    303e:	8a bb       	out	0x1a, r24	; 26
    3040:	80 e8       	ldi	r24, 0x80	; 128
    3042:	8b bb       	out	0x1b, r24	; 27
    3044:	08 95       	ret

00003046 <leds_field_carrier_on>:
    3046:	d8 9a       	sbi	0x1b, 0	; 27
    3048:	08 95       	ret

0000304a <leds_field_carrier_off>:
    304a:	d8 98       	cbi	0x1b, 0	; 27
    304c:	08 95       	ret

0000304e <leds_field_mod_on>:
    304e:	d9 9a       	sbi	0x1b, 1	; 27
    3050:	08 95       	ret

00003052 <leds_field_mod_off>:
    3052:	d9 98       	cbi	0x1b, 1	; 27
    3054:	08 95       	ret

00003056 <leds_field_mag_on>:
    3056:	da 9a       	sbi	0x1b, 2	; 27
    3058:	08 95       	ret

0000305a <leds_field_mag_off>:
    305a:	da 98       	cbi	0x1b, 2	; 27
    305c:	08 95       	ret

0000305e <leds_field_dead_on>:
    305e:	db 9a       	sbi	0x1b, 3	; 27
    3060:	08 95       	ret

00003062 <leds_field_dead_off>:
    3062:	db 98       	cbi	0x1b, 3	; 27
    3064:	08 95       	ret

00003066 <leds_output_set>:
    3066:	08 95       	ret

00003068 <keypad_init>:
    3068:	12 ba       	out	0x12, r1	; 18
    306a:	08 95       	ret

0000306c <keypad_poll>:
    306c:	fc 01       	movw	r30, r24
    306e:	90 b3       	in	r25, 0x10	; 16
    3070:	90 ff       	sbrs	r25, 0
    3072:	09 c0       	rjmp	.+18     	; 0x3086 <keypad_poll+0x1a>
    3074:	21 b3       	in	r18, 0x11	; 17
    3076:	2f 70       	andi	r18, 0x0F	; 15
    3078:	20 83       	st	Z, r18
    307a:	96 95       	lsr	r25
    307c:	91 70       	andi	r25, 0x01	; 1
    307e:	fb 01       	movw	r30, r22
    3080:	90 83       	st	Z, r25
    3082:	81 e0       	ldi	r24, 0x01	; 1
    3084:	08 95       	ret
    3086:	80 e0       	ldi	r24, 0x00	; 0
    3088:	08 95       	ret

0000308a <encoder_get_delta>:
    308a:	8c b3       	in	r24, 0x1c	; 28
    308c:	90 91 f0 01 	lds	r25, 0x01F0	; 0x8001f0 <prev.1680>
    3090:	80 93 f0 01 	sts	0x01F0, r24	; 0x8001f0 <prev.1680>
    3094:	89 1b       	sub	r24, r25
    3096:	08 95       	ret

00003098 <encoder_read>:
    3098:	9d b3       	in	r25, 0x1d	; 29
    309a:	8c b3       	in	r24, 0x1c	; 28
    309c:	08 95       	ret

0000309e <update_param_32>:
    309e:	4f 92       	push	r4
    30a0:	5f 92       	push	r5
    30a2:	6f 92       	push	r6
    30a4:	7f 92       	push	r7
    30a6:	af 92       	push	r10
    30a8:	bf 92       	push	r11
    30aa:	cf 92       	push	r12
    30ac:	df 92       	push	r13
    30ae:	ef 92       	push	r14
    30b0:	ff 92       	push	r15
    30b2:	0f 93       	push	r16
    30b4:	1f 93       	push	r17
    30b6:	cf 93       	push	r28
    30b8:	df 93       	push	r29
    30ba:	cd b7       	in	r28, 0x3d	; 61
    30bc:	de b7       	in	r29, 0x3e	; 62
    30be:	28 97       	sbiw	r28, 0x08	; 8
    30c0:	0f b6       	in	r0, 0x3f	; 63
    30c2:	f8 94       	cli
    30c4:	de bf       	out	0x3e, r29	; 62
    30c6:	0f be       	out	0x3f, r0	; 63
    30c8:	cd bf       	out	0x3d, r28	; 61
    30ca:	2b 01       	movw	r4, r22
    30cc:	3c 01       	movw	r6, r24
    30ce:	29 83       	std	Y+1, r18	; 0x01
    30d0:	3a 83       	std	Y+2, r19	; 0x02
    30d2:	4b 83       	std	Y+3, r20	; 0x03
    30d4:	5c 83       	std	Y+4, r21	; 0x04
    30d6:	ed 82       	std	Y+5, r14	; 0x05
    30d8:	fe 82       	std	Y+6, r15	; 0x06
    30da:	0f 83       	std	Y+7, r16	; 0x07
    30dc:	18 87       	std	Y+8, r17	; 0x08
    30de:	0e 94 4c 18 	call	0x3098	; 0x3098 <encoder_read>
    30e2:	20 91 f1 01 	lds	r18, 0x01F1	; 0x8001f1 <prev_det>
    30e6:	30 91 f2 01 	lds	r19, 0x01F2	; 0x8001f2 <prev_det+0x1>
    30ea:	dc 01       	movw	r26, r24
    30ec:	a2 1b       	sub	r26, r18
    30ee:	b3 0b       	sbc	r27, r19
    30f0:	90 93 f2 01 	sts	0x01F2, r25	; 0x8001f2 <prev_det+0x1>
    30f4:	80 93 f1 01 	sts	0x01F1, r24	; 0x8001f1 <prev_det>
    30f8:	10 97       	sbiw	r26, 0x00	; 0
    30fa:	f1 f0       	breq	.+60     	; 0x3138 <update_param_32+0x9a>
    30fc:	a6 01       	movw	r20, r12
    30fe:	95 01       	movw	r18, r10
    3100:	0e 94 1a 1e 	call	0x3c34	; 0x3c34 <__mulshisi3>
    3104:	46 0e       	add	r4, r22
    3106:	57 1e       	adc	r5, r23
    3108:	68 1e       	adc	r6, r24
    310a:	79 1e       	adc	r7, r25
    310c:	89 81       	ldd	r24, Y+1	; 0x01
    310e:	9a 81       	ldd	r25, Y+2	; 0x02
    3110:	ab 81       	ldd	r26, Y+3	; 0x03
    3112:	bc 81       	ldd	r27, Y+4	; 0x04
    3114:	48 16       	cp	r4, r24
    3116:	59 06       	cpc	r5, r25
    3118:	6a 06       	cpc	r6, r26
    311a:	7b 06       	cpc	r7, r27
    311c:	10 f4       	brcc	.+4      	; 0x3122 <update_param_32+0x84>
    311e:	2c 01       	movw	r4, r24
    3120:	3d 01       	movw	r6, r26
    3122:	8d 81       	ldd	r24, Y+5	; 0x05
    3124:	9e 81       	ldd	r25, Y+6	; 0x06
    3126:	af 81       	ldd	r26, Y+7	; 0x07
    3128:	b8 85       	ldd	r27, Y+8	; 0x08
    312a:	84 15       	cp	r24, r4
    312c:	95 05       	cpc	r25, r5
    312e:	a6 05       	cpc	r26, r6
    3130:	b7 05       	cpc	r27, r7
    3132:	10 f4       	brcc	.+4      	; 0x3138 <update_param_32+0x9a>
    3134:	2c 01       	movw	r4, r24
    3136:	3d 01       	movw	r6, r26
    3138:	c3 01       	movw	r24, r6
    313a:	b2 01       	movw	r22, r4
    313c:	28 96       	adiw	r28, 0x08	; 8
    313e:	0f b6       	in	r0, 0x3f	; 63
    3140:	f8 94       	cli
    3142:	de bf       	out	0x3e, r29	; 62
    3144:	0f be       	out	0x3f, r0	; 63
    3146:	cd bf       	out	0x3d, r28	; 61
    3148:	df 91       	pop	r29
    314a:	cf 91       	pop	r28
    314c:	1f 91       	pop	r17
    314e:	0f 91       	pop	r16
    3150:	ff 90       	pop	r15
    3152:	ef 90       	pop	r14
    3154:	df 90       	pop	r13
    3156:	cf 90       	pop	r12
    3158:	bf 90       	pop	r11
    315a:	af 90       	pop	r10
    315c:	7f 90       	pop	r7
    315e:	6f 90       	pop	r6
    3160:	5f 90       	pop	r5
    3162:	4f 90       	pop	r4
    3164:	08 95       	ret

00003166 <update_param_16>:
    3166:	cf 92       	push	r12
    3168:	df 92       	push	r13
    316a:	ef 92       	push	r14
    316c:	ff 92       	push	r15
    316e:	0f 93       	push	r16
    3170:	1f 93       	push	r17
    3172:	cf 93       	push	r28
    3174:	df 93       	push	r29
    3176:	ec 01       	movw	r28, r24
    3178:	7b 01       	movw	r14, r22
    317a:	8a 01       	movw	r16, r20
    317c:	69 01       	movw	r12, r18
    317e:	0e 94 4c 18 	call	0x3098	; 0x3098 <encoder_read>
    3182:	20 91 f1 01 	lds	r18, 0x01F1	; 0x8001f1 <prev_det>
    3186:	30 91 f2 01 	lds	r19, 0x01F2	; 0x8001f2 <prev_det+0x1>
    318a:	ac 01       	movw	r20, r24
    318c:	42 1b       	sub	r20, r18
    318e:	53 0b       	sbc	r21, r19
    3190:	90 93 f2 01 	sts	0x01F2, r25	; 0x8001f2 <prev_det+0x1>
    3194:	80 93 f1 01 	sts	0x01F1, r24	; 0x8001f1 <prev_det>
    3198:	41 15       	cp	r20, r1
    319a:	51 05       	cpc	r21, r1
    319c:	89 f0       	breq	.+34     	; 0x31c0 <update_param_16+0x5a>
    319e:	4c 9d       	mul	r20, r12
    31a0:	c0 01       	movw	r24, r0
    31a2:	4d 9d       	mul	r20, r13
    31a4:	90 0d       	add	r25, r0
    31a6:	5c 9d       	mul	r21, r12
    31a8:	90 0d       	add	r25, r0
    31aa:	11 24       	eor	r1, r1
    31ac:	c8 0f       	add	r28, r24
    31ae:	d9 1f       	adc	r29, r25
    31b0:	ce 15       	cp	r28, r14
    31b2:	df 05       	cpc	r29, r15
    31b4:	08 f4       	brcc	.+2      	; 0x31b8 <update_param_16+0x52>
    31b6:	e7 01       	movw	r28, r14
    31b8:	0c 17       	cp	r16, r28
    31ba:	1d 07       	cpc	r17, r29
    31bc:	08 f4       	brcc	.+2      	; 0x31c0 <update_param_16+0x5a>
    31be:	e8 01       	movw	r28, r16
    31c0:	ce 01       	movw	r24, r28
    31c2:	df 91       	pop	r29
    31c4:	cf 91       	pop	r28
    31c6:	1f 91       	pop	r17
    31c8:	0f 91       	pop	r16
    31ca:	ff 90       	pop	r15
    31cc:	ef 90       	pop	r14
    31ce:	df 90       	pop	r13
    31d0:	cf 90       	pop	r12
    31d2:	08 95       	ret

000031d4 <update_param_16_signed>:
    31d4:	8f 92       	push	r8
    31d6:	9f 92       	push	r9
    31d8:	af 92       	push	r10
    31da:	bf 92       	push	r11
    31dc:	ef 92       	push	r14
    31de:	ff 92       	push	r15
    31e0:	0f 93       	push	r16
    31e2:	1f 93       	push	r17
    31e4:	4c 01       	movw	r8, r24
    31e6:	8b 01       	movw	r16, r22
    31e8:	7a 01       	movw	r14, r20
    31ea:	59 01       	movw	r10, r18
    31ec:	0e 94 4c 18 	call	0x3098	; 0x3098 <encoder_read>
    31f0:	20 91 ee 01 	lds	r18, 0x01EE	; 0x8001ee <__data_end>
    31f4:	30 91 ef 01 	lds	r19, 0x01EF	; 0x8001ef <__data_end+0x1>
    31f8:	ac 01       	movw	r20, r24
    31fa:	42 1b       	sub	r20, r18
    31fc:	53 0b       	sbc	r21, r19
    31fe:	9a 01       	movw	r18, r20
    3200:	90 93 ef 01 	sts	0x01EF, r25	; 0x8001ef <__data_end+0x1>
    3204:	80 93 ee 01 	sts	0x01EE, r24	; 0x8001ee <__data_end>
    3208:	45 2b       	or	r20, r21
    320a:	01 f1       	breq	.+64     	; 0x324c <update_param_16_signed+0x78>
    320c:	d5 01       	movw	r26, r10
    320e:	0e 94 fc 1d 	call	0x3bf8	; 0x3bf8 <__mulhisi3>
    3212:	09 2c       	mov	r0, r9
    3214:	00 0c       	add	r0, r0
    3216:	aa 08       	sbc	r10, r10
    3218:	bb 08       	sbc	r11, r11
    321a:	86 0e       	add	r8, r22
    321c:	97 1e       	adc	r9, r23
    321e:	a8 1e       	adc	r10, r24
    3220:	b9 1e       	adc	r11, r25
    3222:	01 2e       	mov	r0, r17
    3224:	00 0c       	add	r0, r0
    3226:	22 0b       	sbc	r18, r18
    3228:	33 0b       	sbc	r19, r19
    322a:	08 15       	cp	r16, r8
    322c:	19 05       	cpc	r17, r9
    322e:	2a 05       	cpc	r18, r10
    3230:	3b 05       	cpc	r19, r11
    3232:	14 f4       	brge	.+4      	; 0x3238 <update_param_16_signed+0x64>
    3234:	95 01       	movw	r18, r10
    3236:	84 01       	movw	r16, r8
    3238:	47 01       	movw	r8, r14
    323a:	ff 0c       	add	r15, r15
    323c:	aa 08       	sbc	r10, r10
    323e:	bb 08       	sbc	r11, r11
    3240:	08 15       	cp	r16, r8
    3242:	19 05       	cpc	r17, r9
    3244:	2a 05       	cpc	r18, r10
    3246:	3b 05       	cpc	r19, r11
    3248:	0c f4       	brge	.+2      	; 0x324c <update_param_16_signed+0x78>
    324a:	48 01       	movw	r8, r16
    324c:	c4 01       	movw	r24, r8
    324e:	1f 91       	pop	r17
    3250:	0f 91       	pop	r16
    3252:	ff 90       	pop	r15
    3254:	ef 90       	pop	r14
    3256:	bf 90       	pop	r11
    3258:	af 90       	pop	r10
    325a:	9f 90       	pop	r9
    325c:	8f 90       	pop	r8
    325e:	08 95       	ret

00003260 <update_param_8>:
    3260:	0f 93       	push	r16
    3262:	1f 93       	push	r17
    3264:	cf 93       	push	r28
    3266:	df 93       	push	r29
    3268:	c8 2f       	mov	r28, r24
    326a:	16 2f       	mov	r17, r22
    326c:	d4 2f       	mov	r29, r20
    326e:	02 2f       	mov	r16, r18
    3270:	0e 94 4c 18 	call	0x3098	; 0x3098 <encoder_read>
    3274:	20 91 f1 01 	lds	r18, 0x01F1	; 0x8001f1 <prev_det>
    3278:	30 91 f2 01 	lds	r19, 0x01F2	; 0x8001f2 <prev_det+0x1>
    327c:	ac 01       	movw	r20, r24
    327e:	42 1b       	sub	r20, r18
    3280:	53 0b       	sbc	r21, r19
    3282:	90 93 f2 01 	sts	0x01F2, r25	; 0x8001f2 <prev_det+0x1>
    3286:	80 93 f1 01 	sts	0x01F1, r24	; 0x8001f1 <prev_det>
    328a:	81 e0       	ldi	r24, 0x01	; 1
    328c:	14 16       	cp	r1, r20
    328e:	15 06       	cpc	r1, r21
    3290:	4c f0       	brlt	.+18     	; 0x32a4 <update_param_8+0x44>
    3292:	8f ef       	ldi	r24, 0xFF	; 255
    3294:	45 2b       	or	r20, r21
    3296:	31 f4       	brne	.+12     	; 0x32a4 <update_param_8+0x44>
    3298:	8c 2f       	mov	r24, r28
    329a:	df 91       	pop	r29
    329c:	cf 91       	pop	r28
    329e:	1f 91       	pop	r17
    32a0:	0f 91       	pop	r16
    32a2:	08 95       	ret
    32a4:	08 9f       	mul	r16, r24
    32a6:	c0 0d       	add	r28, r0
    32a8:	11 24       	eor	r1, r1
    32aa:	8c 2f       	mov	r24, r28
    32ac:	2c 2f       	mov	r18, r28
    32ae:	cc 0f       	add	r28, r28
    32b0:	33 0b       	sbc	r19, r19
    32b2:	12 17       	cp	r17, r18
    32b4:	13 06       	cpc	r1, r19
    32b6:	11 f0       	breq	.+4      	; 0x32bc <update_param_8+0x5c>
    32b8:	0c f0       	brlt	.+2      	; 0x32bc <update_param_8+0x5c>
    32ba:	81 2f       	mov	r24, r17
    32bc:	28 2f       	mov	r18, r24
    32be:	08 2e       	mov	r0, r24
    32c0:	00 0c       	add	r0, r0
    32c2:	33 0b       	sbc	r19, r19
    32c4:	d2 17       	cp	r29, r18
    32c6:	13 06       	cpc	r1, r19
    32c8:	0c f4       	brge	.+2      	; 0x32cc <update_param_8+0x6c>
    32ca:	8d 2f       	mov	r24, r29
    32cc:	c8 2f       	mov	r28, r24
    32ce:	e4 cf       	rjmp	.-56     	; 0x3298 <update_param_8+0x38>

000032d0 <set_base_time>:
    32d0:	84 bb       	out	0x14, r24	; 20
    32d2:	08 95       	ret

000032d4 <set_trigger_level>:
    32d4:	9f 70       	andi	r25, 0x0F	; 15
    32d6:	93 70       	andi	r25, 0x03	; 3
    32d8:	83 bb       	out	0x13, r24	; 19
    32da:	93 bb       	out	0x13, r25	; 19
    32dc:	08 95       	ret

000032de <draw_trig_mode_btn>:
    32de:	81 e0       	ldi	r24, 0x01	; 1
    32e0:	0e 94 a2 10 	call	0x2144	; 0x2144 <setTextSize>
    32e4:	70 e0       	ldi	r23, 0x00	; 0
    32e6:	60 e0       	ldi	r22, 0x00	; 0
    32e8:	8f ef       	ldi	r24, 0xFF	; 255
    32ea:	9f ef       	ldi	r25, 0xFF	; 255
    32ec:	0e 94 99 10 	call	0x2132	; 0x2132 <setTextColor>
    32f0:	80 91 07 02 	lds	r24, 0x0207	; 0x800207 <trigger_mode>
    32f4:	81 30       	cpi	r24, 0x01	; 1
    32f6:	69 f0       	breq	.+26     	; 0x3312 <draw_trig_mode_btn+0x34>
    32f8:	a8 f0       	brcs	.+42     	; 0x3324 <draw_trig_mode_btn+0x46>
    32fa:	82 30       	cpi	r24, 0x02	; 2
    32fc:	e1 f4       	brne	.+56     	; 0x3336 <draw_trig_mode_btn+0x58>
    32fe:	68 e1       	ldi	r22, 0x18	; 24
    3300:	70 e0       	ldi	r23, 0x00	; 0
    3302:	8e e0       	ldi	r24, 0x0E	; 14
    3304:	91 e0       	ldi	r25, 0x01	; 1
    3306:	0e 94 14 0b 	call	0x1628	; 0x1628 <ILI9341_set_cursor>
    330a:	83 e7       	ldi	r24, 0x73	; 115
    330c:	91 e0       	ldi	r25, 0x01	; 1
    330e:	0c 94 a7 15 	jmp	0x2b4e	; 0x2b4e <ILI9341_Print>
    3312:	68 e1       	ldi	r22, 0x18	; 24
    3314:	70 e0       	ldi	r23, 0x00	; 0
    3316:	8e e0       	ldi	r24, 0x0E	; 14
    3318:	91 e0       	ldi	r25, 0x01	; 1
    331a:	0e 94 14 0b 	call	0x1628	; 0x1628 <ILI9341_set_cursor>
    331e:	88 e7       	ldi	r24, 0x78	; 120
    3320:	91 e0       	ldi	r25, 0x01	; 1
    3322:	f5 cf       	rjmp	.-22     	; 0x330e <draw_trig_mode_btn+0x30>
    3324:	68 e1       	ldi	r22, 0x18	; 24
    3326:	70 e0       	ldi	r23, 0x00	; 0
    3328:	8e e0       	ldi	r24, 0x0E	; 14
    332a:	91 e0       	ldi	r25, 0x01	; 1
    332c:	0e 94 14 0b 	call	0x1628	; 0x1628 <ILI9341_set_cursor>
    3330:	8d e7       	ldi	r24, 0x7D	; 125
    3332:	91 e0       	ldi	r25, 0x01	; 1
    3334:	ec cf       	rjmp	.-40     	; 0x330e <draw_trig_mode_btn+0x30>
    3336:	08 95       	ret

00003338 <draw_trig_slope_btn>:
    3338:	0f 93       	push	r16
    333a:	1f 93       	push	r17
    333c:	10 e0       	ldi	r17, 0x00	; 0
    333e:	00 e0       	ldi	r16, 0x00	; 0
    3340:	2a e2       	ldi	r18, 0x2A	; 42
    3342:	30 e0       	ldi	r19, 0x00	; 0
    3344:	4a e2       	ldi	r20, 0x2A	; 42
    3346:	50 e0       	ldi	r21, 0x00	; 0
    3348:	69 e3       	ldi	r22, 0x39	; 57
    334a:	70 e0       	ldi	r23, 0x00	; 0
    334c:	8a e0       	ldi	r24, 0x0A	; 10
    334e:	91 e0       	ldi	r25, 0x01	; 1
    3350:	0e 94 73 0e 	call	0x1ce6	; 0x1ce6 <fillRect>
    3354:	80 91 06 02 	lds	r24, 0x0206	; 0x800206 <trigger_slope>
    3358:	88 23       	and	r24, r24
    335a:	29 f0       	breq	.+10     	; 0x3366 <draw_trig_slope_btn+0x2e>
    335c:	81 30       	cpi	r24, 0x01	; 1
    335e:	d1 f0       	breq	.+52     	; 0x3394 <draw_trig_slope_btn+0x5c>
    3360:	1f 91       	pop	r17
    3362:	0f 91       	pop	r16
    3364:	08 95       	ret
    3366:	0b e4       	ldi	r16, 0x4B	; 75
    3368:	10 e0       	ldi	r17, 0x00	; 0
    336a:	2e e1       	ldi	r18, 0x1E	; 30
    336c:	31 e0       	ldi	r19, 0x01	; 1
    336e:	4f e5       	ldi	r20, 0x5F	; 95
    3370:	50 e0       	ldi	r21, 0x00	; 0
    3372:	64 e1       	ldi	r22, 0x14	; 20
    3374:	71 e0       	ldi	r23, 0x01	; 1
    3376:	8f ef       	ldi	r24, 0xFF	; 255
    3378:	97 e0       	ldi	r25, 0x07	; 7
    337a:	0e 94 60 0c 	call	0x18c0	; 0x18c0 <ILI9341_Draw_Line>
    337e:	2c e2       	ldi	r18, 0x2C	; 44
    3380:	31 e0       	ldi	r19, 0x01	; 1
    3382:	4b e4       	ldi	r20, 0x4B	; 75
    3384:	50 e0       	ldi	r21, 0x00	; 0
    3386:	6e e1       	ldi	r22, 0x1E	; 30
    3388:	71 e0       	ldi	r23, 0x01	; 1
    338a:	8f ef       	ldi	r24, 0xFF	; 255
    338c:	97 e0       	ldi	r25, 0x07	; 7
    338e:	0e 94 60 0c 	call	0x18c0	; 0x18c0 <ILI9341_Draw_Line>
    3392:	e6 cf       	rjmp	.-52     	; 0x3360 <draw_trig_slope_btn+0x28>
    3394:	0b e4       	ldi	r16, 0x4B	; 75
    3396:	10 e0       	ldi	r17, 0x00	; 0
    3398:	2e e1       	ldi	r18, 0x1E	; 30
    339a:	31 e0       	ldi	r19, 0x01	; 1
    339c:	4b e4       	ldi	r20, 0x4B	; 75
    339e:	50 e0       	ldi	r21, 0x00	; 0
    33a0:	64 e1       	ldi	r22, 0x14	; 20
    33a2:	71 e0       	ldi	r23, 0x01	; 1
    33a4:	8f ef       	ldi	r24, 0xFF	; 255
    33a6:	97 e0       	ldi	r25, 0x07	; 7
    33a8:	0e 94 60 0c 	call	0x18c0	; 0x18c0 <ILI9341_Draw_Line>
    33ac:	0f e5       	ldi	r16, 0x5F	; 95
    33ae:	10 e0       	ldi	r17, 0x00	; 0
    33b0:	e6 cf       	rjmp	.-52     	; 0x337e <draw_trig_slope_btn+0x46>

000033b2 <draw_pan_tdiv_btn>:
    33b2:	0f 93       	push	r16
    33b4:	1f 93       	push	r17
    33b6:	10 e0       	ldi	r17, 0x00	; 0
    33b8:	00 e0       	ldi	r16, 0x00	; 0
    33ba:	2a e2       	ldi	r18, 0x2A	; 42
    33bc:	30 e0       	ldi	r19, 0x00	; 0
    33be:	4a e2       	ldi	r20, 0x2A	; 42
    33c0:	50 e0       	ldi	r21, 0x00	; 0
    33c2:	65 ea       	ldi	r22, 0xA5	; 165
    33c4:	70 e0       	ldi	r23, 0x00	; 0
    33c6:	8a e0       	ldi	r24, 0x0A	; 10
    33c8:	91 e0       	ldi	r25, 0x01	; 1
    33ca:	0e 94 73 0e 	call	0x1ce6	; 0x1ce6 <fillRect>
    33ce:	80 91 05 02 	lds	r24, 0x0205	; 0x800205 <mode_tdiv_pan>
    33d2:	88 23       	and	r24, r24
    33d4:	29 f0       	breq	.+10     	; 0x33e0 <draw_pan_tdiv_btn+0x2e>
    33d6:	81 30       	cpi	r24, 0x01	; 1
    33d8:	79 f0       	breq	.+30     	; 0x33f8 <draw_pan_tdiv_btn+0x46>
    33da:	1f 91       	pop	r17
    33dc:	0f 91       	pop	r16
    33de:	08 95       	ret
    33e0:	6e eb       	ldi	r22, 0xBE	; 190
    33e2:	70 e0       	ldi	r23, 0x00	; 0
    33e4:	8e e0       	ldi	r24, 0x0E	; 14
    33e6:	91 e0       	ldi	r25, 0x01	; 1
    33e8:	0e 94 14 0b 	call	0x1628	; 0x1628 <ILI9341_set_cursor>
    33ec:	82 e8       	ldi	r24, 0x82	; 130
    33ee:	91 e0       	ldi	r25, 0x01	; 1
    33f0:	1f 91       	pop	r17
    33f2:	0f 91       	pop	r16
    33f4:	0c 94 a7 15 	jmp	0x2b4e	; 0x2b4e <ILI9341_Print>
    33f8:	6e eb       	ldi	r22, 0xBE	; 190
    33fa:	70 e0       	ldi	r23, 0x00	; 0
    33fc:	8e e0       	ldi	r24, 0x0E	; 14
    33fe:	91 e0       	ldi	r25, 0x01	; 1
    3400:	0e 94 14 0b 	call	0x1628	; 0x1628 <ILI9341_set_cursor>
    3404:	88 e8       	ldi	r24, 0x88	; 136
    3406:	91 e0       	ldi	r25, 0x01	; 1
    3408:	f3 cf       	rjmp	.-26     	; 0x33f0 <draw_pan_tdiv_btn+0x3e>

0000340a <set_trigger_mode>:
    340a:	98 e0       	ldi	r25, 0x08	; 8
    340c:	69 9f       	mul	r22, r25
    340e:	90 01       	movw	r18, r0
    3410:	11 24       	eor	r1, r1
    3412:	28 70       	andi	r18, 0x08	; 8
    3414:	90 e4       	ldi	r25, 0x40	; 64
    3416:	89 9f       	mul	r24, r25
    3418:	a0 01       	movw	r20, r0
    341a:	11 24       	eor	r1, r1
    341c:	24 2b       	or	r18, r20
    341e:	24 60       	ori	r18, 0x04	; 4
    3420:	25 bb       	out	0x15, r18	; 21
    3422:	80 93 07 02 	sts	0x0207, r24	; 0x800207 <trigger_mode>
    3426:	60 93 06 02 	sts	0x0206, r22	; 0x800206 <trigger_slope>
    342a:	0e 94 6f 19 	call	0x32de	; 0x32de <draw_trig_mode_btn>
    342e:	0c 94 9c 19 	jmp	0x3338	; 0x3338 <draw_trig_slope_btn>

00003432 <osc_init_trigger>:
    3432:	1f 93       	push	r17
    3434:	cf 93       	push	r28
    3436:	df 93       	push	r29
    3438:	d6 2f       	mov	r29, r22
    343a:	c4 2f       	mov	r28, r20
    343c:	12 2f       	mov	r17, r18
    343e:	0e 94 6a 19 	call	0x32d4	; 0x32d4 <set_trigger_level>
    3442:	80 e1       	ldi	r24, 0x10	; 16
    3444:	c8 9f       	mul	r28, r24
    3446:	a0 01       	movw	r20, r0
    3448:	11 24       	eor	r1, r1
    344a:	40 73       	andi	r20, 0x30	; 48
    344c:	80 e4       	ldi	r24, 0x40	; 64
    344e:	d8 9f       	mul	r29, r24
    3450:	b0 01       	movw	r22, r0
    3452:	11 24       	eor	r1, r1
    3454:	46 2b       	or	r20, r22
    3456:	80 e0       	ldi	r24, 0x00	; 0
    3458:	11 11       	cpse	r17, r1
    345a:	01 c0       	rjmp	.+2      	; 0x345e <osc_init_trigger+0x2c>
    345c:	88 e0       	ldi	r24, 0x08	; 8
    345e:	45 60       	ori	r20, 0x05	; 5
    3460:	48 2b       	or	r20, r24
    3462:	45 bf       	out	0x35, r20	; 53
    3464:	df 91       	pop	r29
    3466:	cf 91       	pop	r28
    3468:	1f 91       	pop	r17
    346a:	08 95       	ret

0000346c <draw_trace>:
    346c:	6f 92       	push	r6
    346e:	7f 92       	push	r7
    3470:	8f 92       	push	r8
    3472:	9f 92       	push	r9
    3474:	af 92       	push	r10
    3476:	bf 92       	push	r11
    3478:	cf 92       	push	r12
    347a:	df 92       	push	r13
    347c:	ef 92       	push	r14
    347e:	ff 92       	push	r15
    3480:	0f 93       	push	r16
    3482:	1f 93       	push	r17
    3484:	cf 93       	push	r28
    3486:	df 93       	push	r29
    3488:	5a 01       	movw	r10, r20
    348a:	62 2e       	mov	r6, r18
    348c:	eb 01       	movw	r28, r22
    348e:	0a 96       	adiw	r24, 0x0a	; 10
    3490:	6c 01       	movw	r12, r24
    3492:	8a e0       	ldi	r24, 0x0A	; 10
    3494:	e8 2e       	mov	r14, r24
    3496:	f1 2c       	mov	r15, r1
    3498:	ea 14       	cp	r14, r10
    349a:	fb 04       	cpc	r15, r11
    349c:	78 f0       	brcs	.+30     	; 0x34bc <draw_trace+0x50>
    349e:	df 91       	pop	r29
    34a0:	cf 91       	pop	r28
    34a2:	1f 91       	pop	r17
    34a4:	0f 91       	pop	r16
    34a6:	ff 90       	pop	r15
    34a8:	ef 90       	pop	r14
    34aa:	df 90       	pop	r13
    34ac:	cf 90       	pop	r12
    34ae:	bf 90       	pop	r11
    34b0:	af 90       	pop	r10
    34b2:	9f 90       	pop	r9
    34b4:	8f 90       	pop	r8
    34b6:	7f 90       	pop	r7
    34b8:	6f 90       	pop	r6
    34ba:	08 95       	ret
    34bc:	47 01       	movw	r8, r14
    34be:	88 e0       	ldi	r24, 0x08	; 8
    34c0:	88 1a       	sub	r8, r24
    34c2:	91 08       	sbc	r9, r1
    34c4:	f6 01       	movw	r30, r12
    34c6:	71 90       	ld	r7, Z+
    34c8:	6f 01       	movw	r12, r30
    34ca:	76 94       	lsr	r7
    34cc:	76 0c       	add	r7, r6
    34ce:	80 91 01 01 	lds	r24, 0x0101	; 0x800101 <Y_SIZE>
    34d2:	90 91 02 01 	lds	r25, 0x0102	; 0x800102 <Y_SIZE+0x1>
    34d6:	78 16       	cp	r7, r24
    34d8:	19 06       	cpc	r1, r25
    34da:	18 f0       	brcs	.+6      	; 0x34e2 <draw_trace+0x76>
    34dc:	77 24       	eor	r7, r7
    34de:	7a 94       	dec	r7
    34e0:	78 0e       	add	r7, r24
    34e2:	6a 85       	ldd	r22, Y+10	; 0x0a
    34e4:	70 e0       	ldi	r23, 0x00	; 0
    34e6:	50 e0       	ldi	r21, 0x00	; 0
    34e8:	40 e0       	ldi	r20, 0x00	; 0
    34ea:	c4 01       	movw	r24, r8
    34ec:	0e 94 ff 0b 	call	0x17fe	; 0x17fe <drawPixel>
    34f0:	67 2d       	mov	r22, r7
    34f2:	70 e0       	ldi	r23, 0x00	; 0
    34f4:	a8 01       	movw	r20, r16
    34f6:	c4 01       	movw	r24, r8
    34f8:	0e 94 ff 0b 	call	0x17fe	; 0x17fe <drawPixel>
    34fc:	7a 86       	std	Y+10, r7	; 0x0a
    34fe:	ff ef       	ldi	r31, 0xFF	; 255
    3500:	ef 1a       	sub	r14, r31
    3502:	ff 0a       	sbc	r15, r31
    3504:	21 96       	adiw	r28, 0x01	; 1
    3506:	c8 cf       	rjmp	.-112    	; 0x3498 <draw_trace+0x2c>

00003508 <osc_wait_ready>:
    3508:	05 b6       	in	r0, 0x35	; 53
    350a:	01 fe       	sbrs	r0, 1
    350c:	fd cf       	rjmp	.-6      	; 0x3508 <osc_wait_ready>
    350e:	08 95       	ret

00003510 <rearm>:
    3510:	80 91 07 02 	lds	r24, 0x0207	; 0x800207 <trigger_mode>
    3514:	82 30       	cpi	r24, 0x02	; 2
    3516:	41 f4       	brne	.+16     	; 0x3528 <rearm+0x18>
    3518:	80 91 00 02 	lds	r24, 0x0200	; 0x800200 <freeze>
    351c:	88 23       	and	r24, r24
    351e:	21 f0       	breq	.+8      	; 0x3528 <rearm+0x18>
    3520:	81 e0       	ldi	r24, 0x01	; 1
    3522:	85 bf       	out	0x35, r24	; 53
    3524:	10 92 00 02 	sts	0x0200, r1	; 0x800200 <freeze>
    3528:	08 95       	ret

0000352a <ToggleTriggerMode>:
    352a:	80 91 07 02 	lds	r24, 0x0207	; 0x800207 <trigger_mode>
    352e:	81 30       	cpi	r24, 0x01	; 1
    3530:	79 f0       	breq	.+30     	; 0x3550 <ToggleTriggerMode+0x26>
    3532:	82 30       	cpi	r24, 0x02	; 2
    3534:	81 f4       	brne	.+32     	; 0x3556 <ToggleTriggerMode+0x2c>
    3536:	81 e0       	ldi	r24, 0x01	; 1
    3538:	80 93 07 02 	sts	0x0207, r24	; 0x800207 <trigger_mode>
    353c:	10 92 05 02 	sts	0x0205, r1	; 0x800205 <mode_tdiv_pan>
    3540:	60 91 06 02 	lds	r22, 0x0206	; 0x800206 <trigger_slope>
    3544:	80 91 07 02 	lds	r24, 0x0207	; 0x800207 <trigger_mode>
    3548:	0e 94 05 1a 	call	0x340a	; 0x340a <set_trigger_mode>
    354c:	0c 94 d9 19 	jmp	0x33b2	; 0x33b2 <draw_pan_tdiv_btn>
    3550:	10 92 07 02 	sts	0x0207, r1	; 0x800207 <trigger_mode>
    3554:	f3 cf       	rjmp	.-26     	; 0x353c <ToggleTriggerMode+0x12>
    3556:	82 e0       	ldi	r24, 0x02	; 2
    3558:	80 93 07 02 	sts	0x0207, r24	; 0x800207 <trigger_mode>
    355c:	f1 cf       	rjmp	.-30     	; 0x3540 <ToggleTriggerMode+0x16>

0000355e <ToggleTriggerSlope>:
    355e:	80 91 06 02 	lds	r24, 0x0206	; 0x800206 <trigger_slope>
    3562:	81 11       	cpse	r24, r1
    3564:	09 c0       	rjmp	.+18     	; 0x3578 <ToggleTriggerSlope+0x1a>
    3566:	81 e0       	ldi	r24, 0x01	; 1
    3568:	80 93 06 02 	sts	0x0206, r24	; 0x800206 <trigger_slope>
    356c:	60 91 06 02 	lds	r22, 0x0206	; 0x800206 <trigger_slope>
    3570:	80 91 07 02 	lds	r24, 0x0207	; 0x800207 <trigger_mode>
    3574:	0c 94 05 1a 	jmp	0x340a	; 0x340a <set_trigger_mode>
    3578:	10 92 06 02 	sts	0x0206, r1	; 0x800206 <trigger_slope>
    357c:	f7 cf       	rjmp	.-18     	; 0x356c <ToggleTriggerSlope+0xe>

0000357e <ToggleTDivPan>:
    357e:	80 91 05 02 	lds	r24, 0x0205	; 0x800205 <mode_tdiv_pan>
    3582:	81 11       	cpse	r24, r1
    3584:	05 c0       	rjmp	.+10     	; 0x3590 <ToggleTDivPan+0x12>
    3586:	81 e0       	ldi	r24, 0x01	; 1
    3588:	80 93 05 02 	sts	0x0205, r24	; 0x800205 <mode_tdiv_pan>
    358c:	0c 94 d9 19 	jmp	0x33b2	; 0x33b2 <draw_pan_tdiv_btn>
    3590:	10 92 05 02 	sts	0x0205, r1	; 0x800205 <mode_tdiv_pan>
    3594:	fb cf       	rjmp	.-10     	; 0x358c <ToggleTDivPan+0xe>

00003596 <draw_time_div>:
    3596:	0f 93       	push	r16
    3598:	1f 93       	push	r17
    359a:	80 91 09 01 	lds	r24, 0x0109	; 0x800109 <time_div_sel>
    359e:	84 31       	cpi	r24, 0x14	; 20
    35a0:	28 f5       	brcc	.+74     	; 0x35ec <draw_time_div+0x56>
    35a2:	67 ed       	ldi	r22, 0xD7	; 215
    35a4:	70 e0       	ldi	r23, 0x00	; 0
    35a6:	81 ed       	ldi	r24, 0xD1	; 209
    35a8:	90 e0       	ldi	r25, 0x00	; 0
    35aa:	0e 94 14 0b 	call	0x1628	; 0x1628 <ILI9341_set_cursor>
    35ae:	80 91 05 01 	lds	r24, 0x0105	; 0x800105 <time_div_sel_changed>
    35b2:	88 23       	and	r24, r24
    35b4:	71 f0       	breq	.+28     	; 0x35d2 <draw_time_div+0x3c>
    35b6:	10 e0       	ldi	r17, 0x00	; 0
    35b8:	00 e0       	ldi	r16, 0x00	; 0
    35ba:	20 e1       	ldi	r18, 0x10	; 16
    35bc:	30 e0       	ldi	r19, 0x00	; 0
    35be:	45 e2       	ldi	r20, 0x25	; 37
    35c0:	50 e0       	ldi	r21, 0x00	; 0
    35c2:	67 ed       	ldi	r22, 0xD7	; 215
    35c4:	70 e0       	ldi	r23, 0x00	; 0
    35c6:	81 ed       	ldi	r24, 0xD1	; 209
    35c8:	90 e0       	ldi	r25, 0x00	; 0
    35ca:	0e 94 73 0e 	call	0x1ce6	; 0x1ce6 <fillRect>
    35ce:	10 92 05 01 	sts	0x0105, r1	; 0x800105 <time_div_sel_changed>
    35d2:	e0 91 09 01 	lds	r30, 0x0109	; 0x800109 <time_div_sel>
    35d6:	f0 e0       	ldi	r31, 0x00	; 0
    35d8:	ee 0f       	add	r30, r30
    35da:	ff 1f       	adc	r31, r31
    35dc:	e6 5f       	subi	r30, 0xF6	; 246
    35de:	fe 4f       	sbci	r31, 0xFE	; 254
    35e0:	80 81       	ld	r24, Z
    35e2:	91 81       	ldd	r25, Z+1	; 0x01
    35e4:	1f 91       	pop	r17
    35e6:	0f 91       	pop	r16
    35e8:	0c 94 a7 15 	jmp	0x2b4e	; 0x2b4e <ILI9341_Print>
    35ec:	1f 91       	pop	r17
    35ee:	0f 91       	pop	r16
    35f0:	08 95       	ret

000035f2 <drawPanTrack>:
    35f2:	8f 92       	push	r8
    35f4:	9f 92       	push	r9
    35f6:	af 92       	push	r10
    35f8:	bf 92       	push	r11
    35fa:	cf 92       	push	r12
    35fc:	df 92       	push	r13
    35fe:	ef 92       	push	r14
    3600:	ff 92       	push	r15
    3602:	0f 93       	push	r16
    3604:	1f 93       	push	r17
    3606:	cf 93       	push	r28
    3608:	df 93       	push	r29
    360a:	c0 91 03 02 	lds	r28, 0x0203	; 0x800203 <view_offset>
    360e:	d0 91 04 02 	lds	r29, 0x0204	; 0x800204 <view_offset+0x1>
    3612:	4e 01       	movw	r8, r28
    3614:	8d e7       	ldi	r24, 0x7D	; 125
    3616:	88 0e       	add	r8, r24
    3618:	91 1c       	adc	r9, r1
    361a:	5e 01       	movw	r10, r28
    361c:	87 e8       	ldi	r24, 0x87	; 135
    361e:	a8 0e       	add	r10, r24
    3620:	b1 1c       	adc	r11, r1
    3622:	ce 57       	subi	r28, 0x7E	; 126
    3624:	df 4f       	sbci	r29, 0xFF	; 255
    3626:	80 91 ff 01 	lds	r24, 0x01FF	; 0x8001ff <pan_flag>
    362a:	88 23       	and	r24, r24
    362c:	c1 f1       	breq	.+112    	; 0x369e <drawPanTrack+0xac>
    362e:	e0 90 f3 01 	lds	r14, 0x01F3	; 0x8001f3 <old_c>
    3632:	f0 90 f4 01 	lds	r15, 0x01F4	; 0x8001f4 <old_c+0x1>
    3636:	00 91 f5 01 	lds	r16, 0x01F5	; 0x8001f5 <old_c+0x2>
    363a:	10 91 f6 01 	lds	r17, 0x01F6	; 0x8001f6 <old_c+0x3>
    363e:	20 91 f7 01 	lds	r18, 0x01F7	; 0x8001f7 <old_b>
    3642:	30 91 f8 01 	lds	r19, 0x01F8	; 0x8001f8 <old_b+0x1>
    3646:	40 91 f9 01 	lds	r20, 0x01F9	; 0x8001f9 <old_b+0x2>
    364a:	50 91 fa 01 	lds	r21, 0x01FA	; 0x8001fa <old_b+0x3>
    364e:	60 91 fb 01 	lds	r22, 0x01FB	; 0x8001fb <old_a>
    3652:	70 91 fc 01 	lds	r23, 0x01FC	; 0x8001fc <old_a+0x1>
    3656:	80 91 fd 01 	lds	r24, 0x01FD	; 0x8001fd <old_a+0x2>
    365a:	90 91 fe 01 	lds	r25, 0x01FE	; 0x8001fe <old_a+0x3>
    365e:	d1 2c       	mov	r13, r1
    3660:	c1 2c       	mov	r12, r1
    3662:	0e 94 0e 0f 	call	0x1e1c	; 0x1e1c <ILI9341_FillTriangle>
    3666:	90 92 fc 01 	sts	0x01FC, r9	; 0x8001fc <old_a+0x1>
    366a:	80 92 fb 01 	sts	0x01FB, r8	; 0x8001fb <old_a>
    366e:	82 e0       	ldi	r24, 0x02	; 2
    3670:	90 e0       	ldi	r25, 0x00	; 0
    3672:	90 93 fe 01 	sts	0x01FE, r25	; 0x8001fe <old_a+0x3>
    3676:	80 93 fd 01 	sts	0x01FD, r24	; 0x8001fd <old_a+0x2>
    367a:	b0 92 f8 01 	sts	0x01F8, r11	; 0x8001f8 <old_b+0x1>
    367e:	a0 92 f7 01 	sts	0x01F7, r10	; 0x8001f7 <old_b>
    3682:	90 93 fa 01 	sts	0x01FA, r25	; 0x8001fa <old_b+0x3>
    3686:	80 93 f9 01 	sts	0x01F9, r24	; 0x8001f9 <old_b+0x2>
    368a:	d0 93 f4 01 	sts	0x01F4, r29	; 0x8001f4 <old_c+0x1>
    368e:	c0 93 f3 01 	sts	0x01F3, r28	; 0x8001f3 <old_c>
    3692:	81 e1       	ldi	r24, 0x11	; 17
    3694:	90 e0       	ldi	r25, 0x00	; 0
    3696:	90 93 f6 01 	sts	0x01F6, r25	; 0x8001f6 <old_c+0x3>
    369a:	80 93 f5 01 	sts	0x01F5, r24	; 0x8001f5 <old_c+0x2>
    369e:	b4 01       	movw	r22, r8
    36a0:	82 e0       	ldi	r24, 0x02	; 2
    36a2:	90 e0       	ldi	r25, 0x00	; 0
    36a4:	95 01       	movw	r18, r10
    36a6:	42 e0       	ldi	r20, 0x02	; 2
    36a8:	50 e0       	ldi	r21, 0x00	; 0
    36aa:	7e 01       	movw	r14, r28
    36ac:	01 e1       	ldi	r16, 0x11	; 17
    36ae:	10 e0       	ldi	r17, 0x00	; 0
    36b0:	cc 24       	eor	r12, r12
    36b2:	ca 94       	dec	r12
    36b4:	dc 2c       	mov	r13, r12
    36b6:	0e 94 0e 0f 	call	0x1e1c	; 0x1e1c <ILI9341_FillTriangle>
    36ba:	df 91       	pop	r29
    36bc:	cf 91       	pop	r28
    36be:	1f 91       	pop	r17
    36c0:	0f 91       	pop	r16
    36c2:	ff 90       	pop	r15
    36c4:	ef 90       	pop	r14
    36c6:	df 90       	pop	r13
    36c8:	cf 90       	pop	r12
    36ca:	bf 90       	pop	r11
    36cc:	af 90       	pop	r10
    36ce:	9f 90       	pop	r9
    36d0:	8f 90       	pop	r8
    36d2:	08 95       	ret

000036d4 <drawScreenValue>:
    36d4:	0c 94 cb 1a 	jmp	0x3596	; 0x3596 <draw_time_div>

000036d8 <drawDottedGridFast>:
    36d8:	2f 92       	push	r2
    36da:	3f 92       	push	r3
    36dc:	4f 92       	push	r4
    36de:	5f 92       	push	r5
    36e0:	6f 92       	push	r6
    36e2:	7f 92       	push	r7
    36e4:	8f 92       	push	r8
    36e6:	9f 92       	push	r9
    36e8:	af 92       	push	r10
    36ea:	bf 92       	push	r11
    36ec:	cf 92       	push	r12
    36ee:	df 92       	push	r13
    36f0:	ef 92       	push	r14
    36f2:	ff 92       	push	r15
    36f4:	0f 93       	push	r16
    36f6:	1f 93       	push	r17
    36f8:	cf 93       	push	r28
    36fa:	df 93       	push	r29
    36fc:	5c 01       	movw	r10, r24
    36fe:	1b 01       	movw	r2, r22
    3700:	3a 01       	movw	r6, r20
    3702:	29 01       	movw	r4, r18
    3704:	0e 94 f9 1a 	call	0x35f2	; 0x35f2 <drawPanTrack>
    3708:	c2 2d       	mov	r28, r2
    370a:	d3 2d       	mov	r29, r3
    370c:	4c 16       	cp	r4, r28
    370e:	5d 06       	cpc	r5, r29
    3710:	24 f5       	brge	.+72     	; 0x375a <drawDottedGridFast+0x82>
    3712:	6a 14       	cp	r6, r10
    3714:	7b 04       	cpc	r7, r11
    3716:	84 f5       	brge	.+96     	; 0x3778 <drawDottedGridFast+0xa0>
    3718:	df 91       	pop	r29
    371a:	cf 91       	pop	r28
    371c:	1f 91       	pop	r17
    371e:	0f 91       	pop	r16
    3720:	ff 90       	pop	r15
    3722:	ef 90       	pop	r14
    3724:	df 90       	pop	r13
    3726:	cf 90       	pop	r12
    3728:	bf 90       	pop	r11
    372a:	af 90       	pop	r10
    372c:	9f 90       	pop	r9
    372e:	8f 90       	pop	r8
    3730:	7f 90       	pop	r7
    3732:	6f 90       	pop	r6
    3734:	5f 90       	pop	r5
    3736:	4f 90       	pop	r4
    3738:	3f 90       	pop	r3
    373a:	2f 90       	pop	r2
    373c:	0c 94 cb 1a 	jmp	0x3596	; 0x3596 <draw_time_div>
    3740:	a6 01       	movw	r20, r12
    3742:	be 01       	movw	r22, r28
    3744:	c4 01       	movw	r24, r8
    3746:	0e 94 ff 0b 	call	0x17fe	; 0x17fe <drawPixel>
    374a:	8e 0c       	add	r8, r14
    374c:	9f 1c       	adc	r9, r15
    374e:	68 14       	cp	r6, r8
    3750:	79 04       	cpc	r7, r9
    3752:	b4 f7       	brge	.-20     	; 0x3740 <drawDottedGridFast+0x68>
    3754:	c0 0f       	add	r28, r16
    3756:	d1 1f       	adc	r29, r17
    3758:	d9 cf       	rjmp	.-78     	; 0x370c <drawDottedGridFast+0x34>
    375a:	45 01       	movw	r8, r10
    375c:	f8 cf       	rjmp	.-16     	; 0x374e <drawDottedGridFast+0x76>
    375e:	a6 01       	movw	r20, r12
    3760:	be 01       	movw	r22, r28
    3762:	c5 01       	movw	r24, r10
    3764:	0e 94 ff 0b 	call	0x17fe	; 0x17fe <drawPixel>
    3768:	ce 0d       	add	r28, r14
    376a:	df 1d       	adc	r29, r15
    376c:	4c 16       	cp	r4, r28
    376e:	5d 06       	cpc	r5, r29
    3770:	b4 f7       	brge	.-20     	; 0x375e <drawDottedGridFast+0x86>
    3772:	a0 0e       	add	r10, r16
    3774:	b1 1e       	adc	r11, r17
    3776:	cd cf       	rjmp	.-102    	; 0x3712 <drawDottedGridFast+0x3a>
    3778:	c2 2d       	mov	r28, r2
    377a:	d3 2d       	mov	r29, r3
    377c:	f7 cf       	rjmp	.-18     	; 0x376c <drawDottedGridFast+0x94>

0000377e <osc_read_triggered>:
    377e:	df 92       	push	r13
    3780:	ef 92       	push	r14
    3782:	ff 92       	push	r15
    3784:	0f 93       	push	r16
    3786:	1f 93       	push	r17
    3788:	cf 93       	push	r28
    378a:	df 93       	push	r29
    378c:	8c 01       	movw	r16, r24
    378e:	d6 2e       	mov	r13, r22
    3790:	d7 2f       	mov	r29, r23
    3792:	7a 01       	movw	r14, r20
    3794:	c0 91 07 02 	lds	r28, 0x0207	; 0x800207 <trigger_mode>
    3798:	c2 30       	cpi	r28, 0x02	; 2
    379a:	19 f5       	brne	.+70     	; 0x37e2 <osc_read_triggered+0x64>
    379c:	80 91 00 02 	lds	r24, 0x0200	; 0x800200 <freeze>
    37a0:	88 23       	and	r24, r24
    37a2:	f9 f0       	breq	.+62     	; 0x37e2 <osc_read_triggered+0x64>
    37a4:	1c be       	out	0x3c, r1	; 60
    37a6:	ed 2d       	mov	r30, r13
    37a8:	fd 2f       	mov	r31, r29
    37aa:	e7 01       	movw	r28, r14
    37ac:	d8 01       	movw	r26, r16
    37ae:	cf 01       	movw	r24, r30
    37b0:	81 50       	subi	r24, 0x01	; 1
    37b2:	9f 4f       	sbci	r25, 0xFF	; 255
    37b4:	24 b3       	in	r18, 0x14	; 20
    37b6:	21 93       	st	Z+, r18
    37b8:	25 b3       	in	r18, 0x15	; 21
    37ba:	29 93       	st	Y+, r18
    37bc:	23 b3       	in	r18, 0x13	; 19
    37be:	2d 93       	st	X+, r18
    37c0:	e8 17       	cp	r30, r24
    37c2:	f9 07       	cpc	r31, r25
    37c4:	b9 f7       	brne	.-18     	; 0x37b4 <osc_read_triggered+0x36>
    37c6:	80 91 07 02 	lds	r24, 0x0207	; 0x800207 <trigger_mode>
    37ca:	82 30       	cpi	r24, 0x02	; 2
    37cc:	11 f0       	breq	.+4      	; 0x37d2 <osc_read_triggered+0x54>
    37ce:	81 e0       	ldi	r24, 0x01	; 1
    37d0:	85 bf       	out	0x35, r24	; 53
    37d2:	df 91       	pop	r29
    37d4:	cf 91       	pop	r28
    37d6:	1f 91       	pop	r17
    37d8:	0f 91       	pop	r16
    37da:	ff 90       	pop	r15
    37dc:	ef 90       	pop	r14
    37de:	df 90       	pop	r13
    37e0:	08 95       	ret
    37e2:	0e 94 84 1a 	call	0x3508	; 0x3508 <osc_wait_ready>
    37e6:	c2 30       	cpi	r28, 0x02	; 2
    37e8:	e9 f6       	brne	.-70     	; 0x37a4 <osc_read_triggered+0x26>
    37ea:	81 e0       	ldi	r24, 0x01	; 1
    37ec:	80 93 00 02 	sts	0x0200, r24	; 0x800200 <freeze>
    37f0:	0e 94 4c 18 	call	0x3098	; 0x3098 <encoder_read>
    37f4:	90 93 02 02 	sts	0x0202, r25	; 0x800202 <prev_det_sig+0x1>
    37f8:	80 93 01 02 	sts	0x0201, r24	; 0x800201 <prev_det_sig>
    37fc:	d3 cf       	rjmp	.-90     	; 0x37a4 <osc_read_triggered+0x26>

000037fe <update_view_offset>:
    37fe:	8f 92       	push	r8
    3800:	9f 92       	push	r9
    3802:	af 92       	push	r10
    3804:	bf 92       	push	r11
    3806:	ef 92       	push	r14
    3808:	ff 92       	push	r15
    380a:	0f 93       	push	r16
    380c:	1f 93       	push	r17
    380e:	4c 01       	movw	r8, r24
    3810:	8b 01       	movw	r16, r22
    3812:	7a 01       	movw	r14, r20
    3814:	59 01       	movw	r10, r18
    3816:	0e 94 4c 18 	call	0x3098	; 0x3098 <encoder_read>
    381a:	20 91 01 02 	lds	r18, 0x0201	; 0x800201 <prev_det_sig>
    381e:	30 91 02 02 	lds	r19, 0x0202	; 0x800202 <prev_det_sig+0x1>
    3822:	ac 01       	movw	r20, r24
    3824:	42 1b       	sub	r20, r18
    3826:	53 0b       	sbc	r21, r19
    3828:	9a 01       	movw	r18, r20
    382a:	90 93 02 02 	sts	0x0202, r25	; 0x800202 <prev_det_sig+0x1>
    382e:	80 93 01 02 	sts	0x0201, r24	; 0x800201 <prev_det_sig>
    3832:	41 15       	cp	r20, r1
    3834:	51 05       	cpc	r21, r1
    3836:	21 f1       	breq	.+72     	; 0x3880 <update_view_offset+0x82>
    3838:	ca 01       	movw	r24, r20
    383a:	44 96       	adiw	r24, 0x14	; 20
    383c:	89 97       	sbiw	r24, 0x29	; 41
    383e:	00 f5       	brcc	.+64     	; 0x3880 <update_view_offset+0x82>
    3840:	d5 01       	movw	r26, r10
    3842:	0e 94 fc 1d 	call	0x3bf8	; 0x3bf8 <__mulhisi3>
    3846:	09 2c       	mov	r0, r9
    3848:	00 0c       	add	r0, r0
    384a:	aa 08       	sbc	r10, r10
    384c:	bb 08       	sbc	r11, r11
    384e:	86 0e       	add	r8, r22
    3850:	97 1e       	adc	r9, r23
    3852:	a8 1e       	adc	r10, r24
    3854:	b9 1e       	adc	r11, r25
    3856:	01 2e       	mov	r0, r17
    3858:	00 0c       	add	r0, r0
    385a:	22 0b       	sbc	r18, r18
    385c:	33 0b       	sbc	r19, r19
    385e:	08 15       	cp	r16, r8
    3860:	19 05       	cpc	r17, r9
    3862:	2a 05       	cpc	r18, r10
    3864:	3b 05       	cpc	r19, r11
    3866:	14 f4       	brge	.+4      	; 0x386c <update_view_offset+0x6e>
    3868:	95 01       	movw	r18, r10
    386a:	84 01       	movw	r16, r8
    386c:	47 01       	movw	r8, r14
    386e:	ff 0c       	add	r15, r15
    3870:	aa 08       	sbc	r10, r10
    3872:	bb 08       	sbc	r11, r11
    3874:	08 15       	cp	r16, r8
    3876:	19 05       	cpc	r17, r9
    3878:	2a 05       	cpc	r18, r10
    387a:	3b 05       	cpc	r19, r11
    387c:	0c f4       	brge	.+2      	; 0x3880 <update_view_offset+0x82>
    387e:	48 01       	movw	r8, r16
    3880:	c4 01       	movw	r24, r8
    3882:	1f 91       	pop	r17
    3884:	0f 91       	pop	r16
    3886:	ff 90       	pop	r15
    3888:	ef 90       	pop	r14
    388a:	bf 90       	pop	r11
    388c:	af 90       	pop	r10
    388e:	9f 90       	pop	r9
    3890:	8f 90       	pop	r8
    3892:	08 95       	ret

00003894 <oscilloscope_init>:
    3894:	cf 92       	push	r12
    3896:	df 92       	push	r13
    3898:	ef 92       	push	r14
    389a:	ff 92       	push	r15
    389c:	0f 93       	push	r16
    389e:	1f 93       	push	r17
    38a0:	90 e0       	ldi	r25, 0x00	; 0
    38a2:	80 e0       	ldi	r24, 0x00	; 0
    38a4:	0e 94 85 10 	call	0x210a	; 0x210a <fillScreen>
    38a8:	81 e0       	ldi	r24, 0x01	; 1
    38aa:	0e 94 a2 10 	call	0x2144	; 0x2144 <setTextSize>
    38ae:	70 e0       	ldi	r23, 0x00	; 0
    38b0:	60 e0       	ldi	r22, 0x00	; 0
    38b2:	8f ef       	ldi	r24, 0xFF	; 255
    38b4:	9f ef       	ldi	r25, 0xFF	; 255
    38b6:	0e 94 99 10 	call	0x2132	; 0x2132 <setTextColor>
    38ba:	ee 24       	eor	r14, r14
    38bc:	ea 94       	dec	r14
    38be:	fe 2c       	mov	r15, r14
    38c0:	06 e0       	ldi	r16, 0x06	; 6
    38c2:	10 e0       	ldi	r17, 0x00	; 0
    38c4:	2f ee       	ldi	r18, 0xEF	; 239
    38c6:	30 e0       	ldi	r19, 0x00	; 0
    38c8:	4f ef       	ldi	r20, 0xFF	; 255
    38ca:	50 e0       	ldi	r21, 0x00	; 0
    38cc:	61 e0       	ldi	r22, 0x01	; 1
    38ce:	70 e0       	ldi	r23, 0x00	; 0
    38d0:	90 e0       	ldi	r25, 0x00	; 0
    38d2:	80 e0       	ldi	r24, 0x00	; 0
    38d4:	0e 94 f9 0d 	call	0x1bf2	; 0x1bf2 <drawRoundRect>
    38d8:	90 ee       	ldi	r25, 0xE0	; 224
    38da:	e9 2e       	mov	r14, r25
    38dc:	ff 24       	eor	r15, r15
    38de:	fa 94       	dec	r15
    38e0:	20 e3       	ldi	r18, 0x30	; 48
    38e2:	30 e0       	ldi	r19, 0x00	; 0
    38e4:	40 e3       	ldi	r20, 0x30	; 48
    38e6:	50 e0       	ldi	r21, 0x00	; 0
    38e8:	61 e0       	ldi	r22, 0x01	; 1
    38ea:	70 e0       	ldi	r23, 0x00	; 0
    38ec:	87 e0       	ldi	r24, 0x07	; 7
    38ee:	91 e0       	ldi	r25, 0x01	; 1
    38f0:	0e 94 f9 0d 	call	0x1bf2	; 0x1bf2 <drawRoundRect>
    38f4:	20 e3       	ldi	r18, 0x30	; 48
    38f6:	30 e0       	ldi	r19, 0x00	; 0
    38f8:	40 e3       	ldi	r20, 0x30	; 48
    38fa:	50 e0       	ldi	r21, 0x00	; 0
    38fc:	66 e3       	ldi	r22, 0x36	; 54
    38fe:	70 e0       	ldi	r23, 0x00	; 0
    3900:	87 e0       	ldi	r24, 0x07	; 7
    3902:	91 e0       	ldi	r25, 0x01	; 1
    3904:	0e 94 f9 0d 	call	0x1bf2	; 0x1bf2 <drawRoundRect>
    3908:	20 e3       	ldi	r18, 0x30	; 48
    390a:	30 e0       	ldi	r19, 0x00	; 0
    390c:	40 e3       	ldi	r20, 0x30	; 48
    390e:	50 e0       	ldi	r21, 0x00	; 0
    3910:	6c e6       	ldi	r22, 0x6C	; 108
    3912:	70 e0       	ldi	r23, 0x00	; 0
    3914:	87 e0       	ldi	r24, 0x07	; 7
    3916:	91 e0       	ldi	r25, 0x01	; 1
    3918:	0e 94 f9 0d 	call	0x1bf2	; 0x1bf2 <drawRoundRect>
    391c:	20 e3       	ldi	r18, 0x30	; 48
    391e:	30 e0       	ldi	r19, 0x00	; 0
    3920:	40 e3       	ldi	r20, 0x30	; 48
    3922:	50 e0       	ldi	r21, 0x00	; 0
    3924:	62 ea       	ldi	r22, 0xA2	; 162
    3926:	70 e0       	ldi	r23, 0x00	; 0
    3928:	87 e0       	ldi	r24, 0x07	; 7
    392a:	91 e0       	ldi	r25, 0x01	; 1
    392c:	0e 94 f9 0d 	call	0x1bf2	; 0x1bf2 <drawRoundRect>
    3930:	28 e1       	ldi	r18, 0x18	; 24
    3932:	30 e0       	ldi	r19, 0x00	; 0
    3934:	40 e3       	ldi	r20, 0x30	; 48
    3936:	50 e0       	ldi	r21, 0x00	; 0
    3938:	68 ed       	ldi	r22, 0xD8	; 216
    393a:	70 e0       	ldi	r23, 0x00	; 0
    393c:	87 e0       	ldi	r24, 0x07	; 7
    393e:	91 e0       	ldi	r25, 0x01	; 1
    3940:	0e 94 f9 0d 	call	0x1bf2	; 0x1bf2 <drawRoundRect>
    3944:	cc 24       	eor	r12, r12
    3946:	ca 94       	dec	r12
    3948:	dc 2c       	mov	r13, r12
    394a:	34 e0       	ldi	r19, 0x04	; 4
    394c:	e3 2e       	mov	r14, r19
    394e:	f1 2c       	mov	r15, r1
    3950:	08 e2       	ldi	r16, 0x28	; 40
    3952:	10 e0       	ldi	r17, 0x00	; 0
    3954:	2e ee       	ldi	r18, 0xEE	; 238
    3956:	30 e0       	ldi	r19, 0x00	; 0
    3958:	4e ef       	ldi	r20, 0xFE	; 254
    395a:	50 e0       	ldi	r21, 0x00	; 0
    395c:	70 e0       	ldi	r23, 0x00	; 0
    395e:	60 e0       	ldi	r22, 0x00	; 0
    3960:	88 e0       	ldi	r24, 0x08	; 8
    3962:	90 e0       	ldi	r25, 0x00	; 0
    3964:	0e 94 6c 1b 	call	0x36d8	; 0x36d8 <drawDottedGridFast>
    3968:	0e 94 6f 19 	call	0x32de	; 0x32de <draw_trig_mode_btn>
    396c:	1f 91       	pop	r17
    396e:	0f 91       	pop	r16
    3970:	ff 90       	pop	r15
    3972:	ef 90       	pop	r14
    3974:	df 90       	pop	r13
    3976:	cf 90       	pop	r12
    3978:	0c 94 d9 19 	jmp	0x33b2	; 0x33b2 <draw_pan_tdiv_btn>

0000397c <acquire_and_draw>:
    397c:	cf 92       	push	r12
    397e:	df 92       	push	r13
    3980:	ef 92       	push	r14
    3982:	ff 92       	push	r15
    3984:	0f 93       	push	r16
    3986:	1f 93       	push	r17
    3988:	cc 24       	eor	r12, r12
    398a:	ca 94       	dec	r12
    398c:	dc 2c       	mov	r13, r12
    398e:	94 e0       	ldi	r25, 0x04	; 4
    3990:	e9 2e       	mov	r14, r25
    3992:	f1 2c       	mov	r15, r1
    3994:	08 e2       	ldi	r16, 0x28	; 40
    3996:	10 e0       	ldi	r17, 0x00	; 0
    3998:	2e ee       	ldi	r18, 0xEE	; 238
    399a:	30 e0       	ldi	r19, 0x00	; 0
    399c:	4e ef       	ldi	r20, 0xFE	; 254
    399e:	50 e0       	ldi	r21, 0x00	; 0
    39a0:	70 e0       	ldi	r23, 0x00	; 0
    39a2:	60 e0       	ldi	r22, 0x00	; 0
    39a4:	88 e0       	ldi	r24, 0x08	; 8
    39a6:	90 e0       	ldi	r25, 0x00	; 0
    39a8:	0e 94 6c 1b 	call	0x36d8	; 0x36d8 <drawDottedGridFast>
    39ac:	4d e4       	ldi	r20, 0x4D	; 77
    39ae:	53 e0       	ldi	r21, 0x03	; 3
    39b0:	65 ea       	ldi	r22, 0xA5	; 165
    39b2:	75 e0       	ldi	r23, 0x05	; 5
    39b4:	8d ef       	ldi	r24, 0xFD	; 253
    39b6:	97 e0       	ldi	r25, 0x07	; 7
    39b8:	0e 94 bf 1b 	call	0x377e	; 0x377e <osc_read_triggered>
    39bc:	00 ee       	ldi	r16, 0xE0	; 224
    39be:	17 e0       	ldi	r17, 0x07	; 7
    39c0:	2c e3       	ldi	r18, 0x3C	; 60
    39c2:	30 e0       	ldi	r19, 0x00	; 0
    39c4:	4f ef       	ldi	r20, 0xFF	; 255
    39c6:	50 e0       	ldi	r21, 0x00	; 0
    39c8:	61 e2       	ldi	r22, 0x21	; 33
    39ca:	72 e0       	ldi	r23, 0x02	; 2
    39cc:	8d ef       	ldi	r24, 0xFD	; 253
    39ce:	97 e0       	ldi	r25, 0x07	; 7
    39d0:	0e 94 36 1a 	call	0x346c	; 0x346c <draw_trace>
    39d4:	00 e0       	ldi	r16, 0x00	; 0
    39d6:	18 ef       	ldi	r17, 0xF8	; 248
    39d8:	2c e3       	ldi	r18, 0x3C	; 60
    39da:	30 e0       	ldi	r19, 0x00	; 0
    39dc:	4f ef       	ldi	r20, 0xFF	; 255
    39de:	50 e0       	ldi	r21, 0x00	; 0
    39e0:	69 e7       	ldi	r22, 0x79	; 121
    39e2:	74 e0       	ldi	r23, 0x04	; 4
    39e4:	85 ea       	ldi	r24, 0xA5	; 165
    39e6:	95 e0       	ldi	r25, 0x05	; 5
    39e8:	0e 94 36 1a 	call	0x346c	; 0x346c <draw_trace>
    39ec:	0f e1       	ldi	r16, 0x1F	; 31
    39ee:	10 e0       	ldi	r17, 0x00	; 0
    39f0:	2c e3       	ldi	r18, 0x3C	; 60
    39f2:	30 e0       	ldi	r19, 0x00	; 0
    39f4:	4f ef       	ldi	r20, 0xFF	; 255
    39f6:	50 e0       	ldi	r21, 0x00	; 0
    39f8:	61 ed       	ldi	r22, 0xD1	; 209
    39fa:	76 e0       	ldi	r23, 0x06	; 6
    39fc:	8d e4       	ldi	r24, 0x4D	; 77
    39fe:	93 e0       	ldi	r25, 0x03	; 3
    3a00:	0e 94 36 1a 	call	0x346c	; 0x346c <draw_trace>
    3a04:	1f 91       	pop	r17
    3a06:	0f 91       	pop	r16
    3a08:	ff 90       	pop	r15
    3a0a:	ef 90       	pop	r14
    3a0c:	df 90       	pop	r13
    3a0e:	cf 90       	pop	r12
    3a10:	08 95       	ret

00003a12 <scope_main>:
    3a12:	cf 93       	push	r28
    3a14:	df 93       	push	r29
    3a16:	00 d0       	rcall	.+0      	; 0x3a18 <scope_main+0x6>
    3a18:	cd b7       	in	r28, 0x3d	; 61
    3a1a:	de b7       	in	r29, 0x3e	; 62
    3a1c:	0e 94 4a 1c 	call	0x3894	; 0x3894 <oscilloscope_init>
    3a20:	8c e0       	ldi	r24, 0x0C	; 12
    3a22:	84 bb       	out	0x14, r24	; 20
    3a24:	84 e6       	ldi	r24, 0x64	; 100
    3a26:	83 bb       	out	0x13, r24	; 19
    3a28:	13 ba       	out	0x13, r1	; 19
    3a2a:	60 e0       	ldi	r22, 0x00	; 0
    3a2c:	80 e0       	ldi	r24, 0x00	; 0
    3a2e:	0e 94 05 1a 	call	0x340a	; 0x340a <set_trigger_mode>
    3a32:	0f ef       	ldi	r16, 0xFF	; 255
    3a34:	10 92 ff 01 	sts	0x01FF, r1	; 0x8001ff <pan_flag>
    3a38:	be 01       	movw	r22, r28
    3a3a:	6f 5f       	subi	r22, 0xFF	; 255
    3a3c:	7f 4f       	sbci	r23, 0xFF	; 255
    3a3e:	ce 01       	movw	r24, r28
    3a40:	02 96       	adiw	r24, 0x02	; 2
    3a42:	0e 94 36 18 	call	0x306c	; 0x306c <keypad_poll>
    3a46:	88 23       	and	r24, r24
    3a48:	41 f0       	breq	.+16     	; 0x3a5a <scope_main+0x48>
    3a4a:	8a 81       	ldd	r24, Y+2	; 0x02
    3a4c:	8f 3f       	cpi	r24, 0xFF	; 255
    3a4e:	29 f0       	breq	.+10     	; 0x3a5a <scope_main+0x48>
    3a50:	86 30       	cpi	r24, 0x06	; 6
    3a52:	b1 f0       	breq	.+44     	; 0x3a80 <scope_main+0x6e>
    3a54:	58 f4       	brcc	.+22     	; 0x3a6c <scope_main+0x5a>
    3a56:	83 30       	cpi	r24, 0x03	; 3
    3a58:	b1 f0       	breq	.+44     	; 0x3a86 <scope_main+0x74>
    3a5a:	10 91 05 02 	lds	r17, 0x0205	; 0x800205 <mode_tdiv_pan>
    3a5e:	11 23       	and	r17, r17
    3a60:	a9 f0       	breq	.+42     	; 0x3a8c <scope_main+0x7a>
    3a62:	11 30       	cpi	r17, 0x01	; 1
    3a64:	39 f1       	breq	.+78     	; 0x3ab4 <scope_main+0xa2>
    3a66:	0e 94 be 1c 	call	0x397c	; 0x397c <acquire_and_draw>
    3a6a:	e4 cf       	rjmp	.-56     	; 0x3a34 <scope_main+0x22>
    3a6c:	89 30       	cpi	r24, 0x09	; 9
    3a6e:	29 f0       	breq	.+10     	; 0x3a7a <scope_main+0x68>
    3a70:	8c 30       	cpi	r24, 0x0C	; 12
    3a72:	99 f7       	brne	.-26     	; 0x3a5a <scope_main+0x48>
    3a74:	0e 94 95 1a 	call	0x352a	; 0x352a <ToggleTriggerMode>
    3a78:	f0 cf       	rjmp	.-32     	; 0x3a5a <scope_main+0x48>
    3a7a:	0e 94 af 1a 	call	0x355e	; 0x355e <ToggleTriggerSlope>
    3a7e:	ed cf       	rjmp	.-38     	; 0x3a5a <scope_main+0x48>
    3a80:	0e 94 88 1a 	call	0x3510	; 0x3510 <rearm>
    3a84:	ea cf       	rjmp	.-44     	; 0x3a5a <scope_main+0x48>
    3a86:	0e 94 bf 1a 	call	0x357e	; 0x357e <ToggleTDivPan>
    3a8a:	e7 cf       	rjmp	.-50     	; 0x3a5a <scope_main+0x48>
    3a8c:	21 e0       	ldi	r18, 0x01	; 1
    3a8e:	40 e1       	ldi	r20, 0x10	; 16
    3a90:	60 e0       	ldi	r22, 0x00	; 0
    3a92:	80 91 09 01 	lds	r24, 0x0109	; 0x800109 <time_div_sel>
    3a96:	0e 94 30 19 	call	0x3260	; 0x3260 <update_param_8>
    3a9a:	90 91 08 01 	lds	r25, 0x0108	; 0x800108 <prev_time_div_sel>
    3a9e:	98 17       	cp	r25, r24
    3aa0:	11 f3       	breq	.-60     	; 0x3a66 <scope_main+0x54>
    3aa2:	84 bb       	out	0x14, r24	; 20
    3aa4:	80 93 08 01 	sts	0x0108, r24	; 0x800108 <prev_time_div_sel>
    3aa8:	80 93 09 01 	sts	0x0109, r24	; 0x800109 <time_div_sel>
    3aac:	81 e0       	ldi	r24, 0x01	; 1
    3aae:	80 93 05 01 	sts	0x0105, r24	; 0x800105 <time_div_sel_changed>
    3ab2:	d9 cf       	rjmp	.-78     	; 0x3a66 <scope_main+0x54>
    3ab4:	24 e0       	ldi	r18, 0x04	; 4
    3ab6:	30 e0       	ldi	r19, 0x00	; 0
    3ab8:	4c e8       	ldi	r20, 0x8C	; 140
    3aba:	50 e0       	ldi	r21, 0x00	; 0
    3abc:	64 e7       	ldi	r22, 0x74	; 116
    3abe:	7f ef       	ldi	r23, 0xFF	; 255
    3ac0:	80 91 03 02 	lds	r24, 0x0203	; 0x800203 <view_offset>
    3ac4:	90 91 04 02 	lds	r25, 0x0204	; 0x800204 <view_offset+0x1>
    3ac8:	0e 94 ff 1b 	call	0x37fe	; 0x37fe <update_view_offset>
    3acc:	20 91 06 01 	lds	r18, 0x0106	; 0x800106 <prev_view_offset>
    3ad0:	30 91 07 01 	lds	r19, 0x0107	; 0x800107 <prev_view_offset+0x1>
    3ad4:	28 17       	cp	r18, r24
    3ad6:	39 07       	cpc	r19, r25
    3ad8:	31 f2       	breq	.-116    	; 0x3a66 <scope_main+0x54>
    3ada:	04 bb       	out	0x14, r16	; 20
    3adc:	14 bb       	out	0x14, r17	; 20
    3ade:	84 bb       	out	0x14, r24	; 20
    3ae0:	94 bb       	out	0x14, r25	; 20
    3ae2:	04 bb       	out	0x14, r16	; 20
    3ae4:	1c be       	out	0x3c, r1	; 60
    3ae6:	90 93 07 01 	sts	0x0107, r25	; 0x800107 <prev_view_offset+0x1>
    3aea:	80 93 06 01 	sts	0x0106, r24	; 0x800106 <prev_view_offset>
    3aee:	90 93 04 02 	sts	0x0204, r25	; 0x800204 <view_offset+0x1>
    3af2:	80 93 03 02 	sts	0x0203, r24	; 0x800203 <view_offset>
    3af6:	10 93 ff 01 	sts	0x01FF, r17	; 0x8001ff <pan_flag>
    3afa:	b5 cf       	rjmp	.-150    	; 0x3a66 <scope_main+0x54>

00003afc <main>:
    3afc:	87 b3       	in	r24, 0x17	; 23
    3afe:	87 60       	ori	r24, 0x07	; 7
    3b00:	87 bb       	out	0x17, r24	; 23
    3b02:	c0 9a       	sbi	0x18, 0	; 24
    3b04:	0e 94 ab 06 	call	0xd56	; 0xd56 <spi_init>
    3b08:	60 e0       	ldi	r22, 0x00	; 0
    3b0a:	7b e4       	ldi	r23, 0x4B	; 75
    3b0c:	80 e0       	ldi	r24, 0x00	; 0
    3b0e:	90 e0       	ldi	r25, 0x00	; 0
    3b10:	0e 94 1e 17 	call	0x2e3c	; 0x2e3c <uart_init>
    3b14:	82 e3       	ldi	r24, 0x32	; 50
    3b16:	91 e0       	ldi	r25, 0x01	; 1
    3b18:	0e 94 3c 17 	call	0x2e78	; 0x2e78 <uart_print>
    3b1c:	89 e4       	ldi	r24, 0x49	; 73
    3b1e:	91 e0       	ldi	r25, 0x01	; 1
    3b20:	0e 94 3c 17 	call	0x2e78	; 0x2e78 <uart_print>
    3b24:	0e 94 19 07 	call	0xe32	; 0xe32 <ILI9341_Init>
    3b28:	83 e0       	ldi	r24, 0x03	; 3
    3b2a:	0e 94 26 08 	call	0x104c	; 0x104c <ILI9341_Set_Rotation>
    3b2e:	0e 94 34 18 	call	0x3068	; 0x3068 <keypad_init>
    3b32:	0e 94 1e 18 	call	0x303c	; 0x303c <leds_init>
    3b36:	82 e0       	ldi	r24, 0x02	; 2
    3b38:	0e 94 2a 15 	call	0x2a54	; 0x2a54 <setTextFont>
    3b3c:	70 e0       	ldi	r23, 0x00	; 0
    3b3e:	60 e0       	ldi	r22, 0x00	; 0
    3b40:	8f ef       	ldi	r24, 0xFF	; 255
    3b42:	9f ef       	ldi	r25, 0xFF	; 255
    3b44:	0e 94 99 10 	call	0x2132	; 0x2132 <setTextColor>
    3b48:	0e 94 09 1d 	call	0x3a12	; 0x3a12 <scope_main>
    3b4c:	90 e0       	ldi	r25, 0x00	; 0
    3b4e:	80 e0       	ldi	r24, 0x00	; 0
    3b50:	08 95       	ret

00003b52 <__udivmodhi4>:
    3b52:	aa 1b       	sub	r26, r26
    3b54:	bb 1b       	sub	r27, r27
    3b56:	51 e1       	ldi	r21, 0x11	; 17
    3b58:	07 c0       	rjmp	.+14     	; 0x3b68 <__udivmodhi4_ep>

00003b5a <__udivmodhi4_loop>:
    3b5a:	aa 1f       	adc	r26, r26
    3b5c:	bb 1f       	adc	r27, r27
    3b5e:	a6 17       	cp	r26, r22
    3b60:	b7 07       	cpc	r27, r23
    3b62:	10 f0       	brcs	.+4      	; 0x3b68 <__udivmodhi4_ep>
    3b64:	a6 1b       	sub	r26, r22
    3b66:	b7 0b       	sbc	r27, r23

00003b68 <__udivmodhi4_ep>:
    3b68:	88 1f       	adc	r24, r24
    3b6a:	99 1f       	adc	r25, r25
    3b6c:	5a 95       	dec	r21
    3b6e:	a9 f7       	brne	.-22     	; 0x3b5a <__udivmodhi4_loop>
    3b70:	80 95       	com	r24
    3b72:	90 95       	com	r25
    3b74:	bc 01       	movw	r22, r24
    3b76:	cd 01       	movw	r24, r26
    3b78:	08 95       	ret

00003b7a <__divmodhi4>:
    3b7a:	97 fb       	bst	r25, 7
    3b7c:	07 2e       	mov	r0, r23
    3b7e:	16 f4       	brtc	.+4      	; 0x3b84 <__divmodhi4+0xa>
    3b80:	00 94       	com	r0
    3b82:	07 d0       	rcall	.+14     	; 0x3b92 <__divmodhi4_neg1>
    3b84:	77 fd       	sbrc	r23, 7
    3b86:	09 d0       	rcall	.+18     	; 0x3b9a <__divmodhi4_neg2>
    3b88:	0e 94 a9 1d 	call	0x3b52	; 0x3b52 <__udivmodhi4>
    3b8c:	07 fc       	sbrc	r0, 7
    3b8e:	05 d0       	rcall	.+10     	; 0x3b9a <__divmodhi4_neg2>
    3b90:	3e f4       	brtc	.+14     	; 0x3ba0 <__divmodhi4_exit>

00003b92 <__divmodhi4_neg1>:
    3b92:	90 95       	com	r25
    3b94:	81 95       	neg	r24
    3b96:	9f 4f       	sbci	r25, 0xFF	; 255
    3b98:	08 95       	ret

00003b9a <__divmodhi4_neg2>:
    3b9a:	70 95       	com	r23
    3b9c:	61 95       	neg	r22
    3b9e:	7f 4f       	sbci	r23, 0xFF	; 255

00003ba0 <__divmodhi4_exit>:
    3ba0:	08 95       	ret

00003ba2 <__udivmodsi4>:
    3ba2:	a1 e2       	ldi	r26, 0x21	; 33
    3ba4:	1a 2e       	mov	r1, r26
    3ba6:	aa 1b       	sub	r26, r26
    3ba8:	bb 1b       	sub	r27, r27
    3baa:	fd 01       	movw	r30, r26
    3bac:	0d c0       	rjmp	.+26     	; 0x3bc8 <__udivmodsi4_ep>

00003bae <__udivmodsi4_loop>:
    3bae:	aa 1f       	adc	r26, r26
    3bb0:	bb 1f       	adc	r27, r27
    3bb2:	ee 1f       	adc	r30, r30
    3bb4:	ff 1f       	adc	r31, r31
    3bb6:	a2 17       	cp	r26, r18
    3bb8:	b3 07       	cpc	r27, r19
    3bba:	e4 07       	cpc	r30, r20
    3bbc:	f5 07       	cpc	r31, r21
    3bbe:	20 f0       	brcs	.+8      	; 0x3bc8 <__udivmodsi4_ep>
    3bc0:	a2 1b       	sub	r26, r18
    3bc2:	b3 0b       	sbc	r27, r19
    3bc4:	e4 0b       	sbc	r30, r20
    3bc6:	f5 0b       	sbc	r31, r21

00003bc8 <__udivmodsi4_ep>:
    3bc8:	66 1f       	adc	r22, r22
    3bca:	77 1f       	adc	r23, r23
    3bcc:	88 1f       	adc	r24, r24
    3bce:	99 1f       	adc	r25, r25
    3bd0:	1a 94       	dec	r1
    3bd2:	69 f7       	brne	.-38     	; 0x3bae <__udivmodsi4_loop>
    3bd4:	60 95       	com	r22
    3bd6:	70 95       	com	r23
    3bd8:	80 95       	com	r24
    3bda:	90 95       	com	r25
    3bdc:	9b 01       	movw	r18, r22
    3bde:	ac 01       	movw	r20, r24
    3be0:	bd 01       	movw	r22, r26
    3be2:	cf 01       	movw	r24, r30
    3be4:	08 95       	ret

00003be6 <__tablejump2__>:
    3be6:	ee 0f       	add	r30, r30
    3be8:	ff 1f       	adc	r31, r31
    3bea:	00 24       	eor	r0, r0
    3bec:	00 1c       	adc	r0, r0
    3bee:	0b be       	out	0x3b, r0	; 59
    3bf0:	07 90       	elpm	r0, Z+
    3bf2:	f6 91       	elpm	r31, Z
    3bf4:	e0 2d       	mov	r30, r0
    3bf6:	09 94       	ijmp

00003bf8 <__mulhisi3>:
    3bf8:	0e 94 04 1e 	call	0x3c08	; 0x3c08 <__umulhisi3>
    3bfc:	33 23       	and	r19, r19
    3bfe:	12 f4       	brpl	.+4      	; 0x3c04 <__mulhisi3+0xc>
    3c00:	8a 1b       	sub	r24, r26
    3c02:	9b 0b       	sbc	r25, r27
    3c04:	0c 94 15 1e 	jmp	0x3c2a	; 0x3c2a <__usmulhisi3_tail>

00003c08 <__umulhisi3>:
    3c08:	a2 9f       	mul	r26, r18
    3c0a:	b0 01       	movw	r22, r0
    3c0c:	b3 9f       	mul	r27, r19
    3c0e:	c0 01       	movw	r24, r0
    3c10:	a3 9f       	mul	r26, r19
    3c12:	70 0d       	add	r23, r0
    3c14:	81 1d       	adc	r24, r1
    3c16:	11 24       	eor	r1, r1
    3c18:	91 1d       	adc	r25, r1
    3c1a:	b2 9f       	mul	r27, r18
    3c1c:	70 0d       	add	r23, r0
    3c1e:	81 1d       	adc	r24, r1
    3c20:	11 24       	eor	r1, r1
    3c22:	91 1d       	adc	r25, r1
    3c24:	08 95       	ret

00003c26 <__usmulhisi3>:
    3c26:	0e 94 04 1e 	call	0x3c08	; 0x3c08 <__umulhisi3>

00003c2a <__usmulhisi3_tail>:
    3c2a:	b7 ff       	sbrs	r27, 7
    3c2c:	08 95       	ret
    3c2e:	82 1b       	sub	r24, r18
    3c30:	93 0b       	sbc	r25, r19
    3c32:	08 95       	ret

00003c34 <__mulshisi3>:
    3c34:	b7 ff       	sbrs	r27, 7
    3c36:	0c 94 22 1e 	jmp	0x3c44	; 0x3c44 <__muluhisi3>

00003c3a <__mulohisi3>:
    3c3a:	0e 94 22 1e 	call	0x3c44	; 0x3c44 <__muluhisi3>
    3c3e:	82 1b       	sub	r24, r18
    3c40:	93 0b       	sbc	r25, r19
    3c42:	08 95       	ret

00003c44 <__muluhisi3>:
    3c44:	0e 94 04 1e 	call	0x3c08	; 0x3c08 <__umulhisi3>
    3c48:	a5 9f       	mul	r26, r21
    3c4a:	90 0d       	add	r25, r0
    3c4c:	b4 9f       	mul	r27, r20
    3c4e:	90 0d       	add	r25, r0
    3c50:	a4 9f       	mul	r26, r20
    3c52:	80 0d       	add	r24, r0
    3c54:	91 1d       	adc	r25, r1
    3c56:	11 24       	eor	r1, r1
    3c58:	08 95       	ret

00003c5a <__subsf3>:
    3c5a:	50 58       	subi	r21, 0x80	; 128

00003c5c <__addsf3>:
    3c5c:	bb 27       	eor	r27, r27
    3c5e:	aa 27       	eor	r26, r26
    3c60:	0e 94 45 1e 	call	0x3c8a	; 0x3c8a <__addsf3x>
    3c64:	0c 94 96 1f 	jmp	0x3f2c	; 0x3f2c <__fp_round>
    3c68:	0e 94 88 1f 	call	0x3f10	; 0x3f10 <__fp_pscA>
    3c6c:	38 f0       	brcs	.+14     	; 0x3c7c <__addsf3+0x20>
    3c6e:	0e 94 8f 1f 	call	0x3f1e	; 0x3f1e <__fp_pscB>
    3c72:	20 f0       	brcs	.+8      	; 0x3c7c <__addsf3+0x20>
    3c74:	39 f4       	brne	.+14     	; 0x3c84 <__addsf3+0x28>
    3c76:	9f 3f       	cpi	r25, 0xFF	; 255
    3c78:	19 f4       	brne	.+6      	; 0x3c80 <__addsf3+0x24>
    3c7a:	26 f4       	brtc	.+8      	; 0x3c84 <__addsf3+0x28>
    3c7c:	0c 94 85 1f 	jmp	0x3f0a	; 0x3f0a <__fp_nan>
    3c80:	0e f4       	brtc	.+2      	; 0x3c84 <__addsf3+0x28>
    3c82:	e0 95       	com	r30
    3c84:	e7 fb       	bst	r30, 7
    3c86:	0c 94 7f 1f 	jmp	0x3efe	; 0x3efe <__fp_inf>

00003c8a <__addsf3x>:
    3c8a:	e9 2f       	mov	r30, r25
    3c8c:	0e 94 a7 1f 	call	0x3f4e	; 0x3f4e <__fp_split3>
    3c90:	58 f3       	brcs	.-42     	; 0x3c68 <__addsf3+0xc>
    3c92:	ba 17       	cp	r27, r26
    3c94:	62 07       	cpc	r22, r18
    3c96:	73 07       	cpc	r23, r19
    3c98:	84 07       	cpc	r24, r20
    3c9a:	95 07       	cpc	r25, r21
    3c9c:	20 f0       	brcs	.+8      	; 0x3ca6 <__addsf3x+0x1c>
    3c9e:	79 f4       	brne	.+30     	; 0x3cbe <__addsf3x+0x34>
    3ca0:	a6 f5       	brtc	.+104    	; 0x3d0a <__addsf3x+0x80>
    3ca2:	0c 94 c9 1f 	jmp	0x3f92	; 0x3f92 <__fp_zero>
    3ca6:	0e f4       	brtc	.+2      	; 0x3caa <__addsf3x+0x20>
    3ca8:	e0 95       	com	r30
    3caa:	0b 2e       	mov	r0, r27
    3cac:	ba 2f       	mov	r27, r26
    3cae:	a0 2d       	mov	r26, r0
    3cb0:	0b 01       	movw	r0, r22
    3cb2:	b9 01       	movw	r22, r18
    3cb4:	90 01       	movw	r18, r0
    3cb6:	0c 01       	movw	r0, r24
    3cb8:	ca 01       	movw	r24, r20
    3cba:	a0 01       	movw	r20, r0
    3cbc:	11 24       	eor	r1, r1
    3cbe:	ff 27       	eor	r31, r31
    3cc0:	59 1b       	sub	r21, r25
    3cc2:	99 f0       	breq	.+38     	; 0x3cea <__addsf3x+0x60>
    3cc4:	59 3f       	cpi	r21, 0xF9	; 249
    3cc6:	50 f4       	brcc	.+20     	; 0x3cdc <__addsf3x+0x52>
    3cc8:	50 3e       	cpi	r21, 0xE0	; 224
    3cca:	68 f1       	brcs	.+90     	; 0x3d26 <__addsf3x+0x9c>
    3ccc:	1a 16       	cp	r1, r26
    3cce:	f0 40       	sbci	r31, 0x00	; 0
    3cd0:	a2 2f       	mov	r26, r18
    3cd2:	23 2f       	mov	r18, r19
    3cd4:	34 2f       	mov	r19, r20
    3cd6:	44 27       	eor	r20, r20
    3cd8:	58 5f       	subi	r21, 0xF8	; 248
    3cda:	f3 cf       	rjmp	.-26     	; 0x3cc2 <__addsf3x+0x38>
    3cdc:	46 95       	lsr	r20
    3cde:	37 95       	ror	r19
    3ce0:	27 95       	ror	r18
    3ce2:	a7 95       	ror	r26
    3ce4:	f0 40       	sbci	r31, 0x00	; 0
    3ce6:	53 95       	inc	r21
    3ce8:	c9 f7       	brne	.-14     	; 0x3cdc <__addsf3x+0x52>
    3cea:	7e f4       	brtc	.+30     	; 0x3d0a <__addsf3x+0x80>
    3cec:	1f 16       	cp	r1, r31
    3cee:	ba 0b       	sbc	r27, r26
    3cf0:	62 0b       	sbc	r22, r18
    3cf2:	73 0b       	sbc	r23, r19
    3cf4:	84 0b       	sbc	r24, r20
    3cf6:	ba f0       	brmi	.+46     	; 0x3d26 <__addsf3x+0x9c>
    3cf8:	91 50       	subi	r25, 0x01	; 1
    3cfa:	a1 f0       	breq	.+40     	; 0x3d24 <__addsf3x+0x9a>
    3cfc:	ff 0f       	add	r31, r31
    3cfe:	bb 1f       	adc	r27, r27
    3d00:	66 1f       	adc	r22, r22
    3d02:	77 1f       	adc	r23, r23
    3d04:	88 1f       	adc	r24, r24
    3d06:	c2 f7       	brpl	.-16     	; 0x3cf8 <__addsf3x+0x6e>
    3d08:	0e c0       	rjmp	.+28     	; 0x3d26 <__addsf3x+0x9c>
    3d0a:	ba 0f       	add	r27, r26
    3d0c:	62 1f       	adc	r22, r18
    3d0e:	73 1f       	adc	r23, r19
    3d10:	84 1f       	adc	r24, r20
    3d12:	48 f4       	brcc	.+18     	; 0x3d26 <__addsf3x+0x9c>
    3d14:	87 95       	ror	r24
    3d16:	77 95       	ror	r23
    3d18:	67 95       	ror	r22
    3d1a:	b7 95       	ror	r27
    3d1c:	f7 95       	ror	r31
    3d1e:	9e 3f       	cpi	r25, 0xFE	; 254
    3d20:	08 f0       	brcs	.+2      	; 0x3d24 <__addsf3x+0x9a>
    3d22:	b0 cf       	rjmp	.-160    	; 0x3c84 <__addsf3+0x28>
    3d24:	93 95       	inc	r25
    3d26:	88 0f       	add	r24, r24
    3d28:	08 f0       	brcs	.+2      	; 0x3d2c <__addsf3x+0xa2>
    3d2a:	99 27       	eor	r25, r25
    3d2c:	ee 0f       	add	r30, r30
    3d2e:	97 95       	ror	r25
    3d30:	87 95       	ror	r24
    3d32:	08 95       	ret

00003d34 <__divsf3>:
    3d34:	0e 94 ae 1e 	call	0x3d5c	; 0x3d5c <__divsf3x>
    3d38:	0c 94 96 1f 	jmp	0x3f2c	; 0x3f2c <__fp_round>
    3d3c:	0e 94 8f 1f 	call	0x3f1e	; 0x3f1e <__fp_pscB>
    3d40:	58 f0       	brcs	.+22     	; 0x3d58 <__divsf3+0x24>
    3d42:	0e 94 88 1f 	call	0x3f10	; 0x3f10 <__fp_pscA>
    3d46:	40 f0       	brcs	.+16     	; 0x3d58 <__divsf3+0x24>
    3d48:	29 f4       	brne	.+10     	; 0x3d54 <__divsf3+0x20>
    3d4a:	5f 3f       	cpi	r21, 0xFF	; 255
    3d4c:	29 f0       	breq	.+10     	; 0x3d58 <__divsf3+0x24>
    3d4e:	0c 94 7f 1f 	jmp	0x3efe	; 0x3efe <__fp_inf>
    3d52:	51 11       	cpse	r21, r1
    3d54:	0c 94 ca 1f 	jmp	0x3f94	; 0x3f94 <__fp_szero>
    3d58:	0c 94 85 1f 	jmp	0x3f0a	; 0x3f0a <__fp_nan>

00003d5c <__divsf3x>:
    3d5c:	0e 94 a7 1f 	call	0x3f4e	; 0x3f4e <__fp_split3>
    3d60:	68 f3       	brcs	.-38     	; 0x3d3c <__divsf3+0x8>

00003d62 <__divsf3_pse>:
    3d62:	99 23       	and	r25, r25
    3d64:	b1 f3       	breq	.-20     	; 0x3d52 <__divsf3+0x1e>
    3d66:	55 23       	and	r21, r21
    3d68:	91 f3       	breq	.-28     	; 0x3d4e <__divsf3+0x1a>
    3d6a:	95 1b       	sub	r25, r21
    3d6c:	55 0b       	sbc	r21, r21
    3d6e:	bb 27       	eor	r27, r27
    3d70:	aa 27       	eor	r26, r26
    3d72:	62 17       	cp	r22, r18
    3d74:	73 07       	cpc	r23, r19
    3d76:	84 07       	cpc	r24, r20
    3d78:	38 f0       	brcs	.+14     	; 0x3d88 <__divsf3_pse+0x26>
    3d7a:	9f 5f       	subi	r25, 0xFF	; 255
    3d7c:	5f 4f       	sbci	r21, 0xFF	; 255
    3d7e:	22 0f       	add	r18, r18
    3d80:	33 1f       	adc	r19, r19
    3d82:	44 1f       	adc	r20, r20
    3d84:	aa 1f       	adc	r26, r26
    3d86:	a9 f3       	breq	.-22     	; 0x3d72 <__divsf3_pse+0x10>
    3d88:	35 d0       	rcall	.+106    	; 0x3df4 <__divsf3_pse+0x92>
    3d8a:	0e 2e       	mov	r0, r30
    3d8c:	3a f0       	brmi	.+14     	; 0x3d9c <__divsf3_pse+0x3a>
    3d8e:	e0 e8       	ldi	r30, 0x80	; 128
    3d90:	32 d0       	rcall	.+100    	; 0x3df6 <__divsf3_pse+0x94>
    3d92:	91 50       	subi	r25, 0x01	; 1
    3d94:	50 40       	sbci	r21, 0x00	; 0
    3d96:	e6 95       	lsr	r30
    3d98:	00 1c       	adc	r0, r0
    3d9a:	ca f7       	brpl	.-14     	; 0x3d8e <__divsf3_pse+0x2c>
    3d9c:	2b d0       	rcall	.+86     	; 0x3df4 <__divsf3_pse+0x92>
    3d9e:	fe 2f       	mov	r31, r30
    3da0:	29 d0       	rcall	.+82     	; 0x3df4 <__divsf3_pse+0x92>
    3da2:	66 0f       	add	r22, r22
    3da4:	77 1f       	adc	r23, r23
    3da6:	88 1f       	adc	r24, r24
    3da8:	bb 1f       	adc	r27, r27
    3daa:	26 17       	cp	r18, r22
    3dac:	37 07       	cpc	r19, r23
    3dae:	48 07       	cpc	r20, r24
    3db0:	ab 07       	cpc	r26, r27
    3db2:	b0 e8       	ldi	r27, 0x80	; 128
    3db4:	09 f0       	breq	.+2      	; 0x3db8 <__divsf3_pse+0x56>
    3db6:	bb 0b       	sbc	r27, r27
    3db8:	80 2d       	mov	r24, r0
    3dba:	bf 01       	movw	r22, r30
    3dbc:	ff 27       	eor	r31, r31
    3dbe:	93 58       	subi	r25, 0x83	; 131
    3dc0:	5f 4f       	sbci	r21, 0xFF	; 255
    3dc2:	3a f0       	brmi	.+14     	; 0x3dd2 <__divsf3_pse+0x70>
    3dc4:	9e 3f       	cpi	r25, 0xFE	; 254
    3dc6:	51 05       	cpc	r21, r1
    3dc8:	78 f0       	brcs	.+30     	; 0x3de8 <__divsf3_pse+0x86>
    3dca:	0c 94 7f 1f 	jmp	0x3efe	; 0x3efe <__fp_inf>
    3dce:	0c 94 ca 1f 	jmp	0x3f94	; 0x3f94 <__fp_szero>
    3dd2:	5f 3f       	cpi	r21, 0xFF	; 255
    3dd4:	e4 f3       	brlt	.-8      	; 0x3dce <__divsf3_pse+0x6c>
    3dd6:	98 3e       	cpi	r25, 0xE8	; 232
    3dd8:	d4 f3       	brlt	.-12     	; 0x3dce <__divsf3_pse+0x6c>
    3dda:	86 95       	lsr	r24
    3ddc:	77 95       	ror	r23
    3dde:	67 95       	ror	r22
    3de0:	b7 95       	ror	r27
    3de2:	f7 95       	ror	r31
    3de4:	9f 5f       	subi	r25, 0xFF	; 255
    3de6:	c9 f7       	brne	.-14     	; 0x3dda <__divsf3_pse+0x78>
    3de8:	88 0f       	add	r24, r24
    3dea:	91 1d       	adc	r25, r1
    3dec:	96 95       	lsr	r25
    3dee:	87 95       	ror	r24
    3df0:	97 f9       	bld	r25, 7
    3df2:	08 95       	ret
    3df4:	e1 e0       	ldi	r30, 0x01	; 1
    3df6:	66 0f       	add	r22, r22
    3df8:	77 1f       	adc	r23, r23
    3dfa:	88 1f       	adc	r24, r24
    3dfc:	bb 1f       	adc	r27, r27
    3dfe:	62 17       	cp	r22, r18
    3e00:	73 07       	cpc	r23, r19
    3e02:	84 07       	cpc	r24, r20
    3e04:	ba 07       	cpc	r27, r26
    3e06:	20 f0       	brcs	.+8      	; 0x3e10 <__divsf3_pse+0xae>
    3e08:	62 1b       	sub	r22, r18
    3e0a:	73 0b       	sbc	r23, r19
    3e0c:	84 0b       	sbc	r24, r20
    3e0e:	ba 0b       	sbc	r27, r26
    3e10:	ee 1f       	adc	r30, r30
    3e12:	88 f7       	brcc	.-30     	; 0x3df6 <__divsf3_pse+0x94>
    3e14:	e0 95       	com	r30
    3e16:	08 95       	ret

00003e18 <__fixsfsi>:
    3e18:	0e 94 13 1f 	call	0x3e26	; 0x3e26 <__fixunssfsi>
    3e1c:	68 94       	set
    3e1e:	b1 11       	cpse	r27, r1
    3e20:	0c 94 ca 1f 	jmp	0x3f94	; 0x3f94 <__fp_szero>
    3e24:	08 95       	ret

00003e26 <__fixunssfsi>:
    3e26:	0e 94 af 1f 	call	0x3f5e	; 0x3f5e <__fp_splitA>
    3e2a:	88 f0       	brcs	.+34     	; 0x3e4e <__fixunssfsi+0x28>
    3e2c:	9f 57       	subi	r25, 0x7F	; 127
    3e2e:	98 f0       	brcs	.+38     	; 0x3e56 <__fixunssfsi+0x30>
    3e30:	b9 2f       	mov	r27, r25
    3e32:	99 27       	eor	r25, r25
    3e34:	b7 51       	subi	r27, 0x17	; 23
    3e36:	b0 f0       	brcs	.+44     	; 0x3e64 <__fixunssfsi+0x3e>
    3e38:	e1 f0       	breq	.+56     	; 0x3e72 <__fixunssfsi+0x4c>
    3e3a:	66 0f       	add	r22, r22
    3e3c:	77 1f       	adc	r23, r23
    3e3e:	88 1f       	adc	r24, r24
    3e40:	99 1f       	adc	r25, r25
    3e42:	1a f0       	brmi	.+6      	; 0x3e4a <__fixunssfsi+0x24>
    3e44:	ba 95       	dec	r27
    3e46:	c9 f7       	brne	.-14     	; 0x3e3a <__fixunssfsi+0x14>
    3e48:	14 c0       	rjmp	.+40     	; 0x3e72 <__fixunssfsi+0x4c>
    3e4a:	b1 30       	cpi	r27, 0x01	; 1
    3e4c:	91 f0       	breq	.+36     	; 0x3e72 <__fixunssfsi+0x4c>
    3e4e:	0e 94 c9 1f 	call	0x3f92	; 0x3f92 <__fp_zero>
    3e52:	b1 e0       	ldi	r27, 0x01	; 1
    3e54:	08 95       	ret
    3e56:	0c 94 c9 1f 	jmp	0x3f92	; 0x3f92 <__fp_zero>
    3e5a:	67 2f       	mov	r22, r23
    3e5c:	78 2f       	mov	r23, r24
    3e5e:	88 27       	eor	r24, r24
    3e60:	b8 5f       	subi	r27, 0xF8	; 248
    3e62:	39 f0       	breq	.+14     	; 0x3e72 <__fixunssfsi+0x4c>
    3e64:	b9 3f       	cpi	r27, 0xF9	; 249
    3e66:	cc f3       	brlt	.-14     	; 0x3e5a <__fixunssfsi+0x34>
    3e68:	86 95       	lsr	r24
    3e6a:	77 95       	ror	r23
    3e6c:	67 95       	ror	r22
    3e6e:	b3 95       	inc	r27
    3e70:	d9 f7       	brne	.-10     	; 0x3e68 <__fixunssfsi+0x42>
    3e72:	3e f4       	brtc	.+14     	; 0x3e82 <__fixunssfsi+0x5c>
    3e74:	90 95       	com	r25
    3e76:	80 95       	com	r24
    3e78:	70 95       	com	r23
    3e7a:	61 95       	neg	r22
    3e7c:	7f 4f       	sbci	r23, 0xFF	; 255
    3e7e:	8f 4f       	sbci	r24, 0xFF	; 255
    3e80:	9f 4f       	sbci	r25, 0xFF	; 255
    3e82:	08 95       	ret

00003e84 <__floatunsisf>:
    3e84:	e8 94       	clt
    3e86:	09 c0       	rjmp	.+18     	; 0x3e9a <__floatsisf+0x12>

00003e88 <__floatsisf>:
    3e88:	97 fb       	bst	r25, 7
    3e8a:	3e f4       	brtc	.+14     	; 0x3e9a <__floatsisf+0x12>
    3e8c:	90 95       	com	r25
    3e8e:	80 95       	com	r24
    3e90:	70 95       	com	r23
    3e92:	61 95       	neg	r22
    3e94:	7f 4f       	sbci	r23, 0xFF	; 255
    3e96:	8f 4f       	sbci	r24, 0xFF	; 255
    3e98:	9f 4f       	sbci	r25, 0xFF	; 255
    3e9a:	99 23       	and	r25, r25
    3e9c:	a9 f0       	breq	.+42     	; 0x3ec8 <__floatsisf+0x40>
    3e9e:	f9 2f       	mov	r31, r25
    3ea0:	96 e9       	ldi	r25, 0x96	; 150
    3ea2:	bb 27       	eor	r27, r27
    3ea4:	93 95       	inc	r25
    3ea6:	f6 95       	lsr	r31
    3ea8:	87 95       	ror	r24
    3eaa:	77 95       	ror	r23
    3eac:	67 95       	ror	r22
    3eae:	b7 95       	ror	r27
    3eb0:	f1 11       	cpse	r31, r1
    3eb2:	f8 cf       	rjmp	.-16     	; 0x3ea4 <__floatsisf+0x1c>
    3eb4:	fa f4       	brpl	.+62     	; 0x3ef4 <__floatsisf+0x6c>
    3eb6:	bb 0f       	add	r27, r27
    3eb8:	11 f4       	brne	.+4      	; 0x3ebe <__floatsisf+0x36>
    3eba:	60 ff       	sbrs	r22, 0
    3ebc:	1b c0       	rjmp	.+54     	; 0x3ef4 <__floatsisf+0x6c>
    3ebe:	6f 5f       	subi	r22, 0xFF	; 255
    3ec0:	7f 4f       	sbci	r23, 0xFF	; 255
    3ec2:	8f 4f       	sbci	r24, 0xFF	; 255
    3ec4:	9f 4f       	sbci	r25, 0xFF	; 255
    3ec6:	16 c0       	rjmp	.+44     	; 0x3ef4 <__floatsisf+0x6c>
    3ec8:	88 23       	and	r24, r24
    3eca:	11 f0       	breq	.+4      	; 0x3ed0 <__floatsisf+0x48>
    3ecc:	96 e9       	ldi	r25, 0x96	; 150
    3ece:	11 c0       	rjmp	.+34     	; 0x3ef2 <__floatsisf+0x6a>
    3ed0:	77 23       	and	r23, r23
    3ed2:	21 f0       	breq	.+8      	; 0x3edc <__floatsisf+0x54>
    3ed4:	9e e8       	ldi	r25, 0x8E	; 142
    3ed6:	87 2f       	mov	r24, r23
    3ed8:	76 2f       	mov	r23, r22
    3eda:	05 c0       	rjmp	.+10     	; 0x3ee6 <__floatsisf+0x5e>
    3edc:	66 23       	and	r22, r22
    3ede:	71 f0       	breq	.+28     	; 0x3efc <__floatsisf+0x74>
    3ee0:	96 e8       	ldi	r25, 0x86	; 134
    3ee2:	86 2f       	mov	r24, r22
    3ee4:	70 e0       	ldi	r23, 0x00	; 0
    3ee6:	60 e0       	ldi	r22, 0x00	; 0
    3ee8:	2a f0       	brmi	.+10     	; 0x3ef4 <__floatsisf+0x6c>
    3eea:	9a 95       	dec	r25
    3eec:	66 0f       	add	r22, r22
    3eee:	77 1f       	adc	r23, r23
    3ef0:	88 1f       	adc	r24, r24
    3ef2:	da f7       	brpl	.-10     	; 0x3eea <__floatsisf+0x62>
    3ef4:	88 0f       	add	r24, r24
    3ef6:	96 95       	lsr	r25
    3ef8:	87 95       	ror	r24
    3efa:	97 f9       	bld	r25, 7
    3efc:	08 95       	ret

00003efe <__fp_inf>:
    3efe:	97 f9       	bld	r25, 7
    3f00:	9f 67       	ori	r25, 0x7F	; 127
    3f02:	80 e8       	ldi	r24, 0x80	; 128
    3f04:	70 e0       	ldi	r23, 0x00	; 0
    3f06:	60 e0       	ldi	r22, 0x00	; 0
    3f08:	08 95       	ret

00003f0a <__fp_nan>:
    3f0a:	9f ef       	ldi	r25, 0xFF	; 255
    3f0c:	80 ec       	ldi	r24, 0xC0	; 192
    3f0e:	08 95       	ret

00003f10 <__fp_pscA>:
    3f10:	00 24       	eor	r0, r0
    3f12:	0a 94       	dec	r0
    3f14:	16 16       	cp	r1, r22
    3f16:	17 06       	cpc	r1, r23
    3f18:	18 06       	cpc	r1, r24
    3f1a:	09 06       	cpc	r0, r25
    3f1c:	08 95       	ret

00003f1e <__fp_pscB>:
    3f1e:	00 24       	eor	r0, r0
    3f20:	0a 94       	dec	r0
    3f22:	12 16       	cp	r1, r18
    3f24:	13 06       	cpc	r1, r19
    3f26:	14 06       	cpc	r1, r20
    3f28:	05 06       	cpc	r0, r21
    3f2a:	08 95       	ret

00003f2c <__fp_round>:
    3f2c:	09 2e       	mov	r0, r25
    3f2e:	03 94       	inc	r0
    3f30:	00 0c       	add	r0, r0
    3f32:	11 f4       	brne	.+4      	; 0x3f38 <__fp_round+0xc>
    3f34:	88 23       	and	r24, r24
    3f36:	52 f0       	brmi	.+20     	; 0x3f4c <__fp_round+0x20>
    3f38:	bb 0f       	add	r27, r27
    3f3a:	40 f4       	brcc	.+16     	; 0x3f4c <__fp_round+0x20>
    3f3c:	bf 2b       	or	r27, r31
    3f3e:	11 f4       	brne	.+4      	; 0x3f44 <__fp_round+0x18>
    3f40:	60 ff       	sbrs	r22, 0
    3f42:	04 c0       	rjmp	.+8      	; 0x3f4c <__fp_round+0x20>
    3f44:	6f 5f       	subi	r22, 0xFF	; 255
    3f46:	7f 4f       	sbci	r23, 0xFF	; 255
    3f48:	8f 4f       	sbci	r24, 0xFF	; 255
    3f4a:	9f 4f       	sbci	r25, 0xFF	; 255
    3f4c:	08 95       	ret

00003f4e <__fp_split3>:
    3f4e:	57 fd       	sbrc	r21, 7
    3f50:	90 58       	subi	r25, 0x80	; 128
    3f52:	44 0f       	add	r20, r20
    3f54:	55 1f       	adc	r21, r21
    3f56:	59 f0       	breq	.+22     	; 0x3f6e <__fp_splitA+0x10>
    3f58:	5f 3f       	cpi	r21, 0xFF	; 255
    3f5a:	71 f0       	breq	.+28     	; 0x3f78 <__fp_splitA+0x1a>
    3f5c:	47 95       	ror	r20

00003f5e <__fp_splitA>:
    3f5e:	88 0f       	add	r24, r24
    3f60:	97 fb       	bst	r25, 7
    3f62:	99 1f       	adc	r25, r25
    3f64:	61 f0       	breq	.+24     	; 0x3f7e <__fp_splitA+0x20>
    3f66:	9f 3f       	cpi	r25, 0xFF	; 255
    3f68:	79 f0       	breq	.+30     	; 0x3f88 <__fp_splitA+0x2a>
    3f6a:	87 95       	ror	r24
    3f6c:	08 95       	ret
    3f6e:	12 16       	cp	r1, r18
    3f70:	13 06       	cpc	r1, r19
    3f72:	14 06       	cpc	r1, r20
    3f74:	55 1f       	adc	r21, r21
    3f76:	f2 cf       	rjmp	.-28     	; 0x3f5c <__fp_split3+0xe>
    3f78:	46 95       	lsr	r20
    3f7a:	f1 df       	rcall	.-30     	; 0x3f5e <__fp_splitA>
    3f7c:	08 c0       	rjmp	.+16     	; 0x3f8e <__fp_splitA+0x30>
    3f7e:	16 16       	cp	r1, r22
    3f80:	17 06       	cpc	r1, r23
    3f82:	18 06       	cpc	r1, r24
    3f84:	99 1f       	adc	r25, r25
    3f86:	f1 cf       	rjmp	.-30     	; 0x3f6a <__fp_splitA+0xc>
    3f88:	86 95       	lsr	r24
    3f8a:	71 05       	cpc	r23, r1
    3f8c:	61 05       	cpc	r22, r1
    3f8e:	08 94       	sec
    3f90:	08 95       	ret

00003f92 <__fp_zero>:
    3f92:	e8 94       	clt

00003f94 <__fp_szero>:
    3f94:	bb 27       	eor	r27, r27
    3f96:	66 27       	eor	r22, r22
    3f98:	77 27       	eor	r23, r23
    3f9a:	cb 01       	movw	r24, r22
    3f9c:	97 f9       	bld	r25, 7
    3f9e:	08 95       	ret

00003fa0 <__mulsf3>:
    3fa0:	0e 94 e3 1f 	call	0x3fc6	; 0x3fc6 <__mulsf3x>
    3fa4:	0c 94 96 1f 	jmp	0x3f2c	; 0x3f2c <__fp_round>
    3fa8:	0e 94 88 1f 	call	0x3f10	; 0x3f10 <__fp_pscA>
    3fac:	38 f0       	brcs	.+14     	; 0x3fbc <__mulsf3+0x1c>
    3fae:	0e 94 8f 1f 	call	0x3f1e	; 0x3f1e <__fp_pscB>
    3fb2:	20 f0       	brcs	.+8      	; 0x3fbc <__mulsf3+0x1c>
    3fb4:	95 23       	and	r25, r21
    3fb6:	11 f0       	breq	.+4      	; 0x3fbc <__mulsf3+0x1c>
    3fb8:	0c 94 7f 1f 	jmp	0x3efe	; 0x3efe <__fp_inf>
    3fbc:	0c 94 85 1f 	jmp	0x3f0a	; 0x3f0a <__fp_nan>
    3fc0:	11 24       	eor	r1, r1
    3fc2:	0c 94 ca 1f 	jmp	0x3f94	; 0x3f94 <__fp_szero>

00003fc6 <__mulsf3x>:
    3fc6:	0e 94 a7 1f 	call	0x3f4e	; 0x3f4e <__fp_split3>
    3fca:	70 f3       	brcs	.-36     	; 0x3fa8 <__mulsf3+0x8>

00003fcc <__mulsf3_pse>:
    3fcc:	95 9f       	mul	r25, r21
    3fce:	c1 f3       	breq	.-16     	; 0x3fc0 <__mulsf3+0x20>
    3fd0:	95 0f       	add	r25, r21
    3fd2:	50 e0       	ldi	r21, 0x00	; 0
    3fd4:	55 1f       	adc	r21, r21
    3fd6:	62 9f       	mul	r22, r18
    3fd8:	f0 01       	movw	r30, r0
    3fda:	72 9f       	mul	r23, r18
    3fdc:	bb 27       	eor	r27, r27
    3fde:	f0 0d       	add	r31, r0
    3fe0:	b1 1d       	adc	r27, r1
    3fe2:	63 9f       	mul	r22, r19
    3fe4:	aa 27       	eor	r26, r26
    3fe6:	f0 0d       	add	r31, r0
    3fe8:	b1 1d       	adc	r27, r1
    3fea:	aa 1f       	adc	r26, r26
    3fec:	64 9f       	mul	r22, r20
    3fee:	66 27       	eor	r22, r22
    3ff0:	b0 0d       	add	r27, r0
    3ff2:	a1 1d       	adc	r26, r1
    3ff4:	66 1f       	adc	r22, r22
    3ff6:	82 9f       	mul	r24, r18
    3ff8:	22 27       	eor	r18, r18
    3ffa:	b0 0d       	add	r27, r0
    3ffc:	a1 1d       	adc	r26, r1
    3ffe:	62 1f       	adc	r22, r18
    4000:	73 9f       	mul	r23, r19
    4002:	b0 0d       	add	r27, r0
    4004:	a1 1d       	adc	r26, r1
    4006:	62 1f       	adc	r22, r18
    4008:	83 9f       	mul	r24, r19
    400a:	a0 0d       	add	r26, r0
    400c:	61 1d       	adc	r22, r1
    400e:	22 1f       	adc	r18, r18
    4010:	74 9f       	mul	r23, r20
    4012:	33 27       	eor	r19, r19
    4014:	a0 0d       	add	r26, r0
    4016:	61 1d       	adc	r22, r1
    4018:	23 1f       	adc	r18, r19
    401a:	84 9f       	mul	r24, r20
    401c:	60 0d       	add	r22, r0
    401e:	21 1d       	adc	r18, r1
    4020:	82 2f       	mov	r24, r18
    4022:	76 2f       	mov	r23, r22
    4024:	6a 2f       	mov	r22, r26
    4026:	11 24       	eor	r1, r1
    4028:	9f 57       	subi	r25, 0x7F	; 127
    402a:	50 40       	sbci	r21, 0x00	; 0
    402c:	9a f0       	brmi	.+38     	; 0x4054 <__mulsf3_pse+0x88>
    402e:	f1 f0       	breq	.+60     	; 0x406c <__mulsf3_pse+0xa0>
    4030:	88 23       	and	r24, r24
    4032:	4a f0       	brmi	.+18     	; 0x4046 <__mulsf3_pse+0x7a>
    4034:	ee 0f       	add	r30, r30
    4036:	ff 1f       	adc	r31, r31
    4038:	bb 1f       	adc	r27, r27
    403a:	66 1f       	adc	r22, r22
    403c:	77 1f       	adc	r23, r23
    403e:	88 1f       	adc	r24, r24
    4040:	91 50       	subi	r25, 0x01	; 1
    4042:	50 40       	sbci	r21, 0x00	; 0
    4044:	a9 f7       	brne	.-22     	; 0x4030 <__mulsf3_pse+0x64>
    4046:	9e 3f       	cpi	r25, 0xFE	; 254
    4048:	51 05       	cpc	r21, r1
    404a:	80 f0       	brcs	.+32     	; 0x406c <__mulsf3_pse+0xa0>
    404c:	0c 94 7f 1f 	jmp	0x3efe	; 0x3efe <__fp_inf>
    4050:	0c 94 ca 1f 	jmp	0x3f94	; 0x3f94 <__fp_szero>
    4054:	5f 3f       	cpi	r21, 0xFF	; 255
    4056:	e4 f3       	brlt	.-8      	; 0x4050 <__mulsf3_pse+0x84>
    4058:	98 3e       	cpi	r25, 0xE8	; 232
    405a:	d4 f3       	brlt	.-12     	; 0x4050 <__mulsf3_pse+0x84>
    405c:	86 95       	lsr	r24
    405e:	77 95       	ror	r23
    4060:	67 95       	ror	r22
    4062:	b7 95       	ror	r27
    4064:	f7 95       	ror	r31
    4066:	e7 95       	ror	r30
    4068:	9f 5f       	subi	r25, 0xFF	; 255
    406a:	c1 f7       	brne	.-16     	; 0x405c <__mulsf3_pse+0x90>
    406c:	fe 2b       	or	r31, r30
    406e:	88 0f       	add	r24, r24
    4070:	91 1d       	adc	r25, r1
    4072:	96 95       	lsr	r25
    4074:	87 95       	ror	r24
    4076:	97 f9       	bld	r25, 7
    4078:	08 95       	ret

0000407a <_exit>:
    407a:	f8 94       	cli

0000407c <__stop_program>:
    407c:	ff cf       	rjmp	.-2      	; 0x407c <__stop_program>
